
main.elf:     file format elf32-littlearm

Disassembly of section .text:

0016e820 <_start>:
  16e820:	e3a00002 	mov	r0, #2	; 0x2
  16e824:	e3300002 	teq	r0, #2	; 0x2
  16e828:	e3a0dc19 	mov	sp, #6400	; 0x1900
  16e82c:	e3a0b000 	mov	fp, #0	; 0x0
  16e830:	ea0066f1 	b	1883fc <startup>

0016e834 <fselect_sort_nothumb>:
  16e834:	e52de004 	push	{lr}		; (str lr, [sp, #-4]!)
  16e838:	eb00cdc3 	bl	1a1f4c <__fselect_sort_from_arm>
  16e83c:	e49de004 	pop	{lr}		; (ldr lr, [sp], #4)
  16e840:	e12fff1e 	bx	lr

0016e844 <core_hook_task_create>:
  16e844:	4770      	bx	lr
  16e846:	46c0      	nop			(mov r8, r8)

0016e848 <core_get_noise_reduction_value>:
  16e848:	4b01      	ldr	r3, [pc, #4]	(16e850 <core_get_noise_reduction_value+0x8>)
  16e84a:	6b58      	ldr	r0, [r3, #52]
  16e84c:	4770      	bx	lr
  16e84e:	46c0      	nop			(mov r8, r8)
  16e850:	001ba558 	.word	0x001ba558

0016e854 <core_rawdata_available>:
  16e854:	4a01      	ldr	r2, [pc, #4]	(16e85c <core_rawdata_available+0x8>)
  16e856:	2301      	movs	r3, #1
  16e858:	6013      	str	r3, [r2, #0]
  16e85a:	4770      	bx	lr
  16e85c:	001af754 	.word	0x001af754

0016e860 <core_spytask_can_start>:
  16e860:	4a01      	ldr	r2, [pc, #4]	(16e868 <core_spytask_can_start+0x8>)
  16e862:	2301      	movs	r3, #1
  16e864:	6013      	str	r3, [r2, #0]
  16e866:	4770      	bx	lr
  16e868:	001af750 	.word	0x001af750

0016e86c <ftell>:
  16e86c:	2800      	cmp	r0, #0
  16e86e:	d102      	bne.n	16e876 <ftell+0xa>
  16e870:	2001      	movs	r0, #1
  16e872:	4240      	negs	r0, r0
  16e874:	e000      	b.n	16e878 <ftell+0xc>
  16e876:	68c0      	ldr	r0, [r0, #12]
  16e878:	4770      	bx	lr
  16e87a:	46c0      	nop			(mov r8, r8)

0016e87c <core_spytask>:
  16e87c:	b5f0      	push	{r4, r5, r6, r7, lr}
  16e87e:	4b4b      	ldr	r3, [pc, #300]	(16e9ac <core_spytask+0x130>)
  16e880:	4c4b      	ldr	r4, [pc, #300]	(16e9b0 <core_spytask+0x134>)
  16e882:	2200      	movs	r2, #0
  16e884:	b081      	sub	sp, #4
  16e886:	601a      	str	r2, [r3, #0]
  16e888:	6022      	str	r2, [r4, #0]
  16e88a:	f032 ff97 	bl	1a17bc <__init_chdk_ptp_task_from_thumb>
  16e88e:	2500      	movs	r5, #0
  16e890:	4e48      	ldr	r6, [pc, #288]	(16e9b4 <core_spytask+0x138>)
  16e892:	e002      	b.n	16e89a <core_spytask+0x1e>
  16e894:	200a      	movs	r0, #10
  16e896:	f032 ff95 	bl	1a17c4 <__msleep_from_thumb>
  16e89a:	3501      	adds	r5, #1
  16e89c:	42b5      	cmp	r5, r6
  16e89e:	d002      	beq.n	16e8a6 <core_spytask+0x2a>
  16e8a0:	6823      	ldr	r3, [r4, #0]
  16e8a2:	2b00      	cmp	r3, #0
  16e8a4:	d0f6      	beq.n	16e894 <core_spytask+0x18>
  16e8a6:	2001      	movs	r0, #1
  16e8a8:	f032 ff90 	bl	1a17cc <__debug_led_from_thumb>
  16e8ac:	2032      	movs	r0, #50
  16e8ae:	f032 ff89 	bl	1a17c4 <__msleep_from_thumb>
  16e8b2:	2000      	movs	r0, #0
  16e8b4:	f032 ff8a 	bl	1a17cc <__debug_led_from_thumb>
  16e8b8:	f032 ff8c 	bl	1a17d4 <__drv_self_unhide_from_thumb>
  16e8bc:	f007 ffc2 	bl	176844 <conf_restore>
  16e8c0:	f006 f84a 	bl	174958 <gui_init>
  16e8c4:	483c      	ldr	r0, [pc, #240]	(16e9b8 <core_spytask+0x13c>)
  16e8c6:	f032 ff89 	bl	1a17dc <__mkdir_from_thumb>
  16e8ca:	483c      	ldr	r0, [pc, #240]	(16e9bc <core_spytask+0x140>)
  16e8cc:	f032 ff86 	bl	1a17dc <__mkdir_from_thumb>
  16e8d0:	483b      	ldr	r0, [pc, #236]	(16e9c0 <core_spytask+0x144>)
  16e8d2:	f032 ff83 	bl	1a17dc <__mkdir_from_thumb>
  16e8d6:	483b      	ldr	r0, [pc, #236]	(16e9c4 <core_spytask+0x148>)
  16e8d8:	f032 ff80 	bl	1a17dc <__mkdir_from_thumb>
  16e8dc:	483a      	ldr	r0, [pc, #232]	(16e9c8 <core_spytask+0x14c>)
  16e8de:	f032 ff7d 	bl	1a17dc <__mkdir_from_thumb>
  16e8e2:	483a      	ldr	r0, [pc, #232]	(16e9cc <core_spytask+0x150>)
  16e8e4:	f032 ff7a 	bl	1a17dc <__mkdir_from_thumb>
  16e8e8:	4839      	ldr	r0, [pc, #228]	(16e9d0 <core_spytask+0x154>)
  16e8ea:	f032 ff77 	bl	1a17dc <__mkdir_from_thumb>
  16e8ee:	4839      	ldr	r0, [pc, #228]	(16e9d4 <core_spytask+0x158>)
  16e8f0:	f032 ff74 	bl	1a17dc <__mkdir_from_thumb>
  16e8f4:	4838      	ldr	r0, [pc, #224]	(16e9d8 <core_spytask+0x15c>)
  16e8f6:	f032 ff71 	bl	1a17dc <__mkdir_from_thumb>
  16e8fa:	4838      	ldr	r0, [pc, #224]	(16e9dc <core_spytask+0x160>)
  16e8fc:	f032 ff6e 	bl	1a17dc <__mkdir_from_thumb>
  16e900:	4a37      	ldr	r2, [pc, #220]	(16e9e0 <core_spytask+0x164>)
  16e902:	2300      	movs	r3, #0
  16e904:	6013      	str	r3, [r2, #0]
  16e906:	4a37      	ldr	r2, [pc, #220]	(16e9e4 <core_spytask+0x168>)
  16e908:	4b37      	ldr	r3, [pc, #220]	(16e9e8 <core_spytask+0x16c>)
  16e90a:	58d3      	ldr	r3, [r2, r3]
  16e90c:	2b01      	cmp	r3, #1
  16e90e:	d101      	bne.n	16e914 <core_spytask+0x98>
  16e910:	f007 f956 	bl	175bc0 <script_autostart>
  16e914:	4a33      	ldr	r2, [pc, #204]	(16e9e4 <core_spytask+0x168>)
  16e916:	4934      	ldr	r1, [pc, #208]	(16e9e8 <core_spytask+0x16c>)
  16e918:	5853      	ldr	r3, [r2, r1]
  16e91a:	2b02      	cmp	r3, #2
  16e91c:	d105      	bne.n	16e92a <core_spytask+0xae>
  16e91e:	2300      	movs	r3, #0
  16e920:	5053      	str	r3, [r2, r1]
  16e922:	f007 fd17 	bl	176354 <conf_save>
  16e926:	f007 f94b 	bl	175bc0 <script_autostart>
  16e92a:	4b20      	ldr	r3, [pc, #128]	(16e9ac <core_spytask+0x130>)
  16e92c:	4e2f      	ldr	r6, [pc, #188]	(16e9ec <core_spytask+0x170>)
  16e92e:	4f30      	ldr	r7, [pc, #192]	(16e9f0 <core_spytask+0x174>)
  16e930:	2501      	movs	r5, #1
  16e932:	9300      	str	r3, [sp, #0]
  16e934:	f032 ff56 	bl	1a17e4 <__load_chdk_palette_from_thumb>
  16e938:	6833      	ldr	r3, [r6, #0]
  16e93a:	2b00      	cmp	r3, #0
  16e93c:	d008      	beq.n	16e950 <core_spytask+0xd4>
  16e93e:	f00b ff19 	bl	17a774 <raw_savefile>
  16e942:	9b00      	ldr	r3, [sp, #0]
  16e944:	6018      	str	r0, [r3, #0]
  16e946:	f032 ff51 	bl	1a17ec <__hook_raw_save_complete_from_thumb>
  16e94a:	2300      	movs	r3, #0
  16e94c:	6033      	str	r3, [r6, #0]
  16e94e:	e7f1      	b.n	16e934 <core_spytask+0xb8>
  16e950:	683b      	ldr	r3, [r7, #0]
  16e952:	2b02      	cmp	r3, #2
  16e954:	d015      	beq.n	16e982 <core_spytask+0x106>
  16e956:	2303      	movs	r3, #3
  16e958:	402b      	ands	r3, r5
  16e95a:	3501      	adds	r5, #1
  16e95c:	2b00      	cmp	r3, #0
  16e95e:	d101      	bne.n	16e964 <core_spytask+0xe8>
  16e960:	f005 fe7c 	bl	17465c <gui_redraw>
  16e964:	f008 f80e 	bl	176984 <histogram_process>
  16e968:	4a1e      	ldr	r2, [pc, #120]	(16e9e4 <core_spytask+0x168>)
  16e96a:	23db      	movs	r3, #219
  16e96c:	00db      	lsls	r3, r3, #3
  16e96e:	58d3      	ldr	r3, [r2, r3]
  16e970:	2b00      	cmp	r3, #0
  16e972:	d006      	beq.n	16e982 <core_spytask+0x106>
  16e974:	23da      	movs	r3, #218
  16e976:	00db      	lsls	r3, r3, #3
  16e978:	58d3      	ldr	r3, [r2, r3]
  16e97a:	2b00      	cmp	r3, #0
  16e97c:	d001      	beq.n	16e982 <core_spytask+0x106>
  16e97e:	f015 fee9 	bl	184754 <edge_overlay>
  16e982:	4c1b      	ldr	r4, [pc, #108]	(16e9f0 <core_spytask+0x174>)
  16e984:	6823      	ldr	r3, [r4, #0]
  16e986:	2b02      	cmp	r3, #2
  16e988:	d10b      	bne.n	16e9a2 <core_spytask+0x126>
  16e98a:	f032 ff33 	bl	1a17f4 <__shooting_in_progress_from_thumb>
  16e98e:	2800      	cmp	r0, #0
  16e990:	d107      	bne.n	16e9a2 <core_spytask+0x126>
  16e992:	2303      	movs	r3, #3
  16e994:	6023      	str	r3, [r4, #0]
  16e996:	4b05      	ldr	r3, [pc, #20]	(16e9ac <core_spytask+0x130>)
  16e998:	681b      	ldr	r3, [r3, #0]
  16e99a:	2b00      	cmp	r3, #0
  16e99c:	d001      	beq.n	16e9a2 <core_spytask+0x126>
  16e99e:	f00b fb43 	bl	17a028 <raw_postprocess>
  16e9a2:	2014      	movs	r0, #20
  16e9a4:	f032 ff0e 	bl	1a17c4 <__msleep_from_thumb>
  16e9a8:	e7c4      	b.n	16e934 <core_spytask+0xb8>
  16e9aa:	46c0      	nop			(mov r8, r8)
  16e9ac:	001af74c 	.word	0x001af74c
  16e9b0:	001af750 	.word	0x001af750
  16e9b4:	00000191 	.word	0x00000191
  16e9b8:	001a7968 	.word	0x001a7968
  16e9bc:	001a796f 	.word	0x001a796f
  16e9c0:	001a797c 	.word	0x001a797c
  16e9c4:	001a798b 	.word	0x001a798b
  16e9c8:	001a799a 	.word	0x001a799a
  16e9cc:	001a79a6 	.word	0x001a79a6
  16e9d0:	001a79b3 	.word	0x001a79b3
  16e9d4:	001a79c0 	.word	0x001a79c0
  16e9d8:	001a79cc 	.word	0x001a79cc
  16e9dc:	001a79d8 	.word	0x001a79d8
  16e9e0:	001bac98 	.word	0x001bac98
  16e9e4:	001ba558 	.word	0x001ba558
  16e9e8:	0000060c 	.word	0x0000060c
  16e9ec:	001af754 	.word	0x001af754
  16e9f0:	001b071c 	.word	0x001b071c

0016e9f4 <core_get_free_memory>:
  16e9f4:	b510      	push	{r4, lr}
  16e9f6:	b089      	sub	sp, #36
  16e9f8:	4668      	mov	r0, sp
  16e9fa:	f032 feff 	bl	1a17fc <__GetMemInfo_from_thumb>
  16e9fe:	9807      	ldr	r0, [sp, #28]
  16ea00:	b009      	add	sp, #36
  16ea02:	bc10      	pop	{r4}
  16ea04:	bc02      	pop	{r1}
  16ea06:	4708      	bx	r1

0016ea08 <dump_memory>:
  16ea08:	b510      	push	{r4, lr}
  16ea0a:	2001      	movs	r0, #1
  16ea0c:	f032 fede 	bl	1a17cc <__debug_led_from_thumb>
  16ea10:	4816      	ldr	r0, [pc, #88]	(16ea6c <dump_memory+0x64>)
  16ea12:	f032 fee3 	bl	1a17dc <__mkdir_from_thumb>
  16ea16:	4816      	ldr	r0, [pc, #88]	(16ea70 <dump_memory+0x68>)
  16ea18:	f032 fee0 	bl	1a17dc <__mkdir_from_thumb>
  16ea1c:	4915      	ldr	r1, [pc, #84]	(16ea74 <dump_memory+0x6c>)
  16ea1e:	4c16      	ldr	r4, [pc, #88]	(16ea78 <dump_memory+0x70>)
  16ea20:	680a      	ldr	r2, [r1, #0]
  16ea22:	1c20      	adds	r0, r4, #0
  16ea24:	1c53      	adds	r3, r2, #1
  16ea26:	600b      	str	r3, [r1, #0]
  16ea28:	4914      	ldr	r1, [pc, #80]	(16ea7c <dump_memory+0x74>)
  16ea2a:	f032 feeb 	bl	1a1804 <__sprintf_from_thumb>
  16ea2e:	1c20      	adds	r0, r4, #0
  16ea30:	4913      	ldr	r1, [pc, #76]	(16ea80 <dump_memory+0x78>)
  16ea32:	4a14      	ldr	r2, [pc, #80]	(16ea84 <dump_memory+0x7c>)
  16ea34:	f032 feea 	bl	1a180c <__open_from_thumb>
  16ea38:	1c04      	adds	r4, r0, #0
  16ea3a:	2800      	cmp	r0, #0
  16ea3c:	d00d      	beq.n	16ea5a <dump_memory+0x52>
  16ea3e:	22c8      	movs	r2, #200
  16ea40:	2100      	movs	r1, #0
  16ea42:	0152      	lsls	r2, r2, #5
  16ea44:	f032 fee6 	bl	1a1814 <__write_from_thumb>
  16ea48:	21c8      	movs	r1, #200
  16ea4a:	1c20      	adds	r0, r4, #0
  16ea4c:	0149      	lsls	r1, r1, #5
  16ea4e:	4a0e      	ldr	r2, [pc, #56]	(16ea88 <dump_memory+0x80>)
  16ea50:	f032 fee0 	bl	1a1814 <__write_from_thumb>
  16ea54:	1c20      	adds	r0, r4, #0
  16ea56:	f032 fee1 	bl	1a181c <__close_from_thumb>
  16ea5a:	f032 fee3 	bl	1a1824 <__vid_bitmap_refresh_from_thumb>
  16ea5e:	2000      	movs	r0, #0
  16ea60:	f032 feb4 	bl	1a17cc <__debug_led_from_thumb>
  16ea64:	bc10      	pop	{r4}
  16ea66:	bc01      	pop	{r0}
  16ea68:	4700      	bx	r0
  16ea6a:	46c0      	nop			(mov r8, r8)
  16ea6c:	001a79e4 	.word	0x001a79e4
  16ea70:	001a79eb 	.word	0x001a79eb
  16ea74:	001aaec4 	.word	0x001aaec4
  16ea78:	001af72c 	.word	0x001af72c
  16ea7c:	001a79fb 	.word	0x001a79fb
  16ea80:	00000101 	.word	0x00000101
  16ea84:	000001ff 	.word	0x000001ff
  16ea88:	01ffe700 	.word	0x01ffe700

0016ea8c <core_hook_task_delete>:
  16ea8c:	b500      	push	{lr}
  16ea8e:	6b40      	ldr	r0, [r0, #52]
  16ea90:	4904      	ldr	r1, [pc, #16]	(16eaa4 <core_hook_task_delete+0x18>)
  16ea92:	f032 fecb 	bl	1a182c <__strcmp_from_thumb>
  16ea96:	2800      	cmp	r0, #0
  16ea98:	d101      	bne.n	16ea9e <core_hook_task_delete+0x12>
  16ea9a:	f7ff fee1 	bl	16e860 <core_spytask_can_start>
  16ea9e:	bc01      	pop	{r0}
  16eaa0:	4700      	bx	r0
  16eaa2:	46c0      	nop			(mov r8, r8)
  16eaa4:	001a7a18 	.word	0x001a7a18

0016eaa8 <draw_pixel_std>:
  16eaa8:	4b03      	ldr	r3, [pc, #12]	(16eab8 <draw_pixel_std+0x10>)
  16eaaa:	0609      	lsls	r1, r1, #24
  16eaac:	681a      	ldr	r2, [r3, #0]
  16eaae:	685b      	ldr	r3, [r3, #4]
  16eab0:	0e09      	lsrs	r1, r1, #24
  16eab2:	5419      	strb	r1, [r3, r0]
  16eab4:	5411      	strb	r1, [r2, r0]
  16eab6:	4770      	bx	lr
  16eab8:	001af770 	.word	0x001af770

0016eabc <draw_set_draw_proc>:
  16eabc:	2800      	cmp	r0, #0
  16eabe:	d100      	bne.n	16eac2 <draw_set_draw_proc+0x6>
  16eac0:	4801      	ldr	r0, [pc, #4]	(16eac8 <draw_set_draw_proc+0xc>)
  16eac2:	4b02      	ldr	r3, [pc, #8]	(16eacc <draw_set_draw_proc+0x10>)
  16eac4:	6018      	str	r0, [r3, #0]
  16eac6:	4770      	bx	lr
  16eac8:	0016eaa9 	.word	0x0016eaa9
  16eacc:	001ba544 	.word	0x001ba544

0016ead0 <draw_set_guard>:
  16ead0:	4903      	ldr	r1, [pc, #12]	(16eae0 <draw_set_guard+0x10>)
  16ead2:	221d      	movs	r2, #29
  16ead4:	680b      	ldr	r3, [r1, #0]
  16ead6:	701a      	strb	r2, [r3, #0]
  16ead8:	684b      	ldr	r3, [r1, #4]
  16eada:	701a      	strb	r2, [r3, #0]
  16eadc:	4770      	bx	lr
  16eade:	46c0      	nop			(mov r8, r8)
  16eae0:	001af770 	.word	0x001af770

0016eae4 <draw_test_guard>:
  16eae4:	4a06      	ldr	r2, [pc, #24]	(16eb00 <draw_test_guard+0x1c>)
  16eae6:	6813      	ldr	r3, [r2, #0]
  16eae8:	781b      	ldrb	r3, [r3, #0]
  16eaea:	2b1d      	cmp	r3, #29
  16eaec:	d001      	beq.n	16eaf2 <draw_test_guard+0xe>
  16eaee:	2000      	movs	r0, #0
  16eaf0:	e004      	b.n	16eafc <draw_test_guard+0x18>
  16eaf2:	6853      	ldr	r3, [r2, #4]
  16eaf4:	781b      	ldrb	r3, [r3, #0]
  16eaf6:	3b1d      	subs	r3, #29
  16eaf8:	4258      	negs	r0, r3
  16eafa:	4158      	adcs	r0, r3
  16eafc:	4770      	bx	lr
  16eafe:	46c0      	nop			(mov r8, r8)
  16eb00:	001af770 	.word	0x001af770

0016eb04 <draw_test_pixel>:
  16eb04:	b510      	push	{r4, lr}
  16eb06:	4b11      	ldr	r3, [pc, #68]	(16eb4c <draw_test_pixel+0x48>)
  16eb08:	0412      	lsls	r2, r2, #16
  16eb0a:	681b      	ldr	r3, [r3, #0]
  16eb0c:	0c14      	lsrs	r4, r2, #16
  16eb0e:	4298      	cmp	r0, r3
  16eb10:	d218      	bcs.n	16eb44 <draw_test_pixel+0x40>
  16eb12:	4b0f      	ldr	r3, [pc, #60]	(16eb50 <draw_test_pixel+0x4c>)
  16eb14:	681b      	ldr	r3, [r3, #0]
  16eb16:	4299      	cmp	r1, r3
  16eb18:	d214      	bcs.n	16eb44 <draw_test_pixel+0x40>
  16eb1a:	4b0e      	ldr	r3, [pc, #56]	(16eb54 <draw_test_pixel+0x50>)
  16eb1c:	681b      	ldr	r3, [r3, #0]
  16eb1e:	1c1a      	adds	r2, r3, #0
  16eb20:	434a      	muls	r2, r1
  16eb22:	490d      	ldr	r1, [pc, #52]	(16eb58 <draw_test_pixel+0x54>)
  16eb24:	0043      	lsls	r3, r0, #1
  16eb26:	18d2      	adds	r2, r2, r3
  16eb28:	680b      	ldr	r3, [r1, #0]
  16eb2a:	5c98      	ldrb	r0, [r3, r2]
  16eb2c:	42a0      	cmp	r0, r4
  16eb2e:	d109      	bne.n	16eb44 <draw_test_pixel+0x40>
  16eb30:	684b      	ldr	r3, [r1, #4]
  16eb32:	5c9b      	ldrb	r3, [r3, r2]
  16eb34:	1a1b      	subs	r3, r3, r0
  16eb36:	1e5a      	subs	r2, r3, #1
  16eb38:	4193      	sbcs	r3, r2
  16eb3a:	2201      	movs	r2, #1
  16eb3c:	4053      	eors	r3, r2
  16eb3e:	061b      	lsls	r3, r3, #24
  16eb40:	0e18      	lsrs	r0, r3, #24
  16eb42:	e000      	b.n	16eb46 <draw_test_pixel+0x42>
  16eb44:	2000      	movs	r0, #0
  16eb46:	bc10      	pop	{r4}
  16eb48:	bc02      	pop	{r1}
  16eb4a:	4708      	bx	r1
  16eb4c:	001af758 	.word	0x001af758
  16eb50:	001af75c 	.word	0x001af75c
  16eb54:	001af764 	.word	0x001af764
  16eb58:	001af770 	.word	0x001af770

0016eb5c <draw_pixel>:
  16eb5c:	b570      	push	{r4, r5, r6, lr}
  16eb5e:	4b0f      	ldr	r3, [pc, #60]	(16eb9c <draw_pixel+0x40>)
  16eb60:	0412      	lsls	r2, r2, #16
  16eb62:	681b      	ldr	r3, [r3, #0]
  16eb64:	0c16      	lsrs	r6, r2, #16
  16eb66:	4298      	cmp	r0, r3
  16eb68:	d215      	bcs.n	16eb96 <draw_pixel+0x3a>
  16eb6a:	4b0d      	ldr	r3, [pc, #52]	(16eba0 <draw_pixel+0x44>)
  16eb6c:	681b      	ldr	r3, [r3, #0]
  16eb6e:	4299      	cmp	r1, r3
  16eb70:	d211      	bcs.n	16eb96 <draw_pixel+0x3a>
  16eb72:	4b0c      	ldr	r3, [pc, #48]	(16eba4 <draw_pixel+0x48>)
  16eb74:	4d0c      	ldr	r5, [pc, #48]	(16eba8 <draw_pixel+0x4c>)
  16eb76:	681b      	ldr	r3, [r3, #0]
  16eb78:	1c1c      	adds	r4, r3, #0
  16eb7a:	434c      	muls	r4, r1
  16eb7c:	0043      	lsls	r3, r0, #1
  16eb7e:	18e4      	adds	r4, r4, r3
  16eb80:	1c20      	adds	r0, r4, #0
  16eb82:	682b      	ldr	r3, [r5, #0]
  16eb84:	1c31      	adds	r1, r6, #0
  16eb86:	3401      	adds	r4, #1
  16eb88:	f000 fd96 	bl	16f6b8 <draw_init+0x6c>
  16eb8c:	682b      	ldr	r3, [r5, #0]
  16eb8e:	1c20      	adds	r0, r4, #0
  16eb90:	1c31      	adds	r1, r6, #0
  16eb92:	f000 fd91 	bl	16f6b8 <draw_init+0x6c>
  16eb96:	bc70      	pop	{r4, r5, r6}
  16eb98:	bc01      	pop	{r0}
  16eb9a:	4700      	bx	r0
  16eb9c:	001af758 	.word	0x001af758
  16eba0:	001af75c 	.word	0x001af75c
  16eba4:	001af764 	.word	0x001af764
  16eba8:	001ba544 	.word	0x001ba544

0016ebac <draw_get_pixel>:
  16ebac:	b510      	push	{r4, lr}
  16ebae:	4b0b      	ldr	r3, [pc, #44]	(16ebdc <draw_get_pixel+0x30>)
  16ebb0:	1c04      	adds	r4, r0, #0
  16ebb2:	681b      	ldr	r3, [r3, #0]
  16ebb4:	4298      	cmp	r0, r3
  16ebb6:	d20d      	bcs.n	16ebd4 <draw_get_pixel+0x28>
  16ebb8:	4b09      	ldr	r3, [pc, #36]	(16ebe0 <draw_get_pixel+0x34>)
  16ebba:	681b      	ldr	r3, [r3, #0]
  16ebbc:	4299      	cmp	r1, r3
  16ebbe:	d209      	bcs.n	16ebd4 <draw_get_pixel+0x28>
  16ebc0:	4b08      	ldr	r3, [pc, #32]	(16ebe4 <draw_get_pixel+0x38>)
  16ebc2:	4809      	ldr	r0, [pc, #36]	(16ebe8 <draw_get_pixel+0x3c>)
  16ebc4:	681b      	ldr	r3, [r3, #0]
  16ebc6:	1c1a      	adds	r2, r3, #0
  16ebc8:	434a      	muls	r2, r1
  16ebca:	6803      	ldr	r3, [r0, #0]
  16ebcc:	0061      	lsls	r1, r4, #1
  16ebce:	189b      	adds	r3, r3, r2
  16ebd0:	5c58      	ldrb	r0, [r3, r1]
  16ebd2:	e000      	b.n	16ebd6 <draw_get_pixel+0x2a>
  16ebd4:	2000      	movs	r0, #0
  16ebd6:	bc10      	pop	{r4}
  16ebd8:	bc02      	pop	{r1}
  16ebda:	4708      	bx	r1
  16ebdc:	001af758 	.word	0x001af758
  16ebe0:	001af75c 	.word	0x001af75c
  16ebe4:	001af764 	.word	0x001af764
  16ebe8:	001af770 	.word	0x001af770

0016ebec <draw_line>:
  16ebec:	b5f0      	push	{r4, r5, r6, r7, lr}
  16ebee:	b085      	sub	sp, #20
  16ebf0:	1c04      	adds	r4, r0, #0
  16ebf2:	1c08      	adds	r0, r1, #0
  16ebf4:	1c19      	adds	r1, r3, #0
  16ebf6:	9b0a      	ldr	r3, [sp, #40]
  16ebf8:	1c15      	adds	r5, r2, #0
  16ebfa:	041b      	lsls	r3, r3, #16
  16ebfc:	0c1b      	lsrs	r3, r3, #16
  16ebfe:	1a0a      	subs	r2, r1, r0
  16ec00:	9300      	str	r3, [sp, #0]
  16ec02:	17d3      	asrs	r3, r2, #31
  16ec04:	18d2      	adds	r2, r2, r3
  16ec06:	405a      	eors	r2, r3
  16ec08:	1b2b      	subs	r3, r5, r4
  16ec0a:	17de      	asrs	r6, r3, #31
  16ec0c:	199b      	adds	r3, r3, r6
  16ec0e:	4073      	eors	r3, r6
  16ec10:	2601      	movs	r6, #1
  16ec12:	9601      	str	r6, [sp, #4]
  16ec14:	429a      	cmp	r2, r3
  16ec16:	dc02      	bgt.n	16ec1e <draw_line+0x32>
  16ec18:	2200      	movs	r2, #0
  16ec1a:	9201      	str	r2, [sp, #4]
  16ec1c:	e009      	b.n	16ec32 <draw_line+0x46>
  16ec1e:	1c03      	adds	r3, r0, #0
  16ec20:	4063      	eors	r3, r4
  16ec22:	4058      	eors	r0, r3
  16ec24:	1c04      	adds	r4, r0, #0
  16ec26:	405c      	eors	r4, r3
  16ec28:	1c0b      	adds	r3, r1, #0
  16ec2a:	406b      	eors	r3, r5
  16ec2c:	4059      	eors	r1, r3
  16ec2e:	1c0d      	adds	r5, r1, #0
  16ec30:	405d      	eors	r5, r3
  16ec32:	42ac      	cmp	r4, r5
  16ec34:	d909      	bls.n	16ec4a <draw_line+0x5e>
  16ec36:	1c2b      	adds	r3, r5, #0
  16ec38:	4063      	eors	r3, r4
  16ec3a:	405d      	eors	r5, r3
  16ec3c:	1c2c      	adds	r4, r5, #0
  16ec3e:	405c      	eors	r4, r3
  16ec40:	1c0b      	adds	r3, r1, #0
  16ec42:	4043      	eors	r3, r0
  16ec44:	4059      	eors	r1, r3
  16ec46:	1c08      	adds	r0, r1, #0
  16ec48:	4058      	eors	r0, r3
  16ec4a:	1b2b      	subs	r3, r5, r4
  16ec4c:	9302      	str	r3, [sp, #8]
  16ec4e:	1a0b      	subs	r3, r1, r0
  16ec50:	17da      	asrs	r2, r3, #31
  16ec52:	189e      	adds	r6, r3, r2
  16ec54:	4056      	eors	r6, r2
  16ec56:	9603      	str	r6, [sp, #12]
  16ec58:	4288      	cmp	r0, r1
  16ec5a:	d202      	bcs.n	16ec62 <draw_line+0x76>
  16ec5c:	2301      	movs	r3, #1
  16ec5e:	9304      	str	r3, [sp, #16]
  16ec60:	e002      	b.n	16ec68 <draw_line+0x7c>
  16ec62:	2601      	movs	r6, #1
  16ec64:	4276      	negs	r6, r6
  16ec66:	9604      	str	r6, [sp, #16]
  16ec68:	1c07      	adds	r7, r0, #0
  16ec6a:	2600      	movs	r6, #0
  16ec6c:	e014      	b.n	16ec98 <draw_line+0xac>
  16ec6e:	9a01      	ldr	r2, [sp, #4]
  16ec70:	2a00      	cmp	r2, #0
  16ec72:	d002      	beq.n	16ec7a <draw_line+0x8e>
  16ec74:	1c38      	adds	r0, r7, #0
  16ec76:	1c21      	adds	r1, r4, #0
  16ec78:	e001      	b.n	16ec7e <draw_line+0x92>
  16ec7a:	1c20      	adds	r0, r4, #0
  16ec7c:	1c39      	adds	r1, r7, #0
  16ec7e:	9a00      	ldr	r2, [sp, #0]
  16ec80:	f7ff ff6c 	bl	16eb5c <draw_pixel>
  16ec84:	9b03      	ldr	r3, [sp, #12]
  16ec86:	9a02      	ldr	r2, [sp, #8]
  16ec88:	18f6      	adds	r6, r6, r3
  16ec8a:	0073      	lsls	r3, r6, #1
  16ec8c:	4293      	cmp	r3, r2
  16ec8e:	db02      	blt.n	16ec96 <draw_line+0xaa>
  16ec90:	9b04      	ldr	r3, [sp, #16]
  16ec92:	1ab6      	subs	r6, r6, r2
  16ec94:	18ff      	adds	r7, r7, r3
  16ec96:	3401      	adds	r4, #1
  16ec98:	42ac      	cmp	r4, r5
  16ec9a:	d9e8      	bls.n	16ec6e <draw_line+0x82>
  16ec9c:	b005      	add	sp, #20
  16ec9e:	bcf0      	pop	{r4, r5, r6, r7}
  16eca0:	bc01      	pop	{r0}
  16eca2:	4700      	bx	r0

0016eca4 <draw_hline>:
  16eca4:	b5f0      	push	{r4, r5, r6, r7, lr}
  16eca6:	041b      	lsls	r3, r3, #16
  16eca8:	0c1f      	lsrs	r7, r3, #16
  16ecaa:	4b11      	ldr	r3, [pc, #68]	(16ecf0 <draw_hline+0x4c>)
  16ecac:	1c14      	adds	r4, r2, #0
  16ecae:	681a      	ldr	r2, [r3, #0]
  16ecb0:	4290      	cmp	r0, r2
  16ecb2:	d219      	bcs.n	16ece8 <draw_hline+0x44>
  16ecb4:	4b0f      	ldr	r3, [pc, #60]	(16ecf4 <draw_hline+0x50>)
  16ecb6:	681b      	ldr	r3, [r3, #0]
  16ecb8:	4299      	cmp	r1, r3
  16ecba:	d215      	bcs.n	16ece8 <draw_hline+0x44>
  16ecbc:	1823      	adds	r3, r4, r0
  16ecbe:	4293      	cmp	r3, r2
  16ecc0:	d900      	bls.n	16ecc4 <draw_hline+0x20>
  16ecc2:	1a14      	subs	r4, r2, r0
  16ecc4:	4b0c      	ldr	r3, [pc, #48]	(16ecf8 <draw_hline+0x54>)
  16ecc6:	0064      	lsls	r4, r4, #1
  16ecc8:	681b      	ldr	r3, [r3, #0]
  16ecca:	4e0c      	ldr	r6, [pc, #48]	(16ecfc <draw_hline+0x58>)
  16eccc:	1c1a      	adds	r2, r3, #0
  16ecce:	434a      	muls	r2, r1
  16ecd0:	0043      	lsls	r3, r0, #1
  16ecd2:	18d5      	adds	r5, r2, r3
  16ecd4:	e006      	b.n	16ece4 <draw_hline+0x40>
  16ecd6:	1c28      	adds	r0, r5, #0
  16ecd8:	6833      	ldr	r3, [r6, #0]
  16ecda:	1c39      	adds	r1, r7, #0
  16ecdc:	f000 fcec 	bl	16f6b8 <draw_init+0x6c>
  16ece0:	3c01      	subs	r4, #1
  16ece2:	3501      	adds	r5, #1
  16ece4:	2c00      	cmp	r4, #0
  16ece6:	daf6      	bge.n	16ecd6 <draw_hline+0x32>
  16ece8:	bcf0      	pop	{r4, r5, r6, r7}
  16ecea:	bc01      	pop	{r0}
  16ecec:	4700      	bx	r0
  16ecee:	46c0      	nop			(mov r8, r8)
  16ecf0:	001af758 	.word	0x001af758
  16ecf4:	001af75c 	.word	0x001af75c
  16ecf8:	001af764 	.word	0x001af764
  16ecfc:	001ba544 	.word	0x001ba544

0016ed00 <draw_vline>:
  16ed00:	b5f0      	push	{r4, r5, r6, r7, lr}
  16ed02:	041b      	lsls	r3, r3, #16
  16ed04:	0c1f      	lsrs	r7, r3, #16
  16ed06:	4b0e      	ldr	r3, [pc, #56]	(16ed40 <draw_vline+0x40>)
  16ed08:	1c06      	adds	r6, r0, #0
  16ed0a:	681b      	ldr	r3, [r3, #0]
  16ed0c:	1c0c      	adds	r4, r1, #0
  16ed0e:	1c15      	adds	r5, r2, #0
  16ed10:	4298      	cmp	r0, r3
  16ed12:	d211      	bcs.n	16ed38 <draw_vline+0x38>
  16ed14:	4b0b      	ldr	r3, [pc, #44]	(16ed44 <draw_vline+0x44>)
  16ed16:	681a      	ldr	r2, [r3, #0]
  16ed18:	4291      	cmp	r1, r2
  16ed1a:	d20d      	bcs.n	16ed38 <draw_vline+0x38>
  16ed1c:	186b      	adds	r3, r5, r1
  16ed1e:	4293      	cmp	r3, r2
  16ed20:	d908      	bls.n	16ed34 <draw_vline+0x34>
  16ed22:	1a55      	subs	r5, r2, r1
  16ed24:	e006      	b.n	16ed34 <draw_vline+0x34>
  16ed26:	1c21      	adds	r1, r4, #0
  16ed28:	1c30      	adds	r0, r6, #0
  16ed2a:	1c3a      	adds	r2, r7, #0
  16ed2c:	f7ff ff16 	bl	16eb5c <draw_pixel>
  16ed30:	3d01      	subs	r5, #1
  16ed32:	3401      	adds	r4, #1
  16ed34:	2d00      	cmp	r5, #0
  16ed36:	daf6      	bge.n	16ed26 <draw_vline+0x26>
  16ed38:	bcf0      	pop	{r4, r5, r6, r7}
  16ed3a:	bc01      	pop	{r0}
  16ed3c:	4700      	bx	r0
  16ed3e:	46c0      	nop			(mov r8, r8)
  16ed40:	001af758 	.word	0x001af758
  16ed44:	001af75c 	.word	0x001af75c

0016ed48 <draw_rectangle>:
  16ed48:	b5f0      	push	{r4, r5, r6, r7, lr}
  16ed4a:	b082      	sub	sp, #8
  16ed4c:	1c1d      	adds	r5, r3, #0
  16ed4e:	9b07      	ldr	r3, [sp, #28]
  16ed50:	4c34      	ldr	r4, [pc, #208]	(16ee24 <draw_rectangle+0xdc>)
  16ed52:	041b      	lsls	r3, r3, #16
  16ed54:	0c1b      	lsrs	r3, r3, #16
  16ed56:	9301      	str	r3, [sp, #4]
  16ed58:	4b33      	ldr	r3, [pc, #204]	(16ee28 <draw_rectangle+0xe0>)
  16ed5a:	4290      	cmp	r0, r2
  16ed5c:	d902      	bls.n	16ed64 <draw_rectangle+0x1c>
  16ed5e:	6020      	str	r0, [r4, #0]
  16ed60:	601a      	str	r2, [r3, #0]
  16ed62:	e001      	b.n	16ed68 <draw_rectangle+0x20>
  16ed64:	6018      	str	r0, [r3, #0]
  16ed66:	6022      	str	r2, [r4, #0]
  16ed68:	4a30      	ldr	r2, [pc, #192]	(16ee2c <draw_rectangle+0xe4>)
  16ed6a:	4b31      	ldr	r3, [pc, #196]	(16ee30 <draw_rectangle+0xe8>)
  16ed6c:	42a9      	cmp	r1, r5
  16ed6e:	d902      	bls.n	16ed76 <draw_rectangle+0x2e>
  16ed70:	6011      	str	r1, [r2, #0]
  16ed72:	601d      	str	r5, [r3, #0]
  16ed74:	e001      	b.n	16ed7a <draw_rectangle+0x32>
  16ed76:	6019      	str	r1, [r3, #0]
  16ed78:	6015      	str	r5, [r2, #0]
  16ed7a:	4b2e      	ldr	r3, [pc, #184]	(16ee34 <draw_rectangle+0xec>)
  16ed7c:	4929      	ldr	r1, [pc, #164]	(16ee24 <draw_rectangle+0xdc>)
  16ed7e:	681a      	ldr	r2, [r3, #0]
  16ed80:	680b      	ldr	r3, [r1, #0]
  16ed82:	4293      	cmp	r3, r2
  16ed84:	d301      	bcc.n	16ed8a <draw_rectangle+0x42>
  16ed86:	1e53      	subs	r3, r2, #1
  16ed88:	600b      	str	r3, [r1, #0]
  16ed8a:	4927      	ldr	r1, [pc, #156]	(16ee28 <draw_rectangle+0xe0>)
  16ed8c:	680b      	ldr	r3, [r1, #0]
  16ed8e:	4293      	cmp	r3, r2
  16ed90:	d301      	bcc.n	16ed96 <draw_rectangle+0x4e>
  16ed92:	1e53      	subs	r3, r2, #1
  16ed94:	600b      	str	r3, [r1, #0]
  16ed96:	4b28      	ldr	r3, [pc, #160]	(16ee38 <draw_rectangle+0xf0>)
  16ed98:	4924      	ldr	r1, [pc, #144]	(16ee2c <draw_rectangle+0xe4>)
  16ed9a:	681a      	ldr	r2, [r3, #0]
  16ed9c:	680b      	ldr	r3, [r1, #0]
  16ed9e:	4293      	cmp	r3, r2
  16eda0:	d301      	bcc.n	16eda6 <draw_rectangle+0x5e>
  16eda2:	1e53      	subs	r3, r2, #1
  16eda4:	600b      	str	r3, [r1, #0]
  16eda6:	4922      	ldr	r1, [pc, #136]	(16ee30 <draw_rectangle+0xe8>)
  16eda8:	680b      	ldr	r3, [r1, #0]
  16edaa:	4293      	cmp	r3, r2
  16edac:	d301      	bcc.n	16edb2 <draw_rectangle+0x6a>
  16edae:	1e53      	subs	r3, r2, #1
  16edb0:	600b      	str	r3, [r1, #0]
  16edb2:	4b1f      	ldr	r3, [pc, #124]	(16ee30 <draw_rectangle+0xe8>)
  16edb4:	9a08      	ldr	r2, [sp, #32]
  16edb6:	681b      	ldr	r3, [r3, #0]
  16edb8:	0057      	lsls	r7, r2, #1
  16edba:	18fc      	adds	r4, r7, r3
  16edbc:	4b1b      	ldr	r3, [pc, #108]	(16ee2c <draw_rectangle+0xe4>)
  16edbe:	4e19      	ldr	r6, [pc, #100]	(16ee24 <draw_rectangle+0xdc>)
  16edc0:	9300      	str	r3, [sp, #0]
  16edc2:	4d19      	ldr	r5, [pc, #100]	(16ee28 <draw_rectangle+0xe0>)
  16edc4:	e00a      	b.n	16eddc <draw_rectangle+0x94>
  16edc6:	1c21      	adds	r1, r4, #0
  16edc8:	6828      	ldr	r0, [r5, #0]
  16edca:	9a01      	ldr	r2, [sp, #4]
  16edcc:	f7ff fec6 	bl	16eb5c <draw_pixel>
  16edd0:	1c21      	adds	r1, r4, #0
  16edd2:	6830      	ldr	r0, [r6, #0]
  16edd4:	9a01      	ldr	r2, [sp, #4]
  16edd6:	f7ff fec1 	bl	16eb5c <draw_pixel>
  16edda:	3401      	adds	r4, #1
  16eddc:	9a00      	ldr	r2, [sp, #0]
  16edde:	6813      	ldr	r3, [r2, #0]
  16ede0:	1bdb      	subs	r3, r3, r7
  16ede2:	429c      	cmp	r4, r3
  16ede4:	d9ef      	bls.n	16edc6 <draw_rectangle+0x7e>
  16ede6:	682c      	ldr	r4, [r5, #0]
  16ede8:	9b08      	ldr	r3, [sp, #32]
  16edea:	6832      	ldr	r2, [r6, #0]
  16edec:	191c      	adds	r4, r3, r4
  16edee:	4b10      	ldr	r3, [pc, #64]	(16ee30 <draw_rectangle+0xe8>)
  16edf0:	1c60      	adds	r0, r4, #1
  16edf2:	6819      	ldr	r1, [r3, #0]
  16edf4:	9b08      	ldr	r3, [sp, #32]
  16edf6:	43e4      	mvns	r4, r4
  16edf8:	1ad2      	subs	r2, r2, r3
  16edfa:	1912      	adds	r2, r2, r4
  16edfc:	9b01      	ldr	r3, [sp, #4]
  16edfe:	f7ff ff51 	bl	16eca4 <draw_hline>
  16ee02:	9a00      	ldr	r2, [sp, #0]
  16ee04:	9c08      	ldr	r4, [sp, #32]
  16ee06:	682b      	ldr	r3, [r5, #0]
  16ee08:	6811      	ldr	r1, [r2, #0]
  16ee0a:	6832      	ldr	r2, [r6, #0]
  16ee0c:	18e3      	adds	r3, r4, r3
  16ee0e:	1c58      	adds	r0, r3, #1
  16ee10:	1b12      	subs	r2, r2, r4
  16ee12:	43db      	mvns	r3, r3
  16ee14:	18d2      	adds	r2, r2, r3
  16ee16:	9b01      	ldr	r3, [sp, #4]
  16ee18:	f7ff ff44 	bl	16eca4 <draw_hline>
  16ee1c:	b002      	add	sp, #8
  16ee1e:	bcf0      	pop	{r4, r5, r6, r7}
  16ee20:	bc01      	pop	{r0}
  16ee22:	4700      	bx	r0
  16ee24:	001af780 	.word	0x001af780
  16ee28:	001af778 	.word	0x001af778
  16ee2c:	001af784 	.word	0x001af784
  16ee30:	001af77c 	.word	0x001af77c
  16ee34:	001af758 	.word	0x001af758
  16ee38:	001af75c 	.word	0x001af75c

0016ee3c <draw_rect>:
  16ee3c:	b530      	push	{r4, r5, lr}
  16ee3e:	b082      	sub	sp, #8
  16ee40:	9c05      	ldr	r4, [sp, #20]
  16ee42:	25ff      	movs	r5, #255
  16ee44:	402c      	ands	r4, r5
  16ee46:	9400      	str	r4, [sp, #0]
  16ee48:	2400      	movs	r4, #0
  16ee4a:	9401      	str	r4, [sp, #4]
  16ee4c:	f7ff ff7c 	bl	16ed48 <draw_rectangle>
  16ee50:	b002      	add	sp, #8
  16ee52:	bc30      	pop	{r4, r5}
  16ee54:	bc01      	pop	{r0}
  16ee56:	4700      	bx	r0

0016ee58 <draw_rect_thick>:
  16ee58:	b5f0      	push	{r4, r5, r6, r7, lr}
  16ee5a:	b084      	sub	sp, #16
  16ee5c:	1c17      	adds	r7, r2, #0
  16ee5e:	9a09      	ldr	r2, [sp, #36]
  16ee60:	1c1e      	adds	r6, r3, #0
  16ee62:	1c15      	adds	r5, r2, #0
  16ee64:	23ff      	movs	r3, #255
  16ee66:	9003      	str	r0, [sp, #12]
  16ee68:	9102      	str	r1, [sp, #8]
  16ee6a:	401d      	ands	r5, r3
  16ee6c:	2400      	movs	r4, #0
  16ee6e:	e00d      	b.n	16ee8c <draw_rect_thick+0x34>
  16ee70:	9b03      	ldr	r3, [sp, #12]
  16ee72:	1b3a      	subs	r2, r7, r4
  16ee74:	18e0      	adds	r0, r4, r3
  16ee76:	9b02      	ldr	r3, [sp, #8]
  16ee78:	9500      	str	r5, [sp, #0]
  16ee7a:	18e1      	adds	r1, r4, r3
  16ee7c:	1b33      	subs	r3, r6, r4
  16ee7e:	469c      	mov	ip, r3
  16ee80:	2300      	movs	r3, #0
  16ee82:	9301      	str	r3, [sp, #4]
  16ee84:	4663      	mov	r3, ip
  16ee86:	f7ff ff5f 	bl	16ed48 <draw_rectangle>
  16ee8a:	3401      	adds	r4, #1
  16ee8c:	9b0a      	ldr	r3, [sp, #40]
  16ee8e:	429c      	cmp	r4, r3
  16ee90:	dbee      	blt.n	16ee70 <draw_rect_thick+0x18>
  16ee92:	b004      	add	sp, #16
  16ee94:	bcf0      	pop	{r4, r5, r6, r7}
  16ee96:	bc01      	pop	{r0}
  16ee98:	4700      	bx	r0
  16ee9a:	46c0      	nop			(mov r8, r8)

0016ee9c <draw_rect_shadow>:
  16ee9c:	b5f0      	push	{r4, r5, r6, r7, lr}
  16ee9e:	b084      	sub	sp, #16
  16eea0:	1c17      	adds	r7, r2, #0
  16eea2:	9a09      	ldr	r2, [sp, #36]
  16eea4:	1c1e      	adds	r6, r3, #0
  16eea6:	1c15      	adds	r5, r2, #0
  16eea8:	23ff      	movs	r3, #255
  16eeaa:	9003      	str	r0, [sp, #12]
  16eeac:	9102      	str	r1, [sp, #8]
  16eeae:	401d      	ands	r5, r3
  16eeb0:	2400      	movs	r4, #0
  16eeb2:	e00d      	b.n	16eed0 <draw_rect_shadow+0x34>
  16eeb4:	9b03      	ldr	r3, [sp, #12]
  16eeb6:	19e2      	adds	r2, r4, r7
  16eeb8:	18e0      	adds	r0, r4, r3
  16eeba:	9b02      	ldr	r3, [sp, #8]
  16eebc:	9500      	str	r5, [sp, #0]
  16eebe:	18e1      	adds	r1, r4, r3
  16eec0:	19a3      	adds	r3, r4, r6
  16eec2:	469c      	mov	ip, r3
  16eec4:	2300      	movs	r3, #0
  16eec6:	9301      	str	r3, [sp, #4]
  16eec8:	4663      	mov	r3, ip
  16eeca:	f7ff ff3d 	bl	16ed48 <draw_rectangle>
  16eece:	3401      	adds	r4, #1
  16eed0:	9b0a      	ldr	r3, [sp, #40]
  16eed2:	429c      	cmp	r4, r3
  16eed4:	dbee      	blt.n	16eeb4 <draw_rect_shadow+0x18>
  16eed6:	b004      	add	sp, #16
  16eed8:	bcf0      	pop	{r4, r5, r6, r7}
  16eeda:	bc01      	pop	{r0}
  16eedc:	4700      	bx	r0
  16eede:	46c0      	nop			(mov r8, r8)

0016eee0 <draw_round_rect>:
  16eee0:	b530      	push	{r4, r5, lr}
  16eee2:	b082      	sub	sp, #8
  16eee4:	9c05      	ldr	r4, [sp, #20]
  16eee6:	25ff      	movs	r5, #255
  16eee8:	402c      	ands	r4, r5
  16eeea:	9400      	str	r4, [sp, #0]
  16eeec:	2401      	movs	r4, #1
  16eeee:	9401      	str	r4, [sp, #4]
  16eef0:	f7ff ff2a 	bl	16ed48 <draw_rectangle>
  16eef4:	b002      	add	sp, #8
  16eef6:	bc30      	pop	{r4, r5}
  16eef8:	bc01      	pop	{r0}
  16eefa:	4700      	bx	r0

0016eefc <draw_round_rect_thick>:
  16eefc:	b5f0      	push	{r4, r5, r6, r7, lr}
  16eefe:	b084      	sub	sp, #16
  16ef00:	1c1e      	adds	r6, r3, #0
  16ef02:	9b09      	ldr	r3, [sp, #36]
  16ef04:	1c17      	adds	r7, r2, #0
  16ef06:	1c1d      	adds	r5, r3, #0
  16ef08:	22ff      	movs	r2, #255
  16ef0a:	2301      	movs	r3, #1
  16ef0c:	4015      	ands	r5, r2
  16ef0e:	9301      	str	r3, [sp, #4]
  16ef10:	1c3a      	adds	r2, r7, #0
  16ef12:	1c33      	adds	r3, r6, #0
  16ef14:	9003      	str	r0, [sp, #12]
  16ef16:	9102      	str	r1, [sp, #8]
  16ef18:	9500      	str	r5, [sp, #0]
  16ef1a:	2401      	movs	r4, #1
  16ef1c:	f7ff ff14 	bl	16ed48 <draw_rectangle>
  16ef20:	e00d      	b.n	16ef3e <draw_round_rect_thick+0x42>
  16ef22:	9b02      	ldr	r3, [sp, #8]
  16ef24:	9a03      	ldr	r2, [sp, #12]
  16ef26:	18e1      	adds	r1, r4, r3
  16ef28:	1b33      	subs	r3, r6, r4
  16ef2a:	469c      	mov	ip, r3
  16ef2c:	2300      	movs	r3, #0
  16ef2e:	18a0      	adds	r0, r4, r2
  16ef30:	9301      	str	r3, [sp, #4]
  16ef32:	1b3a      	subs	r2, r7, r4
  16ef34:	4663      	mov	r3, ip
  16ef36:	9500      	str	r5, [sp, #0]
  16ef38:	f7ff ff06 	bl	16ed48 <draw_rectangle>
  16ef3c:	3401      	adds	r4, #1
  16ef3e:	9a0a      	ldr	r2, [sp, #40]
  16ef40:	4294      	cmp	r4, r2
  16ef42:	dbee      	blt.n	16ef22 <draw_round_rect_thick+0x26>
  16ef44:	b004      	add	sp, #16
  16ef46:	bcf0      	pop	{r4, r5, r6, r7}
  16ef48:	bc01      	pop	{r0}
  16ef4a:	4700      	bx	r0

0016ef4c <fill_rect>:
  16ef4c:	b5f0      	push	{r4, r5, r6, r7, lr}
  16ef4e:	4b0e      	ldr	r3, [pc, #56]	(16ef88 <fill_rect+0x3c>)
  16ef50:	0400      	lsls	r0, r0, #16
  16ef52:	681b      	ldr	r3, [r3, #0]
  16ef54:	b081      	sub	sp, #4
  16ef56:	0e00      	lsrs	r0, r0, #24
  16ef58:	9000      	str	r0, [sp, #0]
  16ef5a:	1c5c      	adds	r4, r3, #1
  16ef5c:	4f0b      	ldr	r7, [pc, #44]	(16ef8c <fill_rect+0x40>)
  16ef5e:	4e0c      	ldr	r6, [pc, #48]	(16ef90 <fill_rect+0x44>)
  16ef60:	4d0c      	ldr	r5, [pc, #48]	(16ef94 <fill_rect+0x48>)
  16ef62:	e009      	b.n	16ef78 <fill_rect+0x2c>
  16ef64:	6832      	ldr	r2, [r6, #0]
  16ef66:	682b      	ldr	r3, [r5, #0]
  16ef68:	1c50      	adds	r0, r2, #1
  16ef6a:	43d2      	mvns	r2, r2
  16ef6c:	18d2      	adds	r2, r2, r3
  16ef6e:	1c21      	adds	r1, r4, #0
  16ef70:	9b00      	ldr	r3, [sp, #0]
  16ef72:	f7ff fe97 	bl	16eca4 <draw_hline>
  16ef76:	3401      	adds	r4, #1
  16ef78:	683b      	ldr	r3, [r7, #0]
  16ef7a:	3b01      	subs	r3, #1
  16ef7c:	429c      	cmp	r4, r3
  16ef7e:	d9f1      	bls.n	16ef64 <fill_rect+0x18>
  16ef80:	b001      	add	sp, #4
  16ef82:	bcf0      	pop	{r4, r5, r6, r7}
  16ef84:	bc01      	pop	{r0}
  16ef86:	4700      	bx	r0
  16ef88:	001af77c 	.word	0x001af77c
  16ef8c:	001af784 	.word	0x001af784
  16ef90:	001af778 	.word	0x001af778
  16ef94:	001af780 	.word	0x001af780

0016ef98 <draw_filled_rect>:
  16ef98:	b510      	push	{r4, lr}
  16ef9a:	b081      	sub	sp, #4
  16ef9c:	9c03      	ldr	r4, [sp, #12]
  16ef9e:	0424      	lsls	r4, r4, #16
  16efa0:	0c24      	lsrs	r4, r4, #16
  16efa2:	9400      	str	r4, [sp, #0]
  16efa4:	f7ff ff4a 	bl	16ee3c <draw_rect>
  16efa8:	1c20      	adds	r0, r4, #0
  16efaa:	f7ff ffcf 	bl	16ef4c <fill_rect>
  16efae:	b001      	add	sp, #4
  16efb0:	bc10      	pop	{r4}
  16efb2:	bc01      	pop	{r0}
  16efb4:	4700      	bx	r0
  16efb6:	46c0      	nop			(mov r8, r8)

0016efb8 <draw_filled_rect_thick>:
  16efb8:	b530      	push	{r4, r5, lr}
  16efba:	b082      	sub	sp, #8
  16efbc:	9c05      	ldr	r4, [sp, #20]
  16efbe:	9d06      	ldr	r5, [sp, #24]
  16efc0:	0424      	lsls	r4, r4, #16
  16efc2:	0c24      	lsrs	r4, r4, #16
  16efc4:	9501      	str	r5, [sp, #4]
  16efc6:	9400      	str	r4, [sp, #0]
  16efc8:	f7ff ff46 	bl	16ee58 <draw_rect_thick>
  16efcc:	1c20      	adds	r0, r4, #0
  16efce:	f7ff ffbd 	bl	16ef4c <fill_rect>
  16efd2:	b002      	add	sp, #8
  16efd4:	bc30      	pop	{r4, r5}
  16efd6:	bc01      	pop	{r0}
  16efd8:	4700      	bx	r0
  16efda:	46c0      	nop			(mov r8, r8)

0016efdc <draw_filled_round_rect>:
  16efdc:	b510      	push	{r4, lr}
  16efde:	b081      	sub	sp, #4
  16efe0:	9c03      	ldr	r4, [sp, #12]
  16efe2:	0424      	lsls	r4, r4, #16
  16efe4:	0c24      	lsrs	r4, r4, #16
  16efe6:	9400      	str	r4, [sp, #0]
  16efe8:	f7ff ff7a 	bl	16eee0 <draw_round_rect>
  16efec:	1c20      	adds	r0, r4, #0
  16efee:	f7ff ffad 	bl	16ef4c <fill_rect>
  16eff2:	b001      	add	sp, #4
  16eff4:	bc10      	pop	{r4}
  16eff6:	bc01      	pop	{r0}
  16eff8:	4700      	bx	r0
  16effa:	46c0      	nop			(mov r8, r8)

0016effc <draw_filled_round_rect_thick>:
  16effc:	b530      	push	{r4, r5, lr}
  16effe:	b082      	sub	sp, #8
  16f000:	9c05      	ldr	r4, [sp, #20]
  16f002:	9d06      	ldr	r5, [sp, #24]
  16f004:	0424      	lsls	r4, r4, #16
  16f006:	0c24      	lsrs	r4, r4, #16
  16f008:	9501      	str	r5, [sp, #4]
  16f00a:	9400      	str	r4, [sp, #0]
  16f00c:	f7ff ff76 	bl	16eefc <draw_round_rect_thick>
  16f010:	1c20      	adds	r0, r4, #0
  16f012:	f7ff ff9b 	bl	16ef4c <fill_rect>
  16f016:	b002      	add	sp, #8
  16f018:	bc30      	pop	{r4, r5}
  16f01a:	bc01      	pop	{r0}
  16f01c:	4700      	bx	r0
  16f01e:	46c0      	nop			(mov r8, r8)

0016f020 <draw_char>:
  16f020:	b5f0      	push	{r4, r5, r6, r7, lr}
  16f022:	b083      	sub	sp, #12
  16f024:	9100      	str	r1, [sp, #0]
  16f026:	0612      	lsls	r2, r2, #24
  16f028:	4912      	ldr	r1, [pc, #72]	(16f074 <draw_char+0x54>)
  16f02a:	041b      	lsls	r3, r3, #16
  16f02c:	0d12      	lsrs	r2, r2, #20
  16f02e:	1889      	adds	r1, r1, r2
  16f030:	0e1f      	lsrs	r7, r3, #24
  16f032:	021b      	lsls	r3, r3, #8
  16f034:	9001      	str	r0, [sp, #4]
  16f036:	9102      	str	r1, [sp, #8]
  16f038:	2500      	movs	r5, #0
  16f03a:	0e1e      	lsrs	r6, r3, #24
  16f03c:	e014      	b.n	16f068 <draw_char+0x48>
  16f03e:	9902      	ldr	r1, [sp, #8]
  16f040:	2280      	movs	r2, #128
  16f042:	5d4b      	ldrb	r3, [r1, r5]
  16f044:	4122      	asrs	r2, r4
  16f046:	421a      	tst	r2, r3
  16f048:	d101      	bne.n	16f04e <draw_char+0x2e>
  16f04a:	1c3a      	adds	r2, r7, #0
  16f04c:	e000      	b.n	16f050 <draw_char+0x30>
  16f04e:	1c32      	adds	r2, r6, #0
  16f050:	9b01      	ldr	r3, [sp, #4]
  16f052:	18e0      	adds	r0, r4, r3
  16f054:	9b00      	ldr	r3, [sp, #0]
  16f056:	3401      	adds	r4, #1
  16f058:	18e9      	adds	r1, r5, r3
  16f05a:	f7ff fd7f 	bl	16eb5c <draw_pixel>
  16f05e:	2c08      	cmp	r4, #8
  16f060:	d1ed      	bne.n	16f03e <draw_char+0x1e>
  16f062:	3501      	adds	r5, #1
  16f064:	2d10      	cmp	r5, #16
  16f066:	d001      	beq.n	16f06c <draw_char+0x4c>
  16f068:	2400      	movs	r4, #0
  16f06a:	e7e8      	b.n	16f03e <draw_char+0x1e>
  16f06c:	b003      	add	sp, #12
  16f06e:	bcf0      	pop	{r4, r5, r6, r7}
  16f070:	bc01      	pop	{r0}
  16f072:	4700      	bx	r0
  16f074:	001bc7f4 	.word	0x001bc7f4

0016f078 <draw_string>:
  16f078:	b5f0      	push	{r4, r5, r6, r7, lr}
  16f07a:	1c0f      	adds	r7, r1, #0
  16f07c:	4912      	ldr	r1, [pc, #72]	(16f0c8 <draw_string+0x50>)
  16f07e:	b081      	sub	sp, #4
  16f080:	041b      	lsls	r3, r3, #16
  16f082:	1c05      	adds	r5, r0, #0
  16f084:	1c14      	adds	r4, r2, #0
  16f086:	0c1e      	lsrs	r6, r3, #16
  16f088:	9100      	str	r1, [sp, #0]
  16f08a:	e016      	b.n	16f0ba <draw_string+0x42>
  16f08c:	1c39      	adds	r1, r7, #0
  16f08e:	1c33      	adds	r3, r6, #0
  16f090:	1c28      	adds	r0, r5, #0
  16f092:	f7ff ffc5 	bl	16f020 <draw_char>
  16f096:	9900      	ldr	r1, [sp, #0]
  16f098:	1c2a      	adds	r2, r5, #0
  16f09a:	680b      	ldr	r3, [r1, #0]
  16f09c:	3208      	adds	r2, #8
  16f09e:	3401      	adds	r4, #1
  16f0a0:	429a      	cmp	r2, r3
  16f0a2:	d309      	bcc.n	16f0b8 <draw_string+0x40>
  16f0a4:	7823      	ldrb	r3, [r4, #0]
  16f0a6:	2b00      	cmp	r3, #0
  16f0a8:	d006      	beq.n	16f0b8 <draw_string+0x40>
  16f0aa:	1c28      	adds	r0, r5, #0
  16f0ac:	1c39      	adds	r1, r7, #0
  16f0ae:	223e      	movs	r2, #62
  16f0b0:	1c33      	adds	r3, r6, #0
  16f0b2:	f7ff ffb5 	bl	16f020 <draw_char>
  16f0b6:	e003      	b.n	16f0c0 <draw_string+0x48>
  16f0b8:	1c15      	adds	r5, r2, #0
  16f0ba:	7822      	ldrb	r2, [r4, #0]
  16f0bc:	2a00      	cmp	r2, #0
  16f0be:	d1e5      	bne.n	16f08c <draw_string+0x14>
  16f0c0:	b001      	add	sp, #4
  16f0c2:	bcf0      	pop	{r4, r5, r6, r7}
  16f0c4:	bc01      	pop	{r0}
  16f0c6:	4700      	bx	r0
  16f0c8:	001af758 	.word	0x001af758

0016f0cc <draw_txt_rect>:
  16f0cc:	b570      	push	{r4, r5, r6, lr}
  16f0ce:	b081      	sub	sp, #4
  16f0d0:	9c05      	ldr	r4, [sp, #20]
  16f0d2:	1812      	adds	r2, r2, r0
  16f0d4:	185b      	adds	r3, r3, r1
  16f0d6:	00c5      	lsls	r5, r0, #3
  16f0d8:	010e      	lsls	r6, r1, #4
  16f0da:	0424      	lsls	r4, r4, #16
  16f0dc:	00d2      	lsls	r2, r2, #3
  16f0de:	011b      	lsls	r3, r3, #4
  16f0e0:	1c28      	adds	r0, r5, #0
  16f0e2:	1c31      	adds	r1, r6, #0
  16f0e4:	0c24      	lsrs	r4, r4, #16
  16f0e6:	3a01      	subs	r2, #1
  16f0e8:	3b01      	subs	r3, #1
  16f0ea:	9400      	str	r4, [sp, #0]
  16f0ec:	f7ff fea6 	bl	16ee3c <draw_rect>
  16f0f0:	b001      	add	sp, #4
  16f0f2:	bc70      	pop	{r4, r5, r6}
  16f0f4:	bc01      	pop	{r0}
  16f0f6:	4700      	bx	r0

0016f0f8 <draw_txt_rect_exp>:
  16f0f8:	b5f0      	push	{r4, r5, r6, r7, lr}
  16f0fa:	b081      	sub	sp, #4
  16f0fc:	1c06      	adds	r6, r0, #0
  16f0fe:	468c      	mov	ip, r1
  16f100:	9c07      	ldr	r4, [sp, #28]
  16f102:	1992      	adds	r2, r2, r6
  16f104:	1c1d      	adds	r5, r3, #0
  16f106:	9b06      	ldr	r3, [sp, #24]
  16f108:	4465      	add	r5, ip
  16f10a:	00c0      	lsls	r0, r0, #3
  16f10c:	0109      	lsls	r1, r1, #4
  16f10e:	00d2      	lsls	r2, r2, #3
  16f110:	1ac0      	subs	r0, r0, r3
  16f112:	1ac9      	subs	r1, r1, r3
  16f114:	012d      	lsls	r5, r5, #4
  16f116:	189a      	adds	r2, r3, r2
  16f118:	0424      	lsls	r4, r4, #16
  16f11a:	3b01      	subs	r3, #1
  16f11c:	195b      	adds	r3, r3, r5
  16f11e:	0c24      	lsrs	r4, r4, #16
  16f120:	3a01      	subs	r2, #1
  16f122:	9400      	str	r4, [sp, #0]
  16f124:	f7ff fe8a 	bl	16ee3c <draw_rect>
  16f128:	b001      	add	sp, #4
  16f12a:	bcf0      	pop	{r4, r5, r6, r7}
  16f12c:	bc01      	pop	{r0}
  16f12e:	4700      	bx	r0

0016f130 <draw_txt_filled_rect>:
  16f130:	b570      	push	{r4, r5, r6, lr}
  16f132:	b081      	sub	sp, #4
  16f134:	9c05      	ldr	r4, [sp, #20]
  16f136:	1812      	adds	r2, r2, r0
  16f138:	185b      	adds	r3, r3, r1
  16f13a:	00c5      	lsls	r5, r0, #3
  16f13c:	010e      	lsls	r6, r1, #4
  16f13e:	0424      	lsls	r4, r4, #16
  16f140:	00d2      	lsls	r2, r2, #3
  16f142:	011b      	lsls	r3, r3, #4
  16f144:	1c28      	adds	r0, r5, #0
  16f146:	1c31      	adds	r1, r6, #0
  16f148:	0c24      	lsrs	r4, r4, #16
  16f14a:	3a01      	subs	r2, #1
  16f14c:	3b01      	subs	r3, #1
  16f14e:	9400      	str	r4, [sp, #0]
  16f150:	f7ff ff22 	bl	16ef98 <draw_filled_rect>
  16f154:	b001      	add	sp, #4
  16f156:	bc70      	pop	{r4, r5, r6}
  16f158:	bc01      	pop	{r0}
  16f15a:	4700      	bx	r0

0016f15c <draw_txt_filled_rect_exp>:
  16f15c:	b5f0      	push	{r4, r5, r6, r7, lr}
  16f15e:	b081      	sub	sp, #4
  16f160:	1c06      	adds	r6, r0, #0
  16f162:	468c      	mov	ip, r1
  16f164:	9c07      	ldr	r4, [sp, #28]
  16f166:	1992      	adds	r2, r2, r6
  16f168:	1c1d      	adds	r5, r3, #0
  16f16a:	9b06      	ldr	r3, [sp, #24]
  16f16c:	4465      	add	r5, ip
  16f16e:	00c0      	lsls	r0, r0, #3
  16f170:	0109      	lsls	r1, r1, #4
  16f172:	00d2      	lsls	r2, r2, #3
  16f174:	1ac0      	subs	r0, r0, r3
  16f176:	1ac9      	subs	r1, r1, r3
  16f178:	012d      	lsls	r5, r5, #4
  16f17a:	189a      	adds	r2, r3, r2
  16f17c:	0424      	lsls	r4, r4, #16
  16f17e:	3b01      	subs	r3, #1
  16f180:	195b      	adds	r3, r3, r5
  16f182:	0c24      	lsrs	r4, r4, #16
  16f184:	3a01      	subs	r2, #1
  16f186:	9400      	str	r4, [sp, #0]
  16f188:	f7ff ff06 	bl	16ef98 <draw_filled_rect>
  16f18c:	b001      	add	sp, #4
  16f18e:	bcf0      	pop	{r4, r5, r6, r7}
  16f190:	bc01      	pop	{r0}
  16f192:	4700      	bx	r0

0016f194 <draw_txt_string>:
  16f194:	b500      	push	{lr}
  16f196:	041b      	lsls	r3, r3, #16
  16f198:	0c1b      	lsrs	r3, r3, #16
  16f19a:	00c0      	lsls	r0, r0, #3
  16f19c:	0109      	lsls	r1, r1, #4
  16f19e:	f7ff ff6b 	bl	16f078 <draw_string>
  16f1a2:	bc01      	pop	{r0}
  16f1a4:	4700      	bx	r0
  16f1a6:	46c0      	nop			(mov r8, r8)

0016f1a8 <draw_txt_char>:
  16f1a8:	b500      	push	{lr}
  16f1aa:	0612      	lsls	r2, r2, #24
  16f1ac:	041b      	lsls	r3, r3, #16
  16f1ae:	0e12      	lsrs	r2, r2, #24
  16f1b0:	0c1b      	lsrs	r3, r3, #16
  16f1b2:	00c0      	lsls	r0, r0, #3
  16f1b4:	0109      	lsls	r1, r1, #4
  16f1b6:	f7ff ff33 	bl	16f020 <draw_char>
  16f1ba:	bc01      	pop	{r0}
  16f1bc:	4700      	bx	r0
  16f1be:	46c0      	nop			(mov r8, r8)

0016f1c0 <draw_circle>:
  16f1c0:	b5f0      	push	{r4, r5, r6, r7, lr}
  16f1c2:	041b      	lsls	r3, r3, #16
  16f1c4:	0c1d      	lsrs	r5, r3, #16
  16f1c6:	1c16      	adds	r6, r2, #0
  16f1c8:	2303      	movs	r3, #3
  16f1ca:	0052      	lsls	r2, r2, #1
  16f1cc:	b088      	sub	sp, #32
  16f1ce:	1a9b      	subs	r3, r3, r2
  16f1d0:	9001      	str	r0, [sp, #4]
  16f1d2:	9100      	str	r1, [sp, #0]
  16f1d4:	9307      	str	r3, [sp, #28]
  16f1d6:	2700      	movs	r7, #0
  16f1d8:	9b01      	ldr	r3, [sp, #4]
  16f1da:	1c2a      	adds	r2, r5, #0
  16f1dc:	18fb      	adds	r3, r7, r3
  16f1de:	9302      	str	r3, [sp, #8]
  16f1e0:	9b00      	ldr	r3, [sp, #0]
  16f1e2:	9802      	ldr	r0, [sp, #8]
  16f1e4:	18f3      	adds	r3, r6, r3
  16f1e6:	1c19      	adds	r1, r3, #0
  16f1e8:	9303      	str	r3, [sp, #12]
  16f1ea:	f7ff fcb7 	bl	16eb5c <draw_pixel>
  16f1ee:	9b01      	ldr	r3, [sp, #4]
  16f1f0:	1c2a      	adds	r2, r5, #0
  16f1f2:	18f4      	adds	r4, r6, r3
  16f1f4:	9b00      	ldr	r3, [sp, #0]
  16f1f6:	1c20      	adds	r0, r4, #0
  16f1f8:	18fb      	adds	r3, r7, r3
  16f1fa:	1c19      	adds	r1, r3, #0
  16f1fc:	9304      	str	r3, [sp, #16]
  16f1fe:	f7ff fcad 	bl	16eb5c <draw_pixel>
  16f202:	9b00      	ldr	r3, [sp, #0]
  16f204:	1c20      	adds	r0, r4, #0
  16f206:	1bdb      	subs	r3, r3, r7
  16f208:	1c19      	adds	r1, r3, #0
  16f20a:	1c2a      	adds	r2, r5, #0
  16f20c:	9305      	str	r3, [sp, #20]
  16f20e:	f7ff fca5 	bl	16eb5c <draw_pixel>
  16f212:	9b00      	ldr	r3, [sp, #0]
  16f214:	9802      	ldr	r0, [sp, #8]
  16f216:	1b9c      	subs	r4, r3, r6
  16f218:	1c21      	adds	r1, r4, #0
  16f21a:	1c2a      	adds	r2, r5, #0
  16f21c:	f7ff fc9e 	bl	16eb5c <draw_pixel>
  16f220:	9b01      	ldr	r3, [sp, #4]
  16f222:	1c21      	adds	r1, r4, #0
  16f224:	1bdb      	subs	r3, r3, r7
  16f226:	1c18      	adds	r0, r3, #0
  16f228:	1c2a      	adds	r2, r5, #0
  16f22a:	9306      	str	r3, [sp, #24]
  16f22c:	f7ff fc96 	bl	16eb5c <draw_pixel>
  16f230:	9b01      	ldr	r3, [sp, #4]
  16f232:	9905      	ldr	r1, [sp, #20]
  16f234:	1b9c      	subs	r4, r3, r6
  16f236:	1c20      	adds	r0, r4, #0
  16f238:	1c2a      	adds	r2, r5, #0
  16f23a:	f7ff fc8f 	bl	16eb5c <draw_pixel>
  16f23e:	1c20      	adds	r0, r4, #0
  16f240:	9904      	ldr	r1, [sp, #16]
  16f242:	1c2a      	adds	r2, r5, #0
  16f244:	f7ff fc8a 	bl	16eb5c <draw_pixel>
  16f248:	9806      	ldr	r0, [sp, #24]
  16f24a:	9903      	ldr	r1, [sp, #12]
  16f24c:	1c2a      	adds	r2, r5, #0
  16f24e:	f7ff fc85 	bl	16eb5c <draw_pixel>
  16f252:	9b07      	ldr	r3, [sp, #28]
  16f254:	3701      	adds	r7, #1
  16f256:	2b00      	cmp	r3, #0
  16f258:	da03      	bge.n	16f262 <draw_circle+0xa2>
  16f25a:	1c1a      	adds	r2, r3, #0
  16f25c:	3206      	adds	r2, #6
  16f25e:	00bb      	lsls	r3, r7, #2
  16f260:	e004      	b.n	16f26c <draw_circle+0xac>
  16f262:	3e01      	subs	r6, #1
  16f264:	9a07      	ldr	r2, [sp, #28]
  16f266:	1bbb      	subs	r3, r7, r6
  16f268:	320a      	adds	r2, #10
  16f26a:	009b      	lsls	r3, r3, #2
  16f26c:	18d3      	adds	r3, r2, r3
  16f26e:	9307      	str	r3, [sp, #28]
  16f270:	42b7      	cmp	r7, r6
  16f272:	ddb1      	ble.n	16f1d8 <draw_circle+0x18>
  16f274:	b008      	add	sp, #32
  16f276:	bcf0      	pop	{r4, r5, r6, r7}
  16f278:	bc01      	pop	{r0}
  16f27a:	4700      	bx	r0

0016f27c <draw_ellipse>:
  16f27c:	b5f0      	push	{r4, r5, r6, r7, lr}
  16f27e:	b08e      	sub	sp, #56
  16f280:	9201      	str	r2, [sp, #4]
  16f282:	9a13      	ldr	r2, [sp, #76]
  16f284:	9102      	str	r1, [sp, #8]
  16f286:	0412      	lsls	r2, r2, #16
  16f288:	9901      	ldr	r1, [sp, #4]
  16f28a:	0c12      	lsrs	r2, r2, #16
  16f28c:	9003      	str	r0, [sp, #12]
  16f28e:	9200      	str	r2, [sp, #0]
  16f290:	1c08      	adds	r0, r1, #0
  16f292:	4348      	muls	r0, r1
  16f294:	1c1a      	adds	r2, r3, #0
  16f296:	435a      	muls	r2, r3
  16f298:	1c1c      	adds	r4, r3, #0
  16f29a:	9b01      	ldr	r3, [sp, #4]
  16f29c:	2101      	movs	r1, #1
  16f29e:	400b      	ands	r3, r1
  16f2a0:	9207      	str	r2, [sp, #28]
  16f2a2:	18d3      	adds	r3, r2, r3
  16f2a4:	1082      	asrs	r2, r0, #2
  16f2a6:	9006      	str	r0, [sp, #24]
  16f2a8:	189b      	adds	r3, r3, r2
  16f2aa:	9807      	ldr	r0, [sp, #28]
  16f2ac:	425b      	negs	r3, r3
  16f2ae:	1c22      	adds	r2, r4, #0
  16f2b0:	400a      	ands	r2, r1
  16f2b2:	9308      	str	r3, [sp, #32]
  16f2b4:	9906      	ldr	r1, [sp, #24]
  16f2b6:	1083      	asrs	r3, r0, #2
  16f2b8:	189b      	adds	r3, r3, r2
  16f2ba:	185a      	adds	r2, r3, r1
  16f2bc:	425b      	negs	r3, r3
  16f2be:	930a      	str	r3, [sp, #40]
  16f2c0:	424b      	negs	r3, r1
  16f2c2:	1c26      	adds	r6, r4, #0
  16f2c4:	435e      	muls	r6, r3
  16f2c6:	1c0b      	adds	r3, r1, #0
  16f2c8:	4363      	muls	r3, r4
  16f2ca:	005b      	lsls	r3, r3, #1
  16f2cc:	4252      	negs	r2, r2
  16f2ce:	425b      	negs	r3, r3
  16f2d0:	9209      	str	r2, [sp, #36]
  16f2d2:	930b      	str	r3, [sp, #44]
  16f2d4:	0042      	lsls	r2, r0, #1
  16f2d6:	004b      	lsls	r3, r1, #1
  16f2d8:	920c      	str	r2, [sp, #48]
  16f2da:	930d      	str	r3, [sp, #52]
  16f2dc:	2500      	movs	r5, #0
  16f2de:	2700      	movs	r7, #0
  16f2e0:	e048      	b.n	16f374 <draw_ellipse+0xf8>
  16f2e2:	9803      	ldr	r0, [sp, #12]
  16f2e4:	9902      	ldr	r1, [sp, #8]
  16f2e6:	1828      	adds	r0, r5, r0
  16f2e8:	1861      	adds	r1, r4, r1
  16f2ea:	9a00      	ldr	r2, [sp, #0]
  16f2ec:	9004      	str	r0, [sp, #16]
  16f2ee:	9105      	str	r1, [sp, #20]
  16f2f0:	f7ff fc34 	bl	16eb5c <draw_pixel>
  16f2f4:	1c22      	adds	r2, r4, #0
  16f2f6:	432a      	orrs	r2, r5
  16f2f8:	d006      	beq.n	16f308 <draw_ellipse+0x8c>
  16f2fa:	9a02      	ldr	r2, [sp, #8]
  16f2fc:	9b03      	ldr	r3, [sp, #12]
  16f2fe:	1b11      	subs	r1, r2, r4
  16f300:	1b58      	subs	r0, r3, r5
  16f302:	9a00      	ldr	r2, [sp, #0]
  16f304:	f7ff fc2a 	bl	16eb5c <draw_pixel>
  16f308:	2d00      	cmp	r5, #0
  16f30a:	d00d      	beq.n	16f328 <draw_ellipse+0xac>
  16f30c:	2c00      	cmp	r4, #0
  16f30e:	d00b      	beq.n	16f328 <draw_ellipse+0xac>
  16f310:	9b02      	ldr	r3, [sp, #8]
  16f312:	9804      	ldr	r0, [sp, #16]
  16f314:	1b19      	subs	r1, r3, r4
  16f316:	9a00      	ldr	r2, [sp, #0]
  16f318:	f7ff fc20 	bl	16eb5c <draw_pixel>
  16f31c:	9903      	ldr	r1, [sp, #12]
  16f31e:	9a00      	ldr	r2, [sp, #0]
  16f320:	1b48      	subs	r0, r1, r5
  16f322:	9905      	ldr	r1, [sp, #20]
  16f324:	f7ff fc1a 	bl	16eb5c <draw_pixel>
  16f328:	9a07      	ldr	r2, [sp, #28]
  16f32a:	9808      	ldr	r0, [sp, #32]
  16f32c:	1c13      	adds	r3, r2, #0
  16f32e:	436b      	muls	r3, r5
  16f330:	199b      	adds	r3, r3, r6
  16f332:	4283      	cmp	r3, r0
  16f334:	dd06      	ble.n	16f344 <draw_ellipse+0xc8>
  16f336:	9906      	ldr	r1, [sp, #24]
  16f338:	980a      	ldr	r0, [sp, #40]
  16f33a:	1c0a      	adds	r2, r1, #0
  16f33c:	4362      	muls	r2, r4
  16f33e:	1993      	adds	r3, r2, r6
  16f340:	4283      	cmp	r3, r0
  16f342:	dc04      	bgt.n	16f34e <draw_ellipse+0xd2>
  16f344:	990c      	ldr	r1, [sp, #48]
  16f346:	3501      	adds	r5, #1
  16f348:	187f      	adds	r7, r7, r1
  16f34a:	19f6      	adds	r6, r6, r7
  16f34c:	e012      	b.n	16f374 <draw_ellipse+0xf8>
  16f34e:	1ab3      	subs	r3, r6, r2
  16f350:	980d      	ldr	r0, [sp, #52]
  16f352:	1e62      	subs	r2, r4, #1
  16f354:	9c0b      	ldr	r4, [sp, #44]
  16f356:	1821      	adds	r1, r4, r0
  16f358:	9c09      	ldr	r4, [sp, #36]
  16f35a:	42a3      	cmp	r3, r4
  16f35c:	dd03      	ble.n	16f366 <draw_ellipse+0xea>
  16f35e:	1c14      	adds	r4, r2, #0
  16f360:	910b      	str	r1, [sp, #44]
  16f362:	1876      	adds	r6, r6, r1
  16f364:	e006      	b.n	16f374 <draw_ellipse+0xf8>
  16f366:	980c      	ldr	r0, [sp, #48]
  16f368:	3501      	adds	r5, #1
  16f36a:	183f      	adds	r7, r7, r0
  16f36c:	187b      	adds	r3, r7, r1
  16f36e:	1c14      	adds	r4, r2, #0
  16f370:	910b      	str	r1, [sp, #44]
  16f372:	18f6      	adds	r6, r6, r3
  16f374:	2c00      	cmp	r4, #0
  16f376:	db02      	blt.n	16f37e <draw_ellipse+0x102>
  16f378:	9901      	ldr	r1, [sp, #4]
  16f37a:	428d      	cmp	r5, r1
  16f37c:	d9b1      	bls.n	16f2e2 <draw_ellipse+0x66>
  16f37e:	b00e      	add	sp, #56
  16f380:	bcf0      	pop	{r4, r5, r6, r7}
  16f382:	bc01      	pop	{r0}
  16f384:	4700      	bx	r0
  16f386:	46c0      	nop			(mov r8, r8)

0016f388 <draw_filled_ellipse>:
  16f388:	b5f0      	push	{r4, r5, r6, r7, lr}
  16f38a:	b093      	sub	sp, #76
  16f38c:	9003      	str	r0, [sp, #12]
  16f38e:	1c10      	adds	r0, r2, #0
  16f390:	4350      	muls	r0, r2
  16f392:	9201      	str	r2, [sp, #4]
  16f394:	1c1a      	adds	r2, r3, #0
  16f396:	435a      	muls	r2, r3
  16f398:	1c1d      	adds	r5, r3, #0
  16f39a:	9008      	str	r0, [sp, #32]
  16f39c:	9b01      	ldr	r3, [sp, #4]
  16f39e:	9e08      	ldr	r6, [sp, #32]
  16f3a0:	2001      	movs	r0, #1
  16f3a2:	4003      	ands	r3, r0
  16f3a4:	9209      	str	r2, [sp, #36]
  16f3a6:	18d3      	adds	r3, r2, r3
  16f3a8:	10b2      	asrs	r2, r6, #2
  16f3aa:	189b      	adds	r3, r3, r2
  16f3ac:	9a09      	ldr	r2, [sp, #36]
  16f3ae:	425b      	negs	r3, r3
  16f3b0:	930a      	str	r3, [sp, #40]
  16f3b2:	1093      	asrs	r3, r2, #2
  16f3b4:	1c2a      	adds	r2, r5, #0
  16f3b6:	4002      	ands	r2, r0
  16f3b8:	189b      	adds	r3, r3, r2
  16f3ba:	199a      	adds	r2, r3, r6
  16f3bc:	425b      	negs	r3, r3
  16f3be:	9102      	str	r1, [sp, #8]
  16f3c0:	930c      	str	r3, [sp, #48]
  16f3c2:	9918      	ldr	r1, [sp, #96]
  16f3c4:	9b09      	ldr	r3, [sp, #36]
  16f3c6:	0409      	lsls	r1, r1, #16
  16f3c8:	005b      	lsls	r3, r3, #1
  16f3ca:	0c0c      	lsrs	r4, r1, #16
  16f3cc:	9310      	str	r3, [sp, #64]
  16f3ce:	23ff      	movs	r3, #255
  16f3d0:	439c      	bics	r4, r3
  16f3d2:	0e09      	lsrs	r1, r1, #24
  16f3d4:	4252      	negs	r2, r2
  16f3d6:	0076      	lsls	r6, r6, #1
  16f3d8:	430c      	orrs	r4, r1
  16f3da:	920b      	str	r2, [sp, #44]
  16f3dc:	9611      	str	r6, [sp, #68]
  16f3de:	9412      	str	r4, [sp, #72]
  16f3e0:	2d00      	cmp	r5, #0
  16f3e2:	d013      	beq.n	16f40c <draw_filled_ellipse+0x84>
  16f3e4:	9808      	ldr	r0, [sp, #32]
  16f3e6:	2200      	movs	r2, #0
  16f3e8:	4243      	negs	r3, r0
  16f3ea:	1c29      	adds	r1, r5, #0
  16f3ec:	4359      	muls	r1, r3
  16f3ee:	1c03      	adds	r3, r0, #0
  16f3f0:	436b      	muls	r3, r5
  16f3f2:	005b      	lsls	r3, r3, #1
  16f3f4:	425b      	negs	r3, r3
  16f3f6:	930f      	str	r3, [sp, #60]
  16f3f8:	2301      	movs	r3, #1
  16f3fa:	9505      	str	r5, [sp, #20]
  16f3fc:	910d      	str	r1, [sp, #52]
  16f3fe:	1c2f      	adds	r7, r5, #0
  16f400:	9204      	str	r2, [sp, #16]
  16f402:	9206      	str	r2, [sp, #24]
  16f404:	9307      	str	r3, [sp, #28]
  16f406:	2601      	movs	r6, #1
  16f408:	920e      	str	r2, [sp, #56]
  16f40a:	e0ac      	b.n	16f566 <draw_filled_ellipse+0x1de>
  16f40c:	9e01      	ldr	r6, [sp, #4]
  16f40e:	9912      	ldr	r1, [sp, #72]
  16f410:	9c03      	ldr	r4, [sp, #12]
  16f412:	0072      	lsls	r2, r6, #1
  16f414:	9100      	str	r1, [sp, #0]
  16f416:	1ba0      	subs	r0, r4, r6
  16f418:	3201      	adds	r2, #1
  16f41a:	9902      	ldr	r1, [sp, #8]
  16f41c:	2301      	movs	r3, #1
  16f41e:	e0cb      	b.n	16f5b8 <draw_filled_ellipse+0x230>
  16f420:	9a09      	ldr	r2, [sp, #36]
  16f422:	9c04      	ldr	r4, [sp, #16]
  16f424:	980d      	ldr	r0, [sp, #52]
  16f426:	1c13      	adds	r3, r2, #0
  16f428:	4363      	muls	r3, r4
  16f42a:	990a      	ldr	r1, [sp, #40]
  16f42c:	181b      	adds	r3, r3, r0
  16f42e:	428b      	cmp	r3, r1
  16f430:	dd07      	ble.n	16f442 <draw_filled_ellipse+0xba>
  16f432:	9b08      	ldr	r3, [sp, #32]
  16f434:	9c05      	ldr	r4, [sp, #20]
  16f436:	1c1a      	adds	r2, r3, #0
  16f438:	4362      	muls	r2, r4
  16f43a:	1813      	adds	r3, r2, r0
  16f43c:	980c      	ldr	r0, [sp, #48]
  16f43e:	4283      	cmp	r3, r0
  16f440:	dc41      	bgt.n	16f4c6 <draw_filled_ellipse+0x13e>
  16f442:	2e01      	cmp	r6, #1
  16f444:	d02e      	beq.n	16f4a4 <draw_filled_ellipse+0x11c>
  16f446:	495f      	ldr	r1, [pc, #380]	(16f5c4 <draw_filled_ellipse+0x23c>)
  16f448:	9c06      	ldr	r4, [sp, #24]
  16f44a:	1873      	adds	r3, r6, r1
  16f44c:	005b      	lsls	r3, r3, #1
  16f44e:	469c      	mov	ip, r3
  16f450:	9b03      	ldr	r3, [sp, #12]
  16f452:	0078      	lsls	r0, r7, #1
  16f454:	1b1d      	subs	r5, r3, r4
  16f456:	9c07      	ldr	r4, [sp, #28]
  16f458:	9b02      	ldr	r3, [sp, #8]
  16f45a:	1c42      	adds	r2, r0, #1
  16f45c:	3c01      	subs	r4, #1
  16f45e:	1bd9      	subs	r1, r3, r7
  16f460:	4562      	cmp	r2, ip
  16f462:	d917      	bls.n	16f494 <draw_filled_ellipse+0x10c>
  16f464:	9812      	ldr	r0, [sp, #72]
  16f466:	1964      	adds	r4, r4, r5
  16f468:	1eb3      	subs	r3, r6, #2
  16f46a:	185b      	adds	r3, r3, r1
  16f46c:	9000      	str	r0, [sp, #0]
  16f46e:	1c22      	adds	r2, r4, #0
  16f470:	1c28      	adds	r0, r5, #0
  16f472:	f7ff fd91 	bl	16ef98 <draw_filled_rect>
  16f476:	9902      	ldr	r1, [sp, #8]
  16f478:	2001      	movs	r0, #1
  16f47a:	187a      	adds	r2, r7, r1
  16f47c:	1b83      	subs	r3, r0, r6
  16f47e:	189b      	adds	r3, r3, r2
  16f480:	1c51      	adds	r1, r2, #1
  16f482:	9a12      	ldr	r2, [sp, #72]
  16f484:	1c28      	adds	r0, r5, #0
  16f486:	9200      	str	r2, [sp, #0]
  16f488:	1c22      	adds	r2, r4, #0
  16f48a:	f7ff fd85 	bl	16ef98 <draw_filled_rect>
  16f48e:	1bbb      	subs	r3, r7, r6
  16f490:	1c5f      	adds	r7, r3, #1
  16f492:	e007      	b.n	16f4a4 <draw_filled_ellipse+0x11c>
  16f494:	1962      	adds	r2, r4, r5
  16f496:	9c12      	ldr	r4, [sp, #72]
  16f498:	1843      	adds	r3, r0, r1
  16f49a:	1c28      	adds	r0, r5, #0
  16f49c:	9400      	str	r4, [sp, #0]
  16f49e:	f7ff fd7b 	bl	16ef98 <draw_filled_rect>
  16f4a2:	2700      	movs	r7, #0
  16f4a4:	980e      	ldr	r0, [sp, #56]
  16f4a6:	9910      	ldr	r1, [sp, #64]
  16f4a8:	9e04      	ldr	r6, [sp, #16]
  16f4aa:	9a0d      	ldr	r2, [sp, #52]
  16f4ac:	9b06      	ldr	r3, [sp, #24]
  16f4ae:	9c07      	ldr	r4, [sp, #28]
  16f4b0:	1840      	adds	r0, r0, r1
  16f4b2:	3601      	adds	r6, #1
  16f4b4:	1812      	adds	r2, r2, r0
  16f4b6:	3301      	adds	r3, #1
  16f4b8:	3402      	adds	r4, #2
  16f4ba:	9604      	str	r6, [sp, #16]
  16f4bc:	900e      	str	r0, [sp, #56]
  16f4be:	920d      	str	r2, [sp, #52]
  16f4c0:	9306      	str	r3, [sp, #24]
  16f4c2:	9407      	str	r4, [sp, #28]
  16f4c4:	e04e      	b.n	16f564 <draw_filled_ellipse+0x1dc>
  16f4c6:	980d      	ldr	r0, [sp, #52]
  16f4c8:	990b      	ldr	r1, [sp, #44]
  16f4ca:	1a83      	subs	r3, r0, r2
  16f4cc:	428b      	cmp	r3, r1
  16f4ce:	dd0a      	ble.n	16f4e6 <draw_filled_ellipse+0x15e>
  16f4d0:	9b0f      	ldr	r3, [sp, #60]
  16f4d2:	9c11      	ldr	r4, [sp, #68]
  16f4d4:	9a05      	ldr	r2, [sp, #20]
  16f4d6:	191b      	adds	r3, r3, r4
  16f4d8:	3a01      	subs	r2, #1
  16f4da:	18c0      	adds	r0, r0, r3
  16f4dc:	9205      	str	r2, [sp, #20]
  16f4de:	930f      	str	r3, [sp, #60]
  16f4e0:	900d      	str	r0, [sp, #52]
  16f4e2:	3601      	adds	r6, #1
  16f4e4:	e03f      	b.n	16f566 <draw_filled_ellipse+0x1de>
  16f4e6:	9b03      	ldr	r3, [sp, #12]
  16f4e8:	9c06      	ldr	r4, [sp, #24]
  16f4ea:	0071      	lsls	r1, r6, #1
  16f4ec:	1b1d      	subs	r5, r3, r4
  16f4ee:	0078      	lsls	r0, r7, #1
  16f4f0:	9c07      	ldr	r4, [sp, #28]
  16f4f2:	9b02      	ldr	r3, [sp, #8]
  16f4f4:	468c      	mov	ip, r1
  16f4f6:	1c42      	adds	r2, r0, #1
  16f4f8:	3c01      	subs	r4, #1
  16f4fa:	1bd9      	subs	r1, r3, r7
  16f4fc:	4562      	cmp	r2, ip
  16f4fe:	d911      	bls.n	16f524 <draw_filled_ellipse+0x19c>
  16f500:	9812      	ldr	r0, [sp, #72]
  16f502:	1964      	adds	r4, r4, r5
  16f504:	1e73      	subs	r3, r6, #1
  16f506:	185b      	adds	r3, r3, r1
  16f508:	9000      	str	r0, [sp, #0]
  16f50a:	1c22      	adds	r2, r4, #0
  16f50c:	1c28      	adds	r0, r5, #0
  16f50e:	f7ff fd43 	bl	16ef98 <draw_filled_rect>
  16f512:	9902      	ldr	r1, [sp, #8]
  16f514:	9a12      	ldr	r2, [sp, #72]
  16f516:	187b      	adds	r3, r7, r1
  16f518:	1c59      	adds	r1, r3, #1
  16f51a:	9200      	str	r2, [sp, #0]
  16f51c:	1b9b      	subs	r3, r3, r6
  16f51e:	1c28      	adds	r0, r5, #0
  16f520:	1c22      	adds	r2, r4, #0
  16f522:	e004      	b.n	16f52e <draw_filled_ellipse+0x1a6>
  16f524:	1962      	adds	r2, r4, r5
  16f526:	9c12      	ldr	r4, [sp, #72]
  16f528:	1843      	adds	r3, r0, r1
  16f52a:	9400      	str	r4, [sp, #0]
  16f52c:	1c28      	adds	r0, r5, #0
  16f52e:	f7ff fd33 	bl	16ef98 <draw_filled_rect>
  16f532:	9804      	ldr	r0, [sp, #16]
  16f534:	990e      	ldr	r1, [sp, #56]
  16f536:	3001      	adds	r0, #1
  16f538:	9a10      	ldr	r2, [sp, #64]
  16f53a:	9b05      	ldr	r3, [sp, #20]
  16f53c:	9c0f      	ldr	r4, [sp, #60]
  16f53e:	9004      	str	r0, [sp, #16]
  16f540:	9811      	ldr	r0, [sp, #68]
  16f542:	1889      	adds	r1, r1, r2
  16f544:	3b01      	subs	r3, #1
  16f546:	1824      	adds	r4, r4, r0
  16f548:	910e      	str	r1, [sp, #56]
  16f54a:	9305      	str	r3, [sp, #20]
  16f54c:	190b      	adds	r3, r1, r4
  16f54e:	990d      	ldr	r1, [sp, #52]
  16f550:	9a06      	ldr	r2, [sp, #24]
  16f552:	18c9      	adds	r1, r1, r3
  16f554:	9b07      	ldr	r3, [sp, #28]
  16f556:	3201      	adds	r2, #1
  16f558:	3302      	adds	r3, #2
  16f55a:	940f      	str	r4, [sp, #60]
  16f55c:	910d      	str	r1, [sp, #52]
  16f55e:	9206      	str	r2, [sp, #24]
  16f560:	9307      	str	r3, [sp, #28]
  16f562:	1bbf      	subs	r7, r7, r6
  16f564:	2601      	movs	r6, #1
  16f566:	9c05      	ldr	r4, [sp, #20]
  16f568:	2c00      	cmp	r4, #0
  16f56a:	db04      	blt.n	16f576 <draw_filled_ellipse+0x1ee>
  16f56c:	9804      	ldr	r0, [sp, #16]
  16f56e:	9901      	ldr	r1, [sp, #4]
  16f570:	4288      	cmp	r0, r1
  16f572:	d800      	bhi.n	16f576 <draw_filled_ellipse+0x1ee>
  16f574:	e754      	b.n	16f420 <draw_filled_ellipse+0x98>
  16f576:	9a03      	ldr	r2, [sp, #12]
  16f578:	9b06      	ldr	r3, [sp, #24]
  16f57a:	9c07      	ldr	r4, [sp, #28]
  16f57c:	9802      	ldr	r0, [sp, #8]
  16f57e:	1ad5      	subs	r5, r2, r3
  16f580:	3c01      	subs	r4, #1
  16f582:	1bc1      	subs	r1, r0, r7
  16f584:	42b7      	cmp	r7, r6
  16f586:	d911      	bls.n	16f5ac <draw_filled_ellipse+0x224>
  16f588:	9a12      	ldr	r2, [sp, #72]
  16f58a:	1964      	adds	r4, r4, r5
  16f58c:	1e73      	subs	r3, r6, #1
  16f58e:	185b      	adds	r3, r3, r1
  16f590:	9200      	str	r2, [sp, #0]
  16f592:	1c28      	adds	r0, r5, #0
  16f594:	1c22      	adds	r2, r4, #0
  16f596:	f7ff fcff 	bl	16ef98 <draw_filled_rect>
  16f59a:	9802      	ldr	r0, [sp, #8]
  16f59c:	9a12      	ldr	r2, [sp, #72]
  16f59e:	183b      	adds	r3, r7, r0
  16f5a0:	1c59      	adds	r1, r3, #1
  16f5a2:	9200      	str	r2, [sp, #0]
  16f5a4:	1b9b      	subs	r3, r3, r6
  16f5a6:	1c28      	adds	r0, r5, #0
  16f5a8:	1c22      	adds	r2, r4, #0
  16f5aa:	e005      	b.n	16f5b8 <draw_filled_ellipse+0x230>
  16f5ac:	1962      	adds	r2, r4, r5
  16f5ae:	9c12      	ldr	r4, [sp, #72]
  16f5b0:	007b      	lsls	r3, r7, #1
  16f5b2:	185b      	adds	r3, r3, r1
  16f5b4:	9400      	str	r4, [sp, #0]
  16f5b6:	1c28      	adds	r0, r5, #0
  16f5b8:	f7ff fcee 	bl	16ef98 <draw_filled_rect>
  16f5bc:	b013      	add	sp, #76
  16f5be:	bcf0      	pop	{r4, r5, r6, r7}
  16f5c0:	bc01      	pop	{r0}
  16f5c2:	4700      	bx	r0
  16f5c4:	7fffffff 	.word	0x7fffffff

0016f5c8 <draw_get_icon_colors>:
  16f5c8:	b530      	push	{r4, r5, lr}
  16f5ca:	f032 f933 	bl	1a1834 <__mode_get_from_thumb>
  16f5ce:	4a0f      	ldr	r2, [pc, #60]	(16f60c <draw_get_icon_colors+0x44>)
  16f5d0:	23b7      	movs	r3, #183
  16f5d2:	8013      	strh	r3, [r2, #0]
  16f5d4:	23b6      	movs	r3, #182
  16f5d6:	490e      	ldr	r1, [pc, #56]	(16f610 <draw_get_icon_colors+0x48>)
  16f5d8:	8053      	strh	r3, [r2, #2]
  16f5da:	23b8      	movs	r3, #184
  16f5dc:	8093      	strh	r3, [r2, #4]
  16f5de:	23be      	movs	r3, #190
  16f5e0:	800b      	strh	r3, [r1, #0]
  16f5e2:	23bd      	movs	r3, #189
  16f5e4:	4c0b      	ldr	r4, [pc, #44]	(16f614 <draw_get_icon_colors+0x4c>)
  16f5e6:	804b      	strh	r3, [r1, #2]
  16f5e8:	23bf      	movs	r3, #191
  16f5ea:	808b      	strh	r3, [r1, #4]
  16f5ec:	23b4      	movs	r3, #180
  16f5ee:	8023      	strh	r3, [r4, #0]
  16f5f0:	23b3      	movs	r3, #179
  16f5f2:	4d09      	ldr	r5, [pc, #36]	(16f618 <draw_get_icon_colors+0x50>)
  16f5f4:	8063      	strh	r3, [r4, #2]
  16f5f6:	23b5      	movs	r3, #181
  16f5f8:	80a3      	strh	r3, [r4, #4]
  16f5fa:	231a      	movs	r3, #26
  16f5fc:	802b      	strh	r3, [r5, #0]
  16f5fe:	2316      	movs	r3, #22
  16f600:	806b      	strh	r3, [r5, #2]
  16f602:	230e      	movs	r3, #14
  16f604:	80ab      	strh	r3, [r5, #4]
  16f606:	bc30      	pop	{r4, r5}
  16f608:	bc01      	pop	{r0}
  16f60a:	4700      	bx	r0
  16f60c:	001ba538 	.word	0x001ba538
  16f610:	001ba53e 	.word	0x001ba53e
  16f614:	001ba52c 	.word	0x001ba52c
  16f618:	001ba532 	.word	0x001ba532

0016f61c <draw_restore>:
  16f61c:	b500      	push	{lr}
  16f61e:	f032 f901 	bl	1a1824 <__vid_bitmap_refresh_from_thumb>
  16f622:	f7ff fa55 	bl	16ead0 <draw_set_guard>
  16f626:	bc01      	pop	{r0}
  16f628:	4700      	bx	r0
  16f62a:	46c0      	nop			(mov r8, r8)

0016f62c <draw_clear>:
  16f62c:	b500      	push	{lr}
  16f62e:	4b05      	ldr	r3, [pc, #20]	(16f644 <draw_clear+0x18>)
  16f630:	2100      	movs	r1, #0
  16f632:	681a      	ldr	r2, [r3, #0]
  16f634:	4b04      	ldr	r3, [pc, #16]	(16f648 <draw_clear+0x1c>)
  16f636:	0052      	lsls	r2, r2, #1
  16f638:	6818      	ldr	r0, [r3, #0]
  16f63a:	f032 f8ff 	bl	1a183c <__memset_from_thumb>
  16f63e:	bc01      	pop	{r0}
  16f640:	4700      	bx	r0
  16f642:	46c0      	nop			(mov r8, r8)
  16f644:	001af76c 	.word	0x001af76c
  16f648:	001af770 	.word	0x001af770

0016f64c <draw_init>:
  16f64c:	b530      	push	{r4, r5, lr}
  16f64e:	f032 f8f9 	bl	1a1844 <__vid_get_bitmap_screen_width_from_thumb>
  16f652:	4c12      	ldr	r4, [pc, #72]	(16f69c <draw_init+0x50>)
  16f654:	6020      	str	r0, [r4, #0]
  16f656:	f032 f8f9 	bl	1a184c <__vid_get_bitmap_screen_height_from_thumb>
  16f65a:	4b11      	ldr	r3, [pc, #68]	(16f6a0 <draw_init+0x54>)
  16f65c:	4a11      	ldr	r2, [pc, #68]	(16f6a4 <draw_init+0x58>)
  16f65e:	6018      	str	r0, [r3, #0]
  16f660:	6823      	ldr	r3, [r4, #0]
  16f662:	4343      	muls	r3, r0
  16f664:	6013      	str	r3, [r2, #0]
  16f666:	f032 f8f5 	bl	1a1854 <__vid_get_bitmap_buffer_width_from_thumb>
  16f66a:	4c0f      	ldr	r4, [pc, #60]	(16f6a8 <draw_init+0x5c>)
  16f66c:	6020      	str	r0, [r4, #0]
  16f66e:	f032 f8f5 	bl	1a185c <__vid_get_bitmap_buffer_height_from_thumb>
  16f672:	4b0e      	ldr	r3, [pc, #56]	(16f6ac <draw_init+0x60>)
  16f674:	4d0e      	ldr	r5, [pc, #56]	(16f6b0 <draw_init+0x64>)
  16f676:	6018      	str	r0, [r3, #0]
  16f678:	6823      	ldr	r3, [r4, #0]
  16f67a:	4343      	muls	r3, r0
  16f67c:	602b      	str	r3, [r5, #0]
  16f67e:	f032 f8f1 	bl	1a1864 <__vid_get_bitmap_fb_from_thumb>
  16f682:	4a0c      	ldr	r2, [pc, #48]	(16f6b4 <draw_init+0x68>)
  16f684:	682b      	ldr	r3, [r5, #0]
  16f686:	6010      	str	r0, [r2, #0]
  16f688:	18c0      	adds	r0, r0, r3
  16f68a:	6050      	str	r0, [r2, #4]
  16f68c:	2000      	movs	r0, #0
  16f68e:	f7ff fa15 	bl	16eabc <draw_set_draw_proc>
  16f692:	f7ff fa1d 	bl	16ead0 <draw_set_guard>
  16f696:	bc30      	pop	{r4, r5}
  16f698:	bc01      	pop	{r0}
  16f69a:	4700      	bx	r0
  16f69c:	001af758 	.word	0x001af758
  16f6a0:	001af75c 	.word	0x001af75c
  16f6a4:	001af760 	.word	0x001af760
  16f6a8:	001af764 	.word	0x001af764
  16f6ac:	001af768 	.word	0x001af768
  16f6b0:	001af76c 	.word	0x001af76c
  16f6b4:	001af770 	.word	0x001af770
  16f6b8:	4718      	bx	r3
  16f6ba:	46c0      	nop			(mov r8, r8)

0016f6bc <gui_menu_set_curr_menu>:
  16f6bc:	4b03      	ldr	r3, [pc, #12]	(16f6cc <gui_menu_set_curr_menu+0x10>)
  16f6be:	6018      	str	r0, [r3, #0]
  16f6c0:	4b03      	ldr	r3, [pc, #12]	(16f6d0 <gui_menu_set_curr_menu+0x14>)
  16f6c2:	6019      	str	r1, [r3, #0]
  16f6c4:	4b03      	ldr	r3, [pc, #12]	(16f6d4 <gui_menu_set_curr_menu+0x18>)
  16f6c6:	601a      	str	r2, [r3, #0]
  16f6c8:	4770      	bx	lr
  16f6ca:	46c0      	nop			(mov r8, r8)
  16f6cc:	001af7d0 	.word	0x001af7d0
  16f6d0:	001af80c 	.word	0x001af80c
  16f6d4:	001af808 	.word	0x001af808

0016f6d8 <gui_menu_rows>:
  16f6d8:	4b05      	ldr	r3, [pc, #20]	(16f6f0 <gui_menu_rows+0x18>)
  16f6da:	2000      	movs	r0, #0
  16f6dc:	681b      	ldr	r3, [r3, #0]
  16f6de:	689a      	ldr	r2, [r3, #8]
  16f6e0:	e000      	b.n	16f6e4 <gui_menu_rows+0xc>
  16f6e2:	3001      	adds	r0, #1
  16f6e4:	6853      	ldr	r3, [r2, #4]
  16f6e6:	3210      	adds	r2, #16
  16f6e8:	2b00      	cmp	r3, #0
  16f6ea:	d1fa      	bne.n	16f6e2 <gui_menu_rows+0xa>
  16f6ec:	4770      	bx	lr
  16f6ee:	46c0      	nop			(mov r8, r8)
  16f6f0:	001af7d0 	.word	0x001af7d0

0016f6f4 <do_callback>:
  16f6f4:	b500      	push	{lr}
  16f6f6:	4b0f      	ldr	r3, [pc, #60]	(16f734 <do_callback+0x40>)
  16f6f8:	681a      	ldr	r2, [r3, #0]
  16f6fa:	4b0f      	ldr	r3, [pc, #60]	(16f738 <do_callback+0x44>)
  16f6fc:	6892      	ldr	r2, [r2, #8]
  16f6fe:	681b      	ldr	r3, [r3, #0]
  16f700:	011b      	lsls	r3, r3, #4
  16f702:	18d1      	adds	r1, r2, r3
  16f704:	884a      	ldrh	r2, [r1, #2]
  16f706:	23f0      	movs	r3, #240
  16f708:	011b      	lsls	r3, r3, #4
  16f70a:	401a      	ands	r2, r3
  16f70c:	23c0      	movs	r3, #192
  16f70e:	009b      	lsls	r3, r3, #2
  16f710:	429a      	cmp	r2, r3
  16f712:	d104      	bne.n	16f71e <do_callback+0x2a>
  16f714:	68ca      	ldr	r2, [r1, #12]
  16f716:	2a00      	cmp	r2, #0
  16f718:	d001      	beq.n	16f71e <do_callback+0x2a>
  16f71a:	f001 f99b 	bl	170a54 <gui_menu_init+0xf4>
  16f71e:	4b05      	ldr	r3, [pc, #20]	(16f734 <do_callback+0x40>)
  16f720:	681b      	ldr	r3, [r3, #0]
  16f722:	685a      	ldr	r2, [r3, #4]
  16f724:	2a00      	cmp	r2, #0
  16f726:	d003      	beq.n	16f730 <do_callback+0x3c>
  16f728:	4b03      	ldr	r3, [pc, #12]	(16f738 <do_callback+0x44>)
  16f72a:	6818      	ldr	r0, [r3, #0]
  16f72c:	f001 f992 	bl	170a54 <gui_menu_init+0xf4>
  16f730:	bc01      	pop	{r0}
  16f732:	4700      	bx	r0
  16f734:	001af7d0 	.word	0x001af7d0
  16f738:	001af808 	.word	0x001af808

0016f73c <update_bool_value>:
  16f73c:	b500      	push	{lr}
  16f73e:	4b09      	ldr	r3, [pc, #36]	(16f764 <update_bool_value+0x28>)
  16f740:	681a      	ldr	r2, [r3, #0]
  16f742:	4b09      	ldr	r3, [pc, #36]	(16f768 <update_bool_value+0x2c>)
  16f744:	6892      	ldr	r2, [r2, #8]
  16f746:	681b      	ldr	r3, [r3, #0]
  16f748:	011b      	lsls	r3, r3, #4
  16f74a:	18d2      	adds	r2, r2, r3
  16f74c:	6892      	ldr	r2, [r2, #8]
  16f74e:	6813      	ldr	r3, [r2, #0]
  16f750:	4259      	negs	r1, r3
  16f752:	414b      	adcs	r3, r1
  16f754:	6013      	str	r3, [r2, #0]
  16f756:	f7ff ffcd 	bl	16f6f4 <do_callback>
  16f75a:	4a04      	ldr	r2, [pc, #16]	(16f76c <update_bool_value+0x30>)
  16f75c:	2301      	movs	r3, #1
  16f75e:	6013      	str	r3, [r2, #0]
  16f760:	bc01      	pop	{r0}
  16f762:	4700      	bx	r0
  16f764:	001af7d0 	.word	0x001af7d0
  16f768:	001af808 	.word	0x001af808
  16f76c:	001af810 	.word	0x001af810

0016f770 <menuitem_text>:
  16f770:	b500      	push	{lr}
  16f772:	1c03      	adds	r3, r0, #0
  16f774:	6840      	ldr	r0, [r0, #4]
  16f776:	1c42      	adds	r2, r0, #1
  16f778:	d002      	beq.n	16f780 <menuitem_text+0x10>
  16f77a:	f022 fa61 	bl	191c40 <lang_str>
  16f77e:	e000      	b.n	16f782 <menuitem_text+0x12>
  16f780:	6898      	ldr	r0, [r3, #8]
  16f782:	bc02      	pop	{r1}
  16f784:	4708      	bx	r1
  16f786:	46c0      	nop			(mov r8, r8)

0016f788 <gui_menu_draw_symbol>:
  16f788:	b5f0      	push	{r4, r5, r6, r7, lr}
  16f78a:	4a20      	ldr	r2, [pc, #128]	(16f80c <gui_menu_draw_symbol+0x84>)
  16f78c:	2394      	movs	r3, #148
  16f78e:	b083      	sub	sp, #12
  16f790:	009b      	lsls	r3, r3, #2
  16f792:	9002      	str	r0, [sp, #8]
  16f794:	58d3      	ldr	r3, [r2, r3]
  16f796:	481e      	ldr	r0, [pc, #120]	(16f810 <gui_menu_draw_symbol+0x88>)
  16f798:	9000      	str	r0, [sp, #0]
  16f79a:	2b00      	cmp	r3, #0
  16f79c:	d024      	beq.n	16f7e8 <gui_menu_draw_symbol+0x60>
  16f79e:	4e1d      	ldr	r6, [pc, #116]	(16f814 <gui_menu_draw_symbol+0x8c>)
  16f7a0:	4a1d      	ldr	r2, [pc, #116]	(16f818 <gui_menu_draw_symbol+0x90>)
  16f7a2:	4f1e      	ldr	r7, [pc, #120]	(16f81c <gui_menu_draw_symbol+0x94>)
  16f7a4:	6835      	ldr	r5, [r6, #0]
  16f7a6:	6839      	ldr	r1, [r7, #0]
  16f7a8:	9201      	str	r2, [sp, #4]
  16f7aa:	8813      	ldrh	r3, [r2, #0]
  16f7ac:	1c28      	adds	r0, r5, #0
  16f7ae:	2220      	movs	r2, #32
  16f7b0:	f01f ff10 	bl	18f5d4 <rbf_draw_char>
  16f7b4:	4b1a      	ldr	r3, [pc, #104]	(16f820 <gui_menu_draw_symbol+0x98>)
  16f7b6:	1944      	adds	r4, r0, r5
  16f7b8:	681a      	ldr	r2, [r3, #0]
  16f7ba:	4b1a      	ldr	r3, [pc, #104]	(16f824 <gui_menu_draw_symbol+0x9c>)
  16f7bc:	6034      	str	r4, [r6, #0]
  16f7be:	681b      	ldr	r3, [r3, #0]
  16f7c0:	9801      	ldr	r0, [sp, #4]
  16f7c2:	6892      	ldr	r2, [r2, #8]
  16f7c4:	011b      	lsls	r3, r3, #4
  16f7c6:	5c9a      	ldrb	r2, [r3, r2]
  16f7c8:	6839      	ldr	r1, [r7, #0]
  16f7ca:	8803      	ldrh	r3, [r0, #0]
  16f7cc:	1c20      	adds	r0, r4, #0
  16f7ce:	f01f fe9b 	bl	18f508 <rbf_draw_symbol>
  16f7d2:	9a02      	ldr	r2, [sp, #8]
  16f7d4:	1824      	adds	r4, r4, r0
  16f7d6:	1c13      	adds	r3, r2, #0
  16f7d8:	4343      	muls	r3, r0
  16f7da:	4a13      	ldr	r2, [pc, #76]	(16f828 <gui_menu_draw_symbol+0xa0>)
  16f7dc:	6034      	str	r4, [r6, #0]
  16f7de:	6812      	ldr	r2, [r2, #0]
  16f7e0:	9800      	ldr	r0, [sp, #0]
  16f7e2:	189b      	adds	r3, r3, r2
  16f7e4:	6003      	str	r3, [r0, #0]
  16f7e6:	e001      	b.n	16f7ec <gui_menu_draw_symbol+0x64>
  16f7e8:	9a00      	ldr	r2, [sp, #0]
  16f7ea:	6013      	str	r3, [r2, #0]
  16f7ec:	4d09      	ldr	r5, [pc, #36]	(16f814 <gui_menu_draw_symbol+0x8c>)
  16f7ee:	4b0b      	ldr	r3, [pc, #44]	(16f81c <gui_menu_draw_symbol+0x94>)
  16f7f0:	682c      	ldr	r4, [r5, #0]
  16f7f2:	6819      	ldr	r1, [r3, #0]
  16f7f4:	4b0d      	ldr	r3, [pc, #52]	(16f82c <gui_menu_draw_symbol+0xa4>)
  16f7f6:	1c20      	adds	r0, r4, #0
  16f7f8:	881b      	ldrh	r3, [r3, #0]
  16f7fa:	2220      	movs	r2, #32
  16f7fc:	f01f feea 	bl	18f5d4 <rbf_draw_char>
  16f800:	b003      	add	sp, #12
  16f802:	1900      	adds	r0, r0, r4
  16f804:	6028      	str	r0, [r5, #0]
  16f806:	bcf0      	pop	{r4, r5, r6, r7}
  16f808:	bc01      	pop	{r0}
  16f80a:	4700      	bx	r0
  16f80c:	001ba558 	.word	0x001ba558
  16f810:	001af85c 	.word	0x001af85c
  16f814:	001af858 	.word	0x001af858
  16f818:	001af862 	.word	0x001af862
  16f81c:	001af854 	.word	0x001af854
  16f820:	001af7d0 	.word	0x001af7d0
  16f824:	001af850 	.word	0x001af850
  16f828:	001af834 	.word	0x001af834
  16f82c:	001af860 	.word	0x001af860

0016f830 <gui_menu_draw_text>:
  16f830:	b5f0      	push	{r4, r5, r6, r7, lr}
  16f832:	b082      	sub	sp, #8
  16f834:	9001      	str	r0, [sp, #4]
  16f836:	1c08      	adds	r0, r1, #0
  16f838:	1c0d      	adds	r5, r1, #0
  16f83a:	f7ff ffa5 	bl	16f788 <gui_menu_draw_symbol>
  16f83e:	4b1a      	ldr	r3, [pc, #104]	(16f8a8 <gui_menu_draw_text+0x78>)
  16f840:	4f1a      	ldr	r7, [pc, #104]	(16f8ac <gui_menu_draw_text+0x7c>)
  16f842:	6818      	ldr	r0, [r3, #0]
  16f844:	4b1a      	ldr	r3, [pc, #104]	(16f8b0 <gui_menu_draw_text+0x80>)
  16f846:	683c      	ldr	r4, [r7, #0]
  16f848:	681a      	ldr	r2, [r3, #0]
  16f84a:	4b1a      	ldr	r3, [pc, #104]	(16f8b4 <gui_menu_draw_text+0x84>)
  16f84c:	1a12      	subs	r2, r2, r0
  16f84e:	681b      	ldr	r3, [r3, #0]
  16f850:	1a12      	subs	r2, r2, r0
  16f852:	1ad2      	subs	r2, r2, r3
  16f854:	4b18      	ldr	r3, [pc, #96]	(16f8b8 <gui_menu_draw_text+0x88>)
  16f856:	4e19      	ldr	r6, [pc, #100]	(16f8bc <gui_menu_draw_text+0x8c>)
  16f858:	881b      	ldrh	r3, [r3, #0]
  16f85a:	6831      	ldr	r1, [r6, #0]
  16f85c:	1c20      	adds	r0, r4, #0
  16f85e:	9300      	str	r3, [sp, #0]
  16f860:	9b01      	ldr	r3, [sp, #4]
  16f862:	f01f ff41 	bl	18f6e8 <rbf_draw_string_len>
  16f866:	1904      	adds	r4, r0, r4
  16f868:	603c      	str	r4, [r7, #0]
  16f86a:	2d02      	cmp	r5, #2
  16f86c:	d10e      	bne.n	16f88c <gui_menu_draw_text+0x5c>
  16f86e:	4b14      	ldr	r3, [pc, #80]	(16f8c0 <gui_menu_draw_text+0x90>)
  16f870:	2294      	movs	r2, #148
  16f872:	0092      	lsls	r2, r2, #2
  16f874:	589b      	ldr	r3, [r3, r2]
  16f876:	2b00      	cmp	r3, #0
  16f878:	d008      	beq.n	16f88c <gui_menu_draw_text+0x5c>
  16f87a:	4b12      	ldr	r3, [pc, #72]	(16f8c4 <gui_menu_draw_text+0x94>)
  16f87c:	6831      	ldr	r1, [r6, #0]
  16f87e:	881b      	ldrh	r3, [r3, #0]
  16f880:	1c20      	adds	r0, r4, #0
  16f882:	2252      	movs	r2, #82
  16f884:	f01f fe40 	bl	18f508 <rbf_draw_symbol>
  16f888:	1900      	adds	r0, r0, r4
  16f88a:	6038      	str	r0, [r7, #0]
  16f88c:	4b07      	ldr	r3, [pc, #28]	(16f8ac <gui_menu_draw_text+0x7c>)
  16f88e:	2220      	movs	r2, #32
  16f890:	6818      	ldr	r0, [r3, #0]
  16f892:	4b0a      	ldr	r3, [pc, #40]	(16f8bc <gui_menu_draw_text+0x8c>)
  16f894:	6819      	ldr	r1, [r3, #0]
  16f896:	4b08      	ldr	r3, [pc, #32]	(16f8b8 <gui_menu_draw_text+0x88>)
  16f898:	881b      	ldrh	r3, [r3, #0]
  16f89a:	f01f fe9b 	bl	18f5d4 <rbf_draw_char>
  16f89e:	b002      	add	sp, #8
  16f8a0:	bcf0      	pop	{r4, r5, r6, r7}
  16f8a2:	bc01      	pop	{r0}
  16f8a4:	4700      	bx	r0
  16f8a6:	46c0      	nop			(mov r8, r8)
  16f8a8:	001af834 	.word	0x001af834
  16f8ac:	001af858 	.word	0x001af858
  16f8b0:	001af820 	.word	0x001af820
  16f8b4:	001af85c 	.word	0x001af85c
  16f8b8:	001af860 	.word	0x001af860
  16f8bc:	001af854 	.word	0x001af854
  16f8c0:	001ba558 	.word	0x001ba558
  16f8c4:	001af862 	.word	0x001af862

0016f8c8 <gui_menu_draw_value>:
  16f8c8:	b5f0      	push	{r4, r5, r6, r7, lr}
  16f8ca:	b085      	sub	sp, #20
  16f8cc:	9002      	str	r0, [sp, #8]
  16f8ce:	2001      	movs	r0, #1
  16f8d0:	9101      	str	r1, [sp, #4]
  16f8d2:	f7ff ff59 	bl	16f788 <gui_menu_draw_symbol>
  16f8d6:	4f25      	ldr	r7, [pc, #148]	(16f96c <gui_menu_draw_value+0xa4>)
  16f8d8:	4e25      	ldr	r6, [pc, #148]	(16f970 <gui_menu_draw_value+0xa8>)
  16f8da:	683b      	ldr	r3, [r7, #0]
  16f8dc:	9303      	str	r3, [sp, #12]
  16f8de:	6833      	ldr	r3, [r6, #0]
  16f8e0:	9304      	str	r3, [sp, #16]
  16f8e2:	4b24      	ldr	r3, [pc, #144]	(16f974 <gui_menu_draw_value+0xac>)
  16f8e4:	681a      	ldr	r2, [r3, #0]
  16f8e6:	4b24      	ldr	r3, [pc, #144]	(16f978 <gui_menu_draw_value+0xb0>)
  16f8e8:	681c      	ldr	r4, [r3, #0]
  16f8ea:	4b24      	ldr	r3, [pc, #144]	(16f97c <gui_menu_draw_value+0xb4>)
  16f8ec:	1aa4      	subs	r4, r4, r2
  16f8ee:	681b      	ldr	r3, [r3, #0]
  16f8f0:	1aa4      	subs	r4, r4, r2
  16f8f2:	1ae4      	subs	r4, r4, r3
  16f8f4:	9b01      	ldr	r3, [sp, #4]
  16f8f6:	1ae4      	subs	r4, r4, r3
  16f8f8:	4b21      	ldr	r3, [pc, #132]	(16f980 <gui_menu_draw_value+0xb8>)
  16f8fa:	681b      	ldr	r3, [r3, #0]
  16f8fc:	1ae4      	subs	r4, r4, r3
  16f8fe:	4b21      	ldr	r3, [pc, #132]	(16f984 <gui_menu_draw_value+0xbc>)
  16f900:	1aa4      	subs	r4, r4, r2
  16f902:	681b      	ldr	r3, [r3, #0]
  16f904:	1ae4      	subs	r4, r4, r3
  16f906:	4b20      	ldr	r3, [pc, #128]	(16f988 <gui_menu_draw_value+0xc0>)
  16f908:	681a      	ldr	r2, [r3, #0]
  16f90a:	4b20      	ldr	r3, [pc, #128]	(16f98c <gui_menu_draw_value+0xc4>)
  16f90c:	6892      	ldr	r2, [r2, #8]
  16f90e:	681b      	ldr	r3, [r3, #0]
  16f910:	011b      	lsls	r3, r3, #4
  16f912:	18d2      	adds	r2, r2, r3
  16f914:	6850      	ldr	r0, [r2, #4]
  16f916:	f022 f993 	bl	191c40 <lang_str>
  16f91a:	4d1d      	ldr	r5, [pc, #116]	(16f990 <gui_menu_draw_value+0xc8>)
  16f91c:	1c03      	adds	r3, r0, #0
  16f91e:	882a      	ldrh	r2, [r5, #0]
  16f920:	9904      	ldr	r1, [sp, #16]
  16f922:	9200      	str	r2, [sp, #0]
  16f924:	9803      	ldr	r0, [sp, #12]
  16f926:	1c22      	adds	r2, r4, #0
  16f928:	f01f fede 	bl	18f6e8 <rbf_draw_string_len>
  16f92c:	9b03      	ldr	r3, [sp, #12]
  16f92e:	6831      	ldr	r1, [r6, #0]
  16f930:	18c4      	adds	r4, r0, r3
  16f932:	603c      	str	r4, [r7, #0]
  16f934:	882b      	ldrh	r3, [r5, #0]
  16f936:	4a17      	ldr	r2, [pc, #92]	(16f994 <gui_menu_draw_value+0xcc>)
  16f938:	1c20      	adds	r0, r4, #0
  16f93a:	f01f ffc3 	bl	18f8c4 <rbf_draw_string>
  16f93e:	882b      	ldrh	r3, [r5, #0]
  16f940:	1824      	adds	r4, r4, r0
  16f942:	603c      	str	r4, [r7, #0]
  16f944:	6831      	ldr	r1, [r6, #0]
  16f946:	9a01      	ldr	r2, [sp, #4]
  16f948:	9300      	str	r3, [sp, #0]
  16f94a:	1c20      	adds	r0, r4, #0
  16f94c:	9b02      	ldr	r3, [sp, #8]
  16f94e:	f01f fe9b 	bl	18f688 <rbf_draw_string_right_len>
  16f952:	1824      	adds	r4, r4, r0
  16f954:	603c      	str	r4, [r7, #0]
  16f956:	6831      	ldr	r1, [r6, #0]
  16f958:	882b      	ldrh	r3, [r5, #0]
  16f95a:	4a0f      	ldr	r2, [pc, #60]	(16f998 <gui_menu_draw_value+0xd0>)
  16f95c:	1c20      	adds	r0, r4, #0
  16f95e:	f01f ffb1 	bl	18f8c4 <rbf_draw_string>
  16f962:	b005      	add	sp, #20
  16f964:	bcf0      	pop	{r4, r5, r6, r7}
  16f966:	bc01      	pop	{r0}
  16f968:	4700      	bx	r0
  16f96a:	46c0      	nop			(mov r8, r8)
  16f96c:	001af858 	.word	0x001af858
  16f970:	001af854 	.word	0x001af854
  16f974:	001af834 	.word	0x001af834
  16f978:	001af820 	.word	0x001af820
  16f97c:	001af838 	.word	0x001af838
  16f980:	001af83c 	.word	0x001af83c
  16f984:	001af85c 	.word	0x001af85c
  16f988:	001af7d0 	.word	0x001af7d0
  16f98c:	001af850 	.word	0x001af850
  16f990:	001af860 	.word	0x001af860
  16f994:	001a7a23 	.word	0x001a7a23
  16f998:	001a7a26 	.word	0x001a7a26

0016f99c <gui_menu_draw_initial>:
  16f99c:	b5f0      	push	{r4, r5, r6, r7, lr}
  16f99e:	b085      	sub	sp, #20
  16f9a0:	f7ff fe9a 	bl	16f6d8 <gui_menu_rows>
  16f9a4:	4f3a      	ldr	r7, [pc, #232]	(16fa90 <gui_menu_draw_initial+0xf4>)
  16f9a6:	4b3b      	ldr	r3, [pc, #236]	(16fa94 <gui_menu_draw_initial+0xf8>)
  16f9a8:	683e      	ldr	r6, [r7, #0]
  16f9aa:	4a3b      	ldr	r2, [pc, #236]	(16fa98 <gui_menu_draw_initial+0xfc>)
  16f9ac:	6018      	str	r0, [r3, #0]
  16f9ae:	1c05      	adds	r5, r0, #0
  16f9b0:	9202      	str	r2, [sp, #8]
  16f9b2:	42b0      	cmp	r0, r6
  16f9b4:	dd27      	ble.n	16fa06 <gui_menu_draw_initial+0x6a>
  16f9b6:	4b39      	ldr	r3, [pc, #228]	(16fa9c <gui_menu_draw_initial+0x100>)
  16f9b8:	681c      	ldr	r4, [r3, #0]
  16f9ba:	f01f fd27 	bl	18f40c <rbf_font_height>
  16f9be:	2301      	movs	r3, #1
  16f9c0:	1b9b      	subs	r3, r3, r6
  16f9c2:	1c1d      	adds	r5, r3, #0
  16f9c4:	4345      	muls	r5, r0
  16f9c6:	4b36      	ldr	r3, [pc, #216]	(16faa0 <gui_menu_draw_initial+0x104>)
  16f9c8:	192d      	adds	r5, r5, r4
  16f9ca:	086d      	lsrs	r5, r5, #1
  16f9cc:	4a35      	ldr	r2, [pc, #212]	(16faa4 <gui_menu_draw_initial+0x108>)
  16f9ce:	601d      	str	r5, [r3, #0]
  16f9d0:	4b35      	ldr	r3, [pc, #212]	(16faa8 <gui_menu_draw_initial+0x10c>)
  16f9d2:	683f      	ldr	r7, [r7, #0]
  16f9d4:	681e      	ldr	r6, [r3, #0]
  16f9d6:	6813      	ldr	r3, [r2, #0]
  16f9d8:	18f6      	adds	r6, r6, r3
  16f9da:	f01f fd17 	bl	18f40c <rbf_font_height>
  16f9de:	9a02      	ldr	r2, [sp, #8]
  16f9e0:	2390      	movs	r3, #144
  16f9e2:	009b      	lsls	r3, r3, #2
  16f9e4:	5ad4      	ldrh	r4, [r2, r3]
  16f9e6:	1c3b      	adds	r3, r7, #0
  16f9e8:	4343      	muls	r3, r0
  16f9ea:	0a24      	lsrs	r4, r4, #8
  16f9ec:	0221      	lsls	r1, r4, #8
  16f9ee:	4321      	orrs	r1, r4
  16f9f0:	1c32      	adds	r2, r6, #0
  16f9f2:	3b01      	subs	r3, #1
  16f9f4:	9100      	str	r1, [sp, #0]
  16f9f6:	3208      	adds	r2, #8
  16f9f8:	195b      	adds	r3, r3, r5
  16f9fa:	1c30      	adds	r0, r6, #0
  16f9fc:	1c29      	adds	r1, r5, #0
  16f9fe:	f7ff facb 	bl	16ef98 <draw_filled_rect>
  16fa02:	2408      	movs	r4, #8
  16fa04:	e017      	b.n	16fa36 <gui_menu_draw_initial+0x9a>
  16fa06:	2392      	movs	r3, #146
  16fa08:	9a02      	ldr	r2, [sp, #8]
  16fa0a:	009b      	lsls	r3, r3, #2
  16fa0c:	58d3      	ldr	r3, [r2, r3]
  16fa0e:	4c23      	ldr	r4, [pc, #140]	(16fa9c <gui_menu_draw_initial+0x100>)
  16fa10:	4f23      	ldr	r7, [pc, #140]	(16faa0 <gui_menu_draw_initial+0x104>)
  16fa12:	2b00      	cmp	r3, #0
  16fa14:	d005      	beq.n	16fa22 <gui_menu_draw_initial+0x86>
  16fa16:	6824      	ldr	r4, [r4, #0]
  16fa18:	f01f fcf8 	bl	18f40c <rbf_font_height>
  16fa1c:	2301      	movs	r3, #1
  16fa1e:	1b5b      	subs	r3, r3, r5
  16fa20:	e004      	b.n	16fa2c <gui_menu_draw_initial+0x90>
  16fa22:	6824      	ldr	r4, [r4, #0]
  16fa24:	f01f fcf2 	bl	18f40c <rbf_font_height>
  16fa28:	2301      	movs	r3, #1
  16fa2a:	1b9b      	subs	r3, r3, r6
  16fa2c:	4343      	muls	r3, r0
  16fa2e:	191b      	adds	r3, r3, r4
  16fa30:	085b      	lsrs	r3, r3, #1
  16fa32:	603b      	str	r3, [r7, #0]
  16fa34:	2400      	movs	r4, #0
  16fa36:	4b1b      	ldr	r3, [pc, #108]	(16faa4 <gui_menu_draw_initial+0x108>)
  16fa38:	681b      	ldr	r3, [r3, #0]
  16fa3a:	9304      	str	r3, [sp, #16]
  16fa3c:	4b18      	ldr	r3, [pc, #96]	(16faa0 <gui_menu_draw_initial+0x104>)
  16fa3e:	681b      	ldr	r3, [r3, #0]
  16fa40:	9303      	str	r3, [sp, #12]
  16fa42:	f01f fce3 	bl	18f40c <rbf_font_height>
  16fa46:	4b18      	ldr	r3, [pc, #96]	(16faa8 <gui_menu_draw_initial+0x10c>)
  16fa48:	4a13      	ldr	r2, [pc, #76]	(16fa98 <gui_menu_draw_initial+0xfc>)
  16fa4a:	681e      	ldr	r6, [r3, #0]
  16fa4c:	2394      	movs	r3, #148
  16fa4e:	009b      	lsls	r3, r3, #2
  16fa50:	58d3      	ldr	r3, [r2, r3]
  16fa52:	1c07      	adds	r7, r0, #0
  16fa54:	2b00      	cmp	r3, #0
  16fa56:	d101      	bne.n	16fa5c <gui_menu_draw_initial+0xc0>
  16fa58:	2500      	movs	r5, #0
  16fa5a:	e002      	b.n	16fa62 <gui_menu_draw_initial+0xc6>
  16fa5c:	4b13      	ldr	r3, [pc, #76]	(16faac <gui_menu_draw_initial+0x110>)
  16fa5e:	681b      	ldr	r3, [r3, #0]
  16fa60:	781d      	ldrb	r5, [r3, #0]
  16fa62:	4b12      	ldr	r3, [pc, #72]	(16faac <gui_menu_draw_initial+0x110>)
  16fa64:	681b      	ldr	r3, [r3, #0]
  16fa66:	2202      	movs	r2, #2
  16fa68:	5e98      	ldrsh	r0, [r3, r2]
  16fa6a:	f022 f8e9 	bl	191c40 <lang_str>
  16fa6e:	9b03      	ldr	r3, [sp, #12]
  16fa70:	9000      	str	r0, [sp, #0]
  16fa72:	1bd9      	subs	r1, r3, r7
  16fa74:	4808      	ldr	r0, [pc, #32]	(16fa98 <gui_menu_draw_initial+0xfc>)
  16fa76:	4b0e      	ldr	r3, [pc, #56]	(16fab0 <gui_menu_draw_initial+0x114>)
  16fa78:	19a2      	adds	r2, r4, r6
  16fa7a:	5ac3      	ldrh	r3, [r0, r3]
  16fa7c:	9804      	ldr	r0, [sp, #16]
  16fa7e:	9301      	str	r3, [sp, #4]
  16fa80:	1c2b      	adds	r3, r5, #0
  16fa82:	f01f fe59 	bl	18f738 <rbf_draw_string_center_len>
  16fa86:	b005      	add	sp, #20
  16fa88:	bcf0      	pop	{r4, r5, r6, r7}
  16fa8a:	bc01      	pop	{r0}
  16fa8c:	4700      	bx	r0
  16fa8e:	46c0      	nop			(mov r8, r8)
  16fa90:	001af824 	.word	0x001af824
  16fa94:	001af814 	.word	0x001af814
  16fa98:	001ba558 	.word	0x001ba558
  16fa9c:	001af75c 	.word	0x001af75c
  16faa0:	001af81c 	.word	0x001af81c
  16faa4:	001af818 	.word	0x001af818
  16faa8:	001af820 	.word	0x001af820
  16faac:	001af7d0 	.word	0x001af7d0
  16fab0:	00000242 	.word	0x00000242

0016fab4 <gui_menu_draw>:
  16fab4:	b5f0      	push	{r4, r5, r6, r7, lr}
  16fab6:	4be2      	ldr	r3, [pc, #904]	(16fe40 <gui_menu_draw+0x38c>)
  16fab8:	b0a0      	sub	sp, #128
  16faba:	681b      	ldr	r3, [r3, #0]
  16fabc:	2b00      	cmp	r3, #0
  16fabe:	d100      	bne.n	16fac2 <gui_menu_draw+0xe>
  16fac0:	e2e6      	b.n	170090 <gui_menu_draw+0x5dc>
  16fac2:	2b02      	cmp	r3, #2
  16fac4:	d101      	bne.n	16faca <gui_menu_draw+0x16>
  16fac6:	f7ff ff69 	bl	16f99c <gui_menu_draw_initial>
  16faca:	4add      	ldr	r2, [pc, #884]	(16fe40 <gui_menu_draw+0x38c>)
  16facc:	2300      	movs	r3, #0
  16face:	6013      	str	r3, [r2, #0]
  16fad0:	4bdc      	ldr	r3, [pc, #880]	(16fe44 <gui_menu_draw+0x390>)
  16fad2:	49dd      	ldr	r1, [pc, #884]	(16fe48 <gui_menu_draw+0x394>)
  16fad4:	681b      	ldr	r3, [r3, #0]
  16fad6:	4add      	ldr	r2, [pc, #884]	(16fe4c <gui_menu_draw+0x398>)
  16fad8:	600b      	str	r3, [r1, #0]
  16fada:	4bdd      	ldr	r3, [pc, #884]	(16fe50 <gui_menu_draw+0x39c>)
  16fadc:	48dd      	ldr	r0, [pc, #884]	(16fe54 <gui_menu_draw+0x3a0>)
  16fade:	681b      	ldr	r3, [r3, #0]
  16fae0:	9015      	str	r0, [sp, #84]
  16fae2:	6013      	str	r3, [r2, #0]
  16fae4:	4bdc      	ldr	r3, [pc, #880]	(16fe58 <gui_menu_draw+0x3a4>)
  16fae6:	2200      	movs	r2, #0
  16fae8:	9213      	str	r2, [sp, #76]
  16faea:	9302      	str	r3, [sp, #8]
  16faec:	e259      	b.n	16ffa2 <gui_menu_draw+0x4ee>
  16faee:	4bdb      	ldr	r3, [pc, #876]	(16fe5c <gui_menu_draw+0x3a8>)
  16faf0:	49db      	ldr	r1, [pc, #876]	(16fe60 <gui_menu_draw+0x3ac>)
  16faf2:	681b      	ldr	r3, [r3, #0]
  16faf4:	42a3      	cmp	r3, r4
  16faf6:	d101      	bne.n	16fafc <gui_menu_draw+0x48>
  16faf8:	2391      	movs	r3, #145
  16fafa:	e000      	b.n	16fafe <gui_menu_draw+0x4a>
  16fafc:	2390      	movs	r3, #144
  16fafe:	009b      	lsls	r3, r3, #2
  16fb00:	5aca      	ldrh	r2, [r1, r3]
  16fb02:	4bd8      	ldr	r3, [pc, #864]	(16fe64 <gui_menu_draw+0x3b0>)
  16fb04:	49d6      	ldr	r1, [pc, #856]	(16fe60 <gui_menu_draw+0x3ac>)
  16fb06:	801a      	strh	r2, [r3, #0]
  16fb08:	4bd4      	ldr	r3, [pc, #848]	(16fe5c <gui_menu_draw+0x3a8>)
  16fb0a:	681b      	ldr	r3, [r3, #0]
  16fb0c:	42a3      	cmp	r3, r4
  16fb0e:	d105      	bne.n	16fb1c <gui_menu_draw+0x68>
  16fb10:	0a13      	lsrs	r3, r2, #8
  16fb12:	4ad5      	ldr	r2, [pc, #852]	(16fe68 <gui_menu_draw+0x3b4>)
  16fb14:	021b      	lsls	r3, r3, #8
  16fb16:	5c8a      	ldrb	r2, [r1, r2]
  16fb18:	431a      	orrs	r2, r3
  16fb1a:	e001      	b.n	16fb20 <gui_menu_draw+0x6c>
  16fb1c:	4bd2      	ldr	r3, [pc, #840]	(16fe68 <gui_menu_draw+0x3b4>)
  16fb1e:	5aca      	ldrh	r2, [r1, r3]
  16fb20:	4bd2      	ldr	r3, [pc, #840]	(16fe6c <gui_menu_draw+0x3b8>)
  16fb22:	801a      	strh	r2, [r3, #0]
  16fb24:	4bd2      	ldr	r3, [pc, #840]	(16fe70 <gui_menu_draw+0x3bc>)
  16fb26:	4ad3      	ldr	r2, [pc, #844]	(16fe74 <gui_menu_draw+0x3c0>)
  16fb28:	681b      	ldr	r3, [r3, #0]
  16fb2a:	6013      	str	r3, [r2, #0]
  16fb2c:	4bca      	ldr	r3, [pc, #808]	(16fe58 <gui_menu_draw+0x3a4>)
  16fb2e:	220f      	movs	r2, #15
  16fb30:	681b      	ldr	r3, [r3, #0]
  16fb32:	689b      	ldr	r3, [r3, #8]
  16fb34:	1818      	adds	r0, r3, r0
  16fb36:	8843      	ldrh	r3, [r0, #2]
  16fb38:	4013      	ands	r3, r2
  16fb3a:	3b01      	subs	r3, #1
  16fb3c:	2b0b      	cmp	r3, #11
  16fb3e:	d900      	bls.n	16fb42 <gui_menu_draw+0x8e>
  16fb40:	e222      	b.n	16ff88 <gui_menu_draw+0x4d4>
  16fb42:	4acd      	ldr	r2, [pc, #820]	(16fe78 <gui_menu_draw+0x3c4>)
  16fb44:	009b      	lsls	r3, r3, #2
  16fb46:	58d3      	ldr	r3, [r2, r3]
  16fb48:	4fc0      	ldr	r7, [pc, #768]	(16fe4c <gui_menu_draw+0x398>)
  16fb4a:	469f      	mov	pc, r3
  16fb4c:	6883      	ldr	r3, [r0, #8]
  16fb4e:	681b      	ldr	r3, [r3, #0]
  16fb50:	2b00      	cmp	r3, #0
  16fb52:	d101      	bne.n	16fb58 <gui_menu_draw+0xa4>
  16fb54:	48bf      	ldr	r0, [pc, #764]	(16fe54 <gui_menu_draw+0x3a0>)
  16fb56:	e000      	b.n	16fb5a <gui_menu_draw+0xa6>
  16fb58:	48c8      	ldr	r0, [pc, #800]	(16fe7c <gui_menu_draw+0x3c8>)
  16fb5a:	4bc9      	ldr	r3, [pc, #804]	(16fe80 <gui_menu_draw+0x3cc>)
  16fb5c:	6819      	ldr	r1, [r3, #0]
  16fb5e:	e211      	b.n	16ff84 <gui_menu_draw+0x4d0>
  16fb60:	6883      	ldr	r3, [r0, #8]
  16fb62:	4cc8      	ldr	r4, [pc, #800]	(16fe84 <gui_menu_draw+0x3d0>)
  16fb64:	49c8      	ldr	r1, [pc, #800]	(16fe88 <gui_menu_draw+0x3d4>)
  16fb66:	681a      	ldr	r2, [r3, #0]
  16fb68:	1c20      	adds	r0, r4, #0
  16fb6a:	f031 fe4b 	bl	1a1804 <__sprintf_from_thumb>
  16fb6e:	4bc7      	ldr	r3, [pc, #796]	(16fe8c <gui_menu_draw+0x3d8>)
  16fb70:	1c20      	adds	r0, r4, #0
  16fb72:	6819      	ldr	r1, [r3, #0]
  16fb74:	e206      	b.n	16ff84 <gui_menu_draw+0x4d0>
  16fb76:	6840      	ldr	r0, [r0, #4]
  16fb78:	f022 f862 	bl	191c40 <lang_str>
  16fb7c:	4ab8      	ldr	r2, [pc, #736]	(16fe60 <gui_menu_draw+0x3ac>)
  16fb7e:	2394      	movs	r3, #148
  16fb80:	009b      	lsls	r3, r3, #2
  16fb82:	58d3      	ldr	r3, [r2, r3]
  16fb84:	1c05      	adds	r5, r0, #0
  16fb86:	2b00      	cmp	r3, #0
  16fb88:	d101      	bne.n	16fb8e <gui_menu_draw+0xda>
  16fb8a:	4bc1      	ldr	r3, [pc, #772]	(16fe90 <gui_menu_draw+0x3dc>)
  16fb8c:	e000      	b.n	16fb90 <gui_menu_draw+0xdc>
  16fb8e:	4bb1      	ldr	r3, [pc, #708]	(16fe54 <gui_menu_draw+0x3a0>)
  16fb90:	4cbc      	ldr	r4, [pc, #752]	(16fe84 <gui_menu_draw+0x3d0>)
  16fb92:	49c0      	ldr	r1, [pc, #768]	(16fe94 <gui_menu_draw+0x3e0>)
  16fb94:	1c20      	adds	r0, r4, #0
  16fb96:	1c2a      	adds	r2, r5, #0
  16fb98:	f031 fe34 	bl	1a1804 <__sprintf_from_thumb>
  16fb9c:	1c20      	adds	r0, r4, #0
  16fb9e:	2102      	movs	r1, #2
  16fba0:	e014      	b.n	16fbcc <gui_menu_draw+0x118>
  16fba2:	4baf      	ldr	r3, [pc, #700]	(16fe60 <gui_menu_draw+0x3ac>)
  16fba4:	2294      	movs	r2, #148
  16fba6:	0092      	lsls	r2, r2, #2
  16fba8:	589b      	ldr	r3, [r3, r2]
  16fbaa:	2b00      	cmp	r3, #0
  16fbac:	d101      	bne.n	16fbb2 <gui_menu_draw+0xfe>
  16fbae:	4dba      	ldr	r5, [pc, #744]	(16fe98 <gui_menu_draw+0x3e4>)
  16fbb0:	e000      	b.n	16fbb4 <gui_menu_draw+0x100>
  16fbb2:	4da8      	ldr	r5, [pc, #672]	(16fe54 <gui_menu_draw+0x3a0>)
  16fbb4:	6840      	ldr	r0, [r0, #4]
  16fbb6:	f022 f843 	bl	191c40 <lang_str>
  16fbba:	4cb2      	ldr	r4, [pc, #712]	(16fe84 <gui_menu_draw+0x3d0>)
  16fbbc:	1c03      	adds	r3, r0, #0
  16fbbe:	49b5      	ldr	r1, [pc, #724]	(16fe94 <gui_menu_draw+0x3e0>)
  16fbc0:	1c20      	adds	r0, r4, #0
  16fbc2:	1c2a      	adds	r2, r5, #0
  16fbc4:	f031 fe1e 	bl	1a1804 <__sprintf_from_thumb>
  16fbc8:	1c20      	adds	r0, r4, #0
  16fbca:	2101      	movs	r1, #1
  16fbcc:	f7ff fe30 	bl	16f830 <gui_menu_draw_text>
  16fbd0:	e1da      	b.n	16ff88 <gui_menu_draw+0x4d4>
  16fbd2:	6840      	ldr	r0, [r0, #4]
  16fbd4:	f022 f834 	bl	191c40 <lang_str>
  16fbd8:	e7f7      	b.n	16fbca <gui_menu_draw+0x116>
  16fbda:	4ba5      	ldr	r3, [pc, #660]	(16fe70 <gui_menu_draw+0x3bc>)
  16fbdc:	6839      	ldr	r1, [r7, #0]
  16fbde:	6818      	ldr	r0, [r3, #0]
  16fbe0:	4ba0      	ldr	r3, [pc, #640]	(16fe64 <gui_menu_draw+0x3b0>)
  16fbe2:	2220      	movs	r2, #32
  16fbe4:	881b      	ldrh	r3, [r3, #0]
  16fbe6:	f01f fcf5 	bl	18f5d4 <rbf_draw_char>
  16fbea:	9c02      	ldr	r4, [sp, #8]
  16fbec:	4f96      	ldr	r7, [pc, #600]	(16fe48 <gui_menu_draw+0x394>)
  16fbee:	6822      	ldr	r2, [r4, #0]
  16fbf0:	683b      	ldr	r3, [r7, #0]
  16fbf2:	6892      	ldr	r2, [r2, #8]
  16fbf4:	011b      	lsls	r3, r3, #4
  16fbf6:	18d2      	adds	r2, r2, r3
  16fbf8:	6850      	ldr	r0, [r2, #4]
  16fbfa:	f022 f821 	bl	191c40 <lang_str>
  16fbfe:	7803      	ldrb	r3, [r0, #0]
  16fc00:	4ca0      	ldr	r4, [pc, #640]	(16fe84 <gui_menu_draw+0x3d0>)
  16fc02:	2b00      	cmp	r3, #0
  16fc04:	d00e      	beq.n	16fc24 <gui_menu_draw+0x170>
  16fc06:	9802      	ldr	r0, [sp, #8]
  16fc08:	683b      	ldr	r3, [r7, #0]
  16fc0a:	6802      	ldr	r2, [r0, #0]
  16fc0c:	011b      	lsls	r3, r3, #4
  16fc0e:	6892      	ldr	r2, [r2, #8]
  16fc10:	18d2      	adds	r2, r2, r3
  16fc12:	6850      	ldr	r0, [r2, #4]
  16fc14:	f022 f814 	bl	191c40 <lang_str>
  16fc18:	49a0      	ldr	r1, [pc, #640]	(16fe9c <gui_menu_draw+0x3e8>)
  16fc1a:	1c02      	adds	r2, r0, #0
  16fc1c:	1c20      	adds	r0, r4, #0
  16fc1e:	f031 fdf1 	bl	1a1804 <__sprintf_from_thumb>
  16fc22:	e000      	b.n	16fc26 <gui_menu_draw+0x172>
  16fc24:	7023      	strb	r3, [r4, #0]
  16fc26:	4897      	ldr	r0, [pc, #604]	(16fe84 <gui_menu_draw+0x3d0>)
  16fc28:	f01f fc10 	bl	18f44c <rbf_str_width>
  16fc2c:	4b9c      	ldr	r3, [pc, #624]	(16fea0 <gui_menu_draw+0x3ec>)
  16fc2e:	4991      	ldr	r1, [pc, #580]	(16fe74 <gui_menu_draw+0x3c0>)
  16fc30:	681b      	ldr	r3, [r3, #0]
  16fc32:	9111      	str	r1, [sp, #68]
  16fc34:	680a      	ldr	r2, [r1, #0]
  16fc36:	1a1b      	subs	r3, r3, r0
  16fc38:	105b      	asrs	r3, r3, #1
  16fc3a:	189e      	adds	r6, r3, r2
  16fc3c:	4a8c      	ldr	r2, [pc, #560]	(16fe70 <gui_menu_draw+0x3bc>)
  16fc3e:	4b99      	ldr	r3, [pc, #612]	(16fea4 <gui_menu_draw+0x3f0>)
  16fc40:	600e      	str	r6, [r1, #0]
  16fc42:	9210      	str	r2, [sp, #64]
  16fc44:	6812      	ldr	r2, [r2, #0]
  16fc46:	930f      	str	r3, [sp, #60]
  16fc48:	681b      	ldr	r3, [r3, #0]
  16fc4a:	9016      	str	r0, [sp, #88]
  16fc4c:	18d7      	adds	r7, r2, r3
  16fc4e:	42be      	cmp	r6, r7
  16fc50:	dd5d      	ble.n	16fd0e <gui_menu_draw+0x25a>
  16fc52:	4c7e      	ldr	r4, [pc, #504]	(16fe4c <gui_menu_draw+0x398>)
  16fc54:	940e      	str	r4, [sp, #56]
  16fc56:	6825      	ldr	r5, [r4, #0]
  16fc58:	f01f fbd8 	bl	18f40c <rbf_font_height>
  16fc5c:	4981      	ldr	r1, [pc, #516]	(16fe64 <gui_menu_draw+0x3b0>)
  16fc5e:	1e6b      	subs	r3, r5, #1
  16fc60:	910d      	str	r1, [sp, #52]
  16fc62:	880c      	ldrh	r4, [r1, #0]
  16fc64:	0fc1      	lsrs	r1, r0, #31
  16fc66:	1809      	adds	r1, r1, r0
  16fc68:	0a24      	lsrs	r4, r4, #8
  16fc6a:	1049      	asrs	r1, r1, #1
  16fc6c:	185b      	adds	r3, r3, r1
  16fc6e:	0221      	lsls	r1, r4, #8
  16fc70:	4321      	orrs	r1, r4
  16fc72:	1e72      	subs	r2, r6, #1
  16fc74:	9100      	str	r1, [sp, #0]
  16fc76:	1c38      	adds	r0, r7, #0
  16fc78:	1c29      	adds	r1, r5, #0
  16fc7a:	f7ff f98d 	bl	16ef98 <draw_filled_rect>
  16fc7e:	9a0f      	ldr	r2, [sp, #60]
  16fc80:	9c10      	ldr	r4, [sp, #64]
  16fc82:	9f0e      	ldr	r7, [sp, #56]
  16fc84:	6823      	ldr	r3, [r4, #0]
  16fc86:	6816      	ldr	r6, [r2, #0]
  16fc88:	683f      	ldr	r7, [r7, #0]
  16fc8a:	18f6      	adds	r6, r6, r3
  16fc8c:	9717      	str	r7, [sp, #92]
  16fc8e:	f01f fbbd 	bl	18f40c <rbf_font_height>
  16fc92:	990e      	ldr	r1, [sp, #56]
  16fc94:	1c05      	adds	r5, r0, #0
  16fc96:	9811      	ldr	r0, [sp, #68]
  16fc98:	680f      	ldr	r7, [r1, #0]
  16fc9a:	6804      	ldr	r4, [r0, #0]
  16fc9c:	f01f fbb6 	bl	18f40c <rbf_font_height>
  16fca0:	0fc3      	lsrs	r3, r0, #31
  16fca2:	181b      	adds	r3, r3, r0
  16fca4:	0fe9      	lsrs	r1, r5, #31
  16fca6:	105b      	asrs	r3, r3, #1
  16fca8:	9a17      	ldr	r2, [sp, #92]
  16fcaa:	19db      	adds	r3, r3, r7
  16fcac:	1949      	adds	r1, r1, r5
  16fcae:	9f0d      	ldr	r7, [sp, #52]
  16fcb0:	1049      	asrs	r1, r1, #1
  16fcb2:	1889      	adds	r1, r1, r2
  16fcb4:	883a      	ldrh	r2, [r7, #0]
  16fcb6:	3c01      	subs	r4, #1
  16fcb8:	9200      	str	r2, [sp, #0]
  16fcba:	1c30      	adds	r0, r6, #0
  16fcbc:	1c22      	adds	r2, r4, #0
  16fcbe:	f7fe ff95 	bl	16ebec <draw_line>
  16fcc2:	990f      	ldr	r1, [sp, #60]
  16fcc4:	9a10      	ldr	r2, [sp, #64]
  16fcc6:	6808      	ldr	r0, [r1, #0]
  16fcc8:	6813      	ldr	r3, [r2, #0]
  16fcca:	18c3      	adds	r3, r0, r3
  16fccc:	9318      	str	r3, [sp, #96]
  16fcce:	9b0e      	ldr	r3, [sp, #56]
  16fcd0:	681d      	ldr	r5, [r3, #0]
  16fcd2:	f01f fb9b 	bl	18f40c <rbf_font_height>
  16fcd6:	9c11      	ldr	r4, [sp, #68]
  16fcd8:	1c07      	adds	r7, r0, #0
  16fcda:	980e      	ldr	r0, [sp, #56]
  16fcdc:	6826      	ldr	r6, [r4, #0]
  16fcde:	6804      	ldr	r4, [r0, #0]
  16fce0:	f01f fb94 	bl	18f40c <rbf_font_height>
  16fce4:	990d      	ldr	r1, [sp, #52]
  16fce6:	0ffb      	lsrs	r3, r7, #31
  16fce8:	880a      	ldrh	r2, [r1, #0]
  16fcea:	19db      	adds	r3, r3, r7
  16fcec:	0a12      	lsrs	r2, r2, #8
  16fcee:	105b      	asrs	r3, r3, #1
  16fcf0:	3501      	adds	r5, #1
  16fcf2:	18ed      	adds	r5, r5, r3
  16fcf4:	3c01      	subs	r4, #1
  16fcf6:	0213      	lsls	r3, r2, #8
  16fcf8:	1824      	adds	r4, r4, r0
  16fcfa:	4313      	orrs	r3, r2
  16fcfc:	3e01      	subs	r6, #1
  16fcfe:	9300      	str	r3, [sp, #0]
  16fd00:	9818      	ldr	r0, [sp, #96]
  16fd02:	1c29      	adds	r1, r5, #0
  16fd04:	1c32      	adds	r2, r6, #0
  16fd06:	1c23      	adds	r3, r4, #0
  16fd08:	f7ff f946 	bl	16ef98 <draw_filled_rect>
  16fd0c:	e001      	b.n	16fd12 <gui_menu_draw+0x25e>
  16fd0e:	9b11      	ldr	r3, [sp, #68]
  16fd10:	601a      	str	r2, [r3, #0]
  16fd12:	9c16      	ldr	r4, [sp, #88]
  16fd14:	2c00      	cmp	r4, #0
  16fd16:	d010      	beq.n	16fd3a <gui_menu_draw+0x286>
  16fd18:	4b4c      	ldr	r3, [pc, #304]	(16fe4c <gui_menu_draw+0x398>)
  16fd1a:	4d56      	ldr	r5, [pc, #344]	(16fe74 <gui_menu_draw+0x3c0>)
  16fd1c:	6819      	ldr	r1, [r3, #0]
  16fd1e:	4b51      	ldr	r3, [pc, #324]	(16fe64 <gui_menu_draw+0x3b0>)
  16fd20:	2000      	movs	r0, #0
  16fd22:	682c      	ldr	r4, [r5, #0]
  16fd24:	881b      	ldrh	r3, [r3, #0]
  16fd26:	9000      	str	r0, [sp, #0]
  16fd28:	485d      	ldr	r0, [pc, #372]	(16fea0 <gui_menu_draw+0x3ec>)
  16fd2a:	4a56      	ldr	r2, [pc, #344]	(16fe84 <gui_menu_draw+0x3d0>)
  16fd2c:	6800      	ldr	r0, [r0, #0]
  16fd2e:	9001      	str	r0, [sp, #4]
  16fd30:	1c20      	adds	r0, r4, #0
  16fd32:	f01f fc87 	bl	18f644 <rbf_draw_clipped_string>
  16fd36:	1900      	adds	r0, r0, r4
  16fd38:	6028      	str	r0, [r5, #0]
  16fd3a:	4959      	ldr	r1, [pc, #356]	(16fea0 <gui_menu_draw+0x3ec>)
  16fd3c:	4a4c      	ldr	r2, [pc, #304]	(16fe70 <gui_menu_draw+0x3bc>)
  16fd3e:	4f4d      	ldr	r7, [pc, #308]	(16fe74 <gui_menu_draw+0x3c0>)
  16fd40:	4c58      	ldr	r4, [pc, #352]	(16fea4 <gui_menu_draw+0x3f0>)
  16fd42:	6838      	ldr	r0, [r7, #0]
  16fd44:	910c      	str	r1, [sp, #48]
  16fd46:	920b      	str	r2, [sp, #44]
  16fd48:	6812      	ldr	r2, [r2, #0]
  16fd4a:	680b      	ldr	r3, [r1, #0]
  16fd4c:	940a      	str	r4, [sp, #40]
  16fd4e:	189b      	adds	r3, r3, r2
  16fd50:	6822      	ldr	r2, [r4, #0]
  16fd52:	9019      	str	r0, [sp, #100]
  16fd54:	1a9e      	subs	r6, r3, r2
  16fd56:	42b0      	cmp	r0, r6
  16fd58:	da61      	bge.n	16fe1e <gui_menu_draw+0x36a>
  16fd5a:	483c      	ldr	r0, [pc, #240]	(16fe4c <gui_menu_draw+0x398>)
  16fd5c:	9009      	str	r0, [sp, #36]
  16fd5e:	6805      	ldr	r5, [r0, #0]
  16fd60:	f01f fb54 	bl	18f40c <rbf_font_height>
  16fd64:	493f      	ldr	r1, [pc, #252]	(16fe64 <gui_menu_draw+0x3b0>)
  16fd66:	1e6b      	subs	r3, r5, #1
  16fd68:	9108      	str	r1, [sp, #32]
  16fd6a:	880c      	ldrh	r4, [r1, #0]
  16fd6c:	0fc1      	lsrs	r1, r0, #31
  16fd6e:	1809      	adds	r1, r1, r0
  16fd70:	0a24      	lsrs	r4, r4, #8
  16fd72:	1049      	asrs	r1, r1, #1
  16fd74:	185b      	adds	r3, r3, r1
  16fd76:	0221      	lsls	r1, r4, #8
  16fd78:	4321      	orrs	r1, r4
  16fd7a:	1e72      	subs	r2, r6, #1
  16fd7c:	9100      	str	r1, [sp, #0]
  16fd7e:	9819      	ldr	r0, [sp, #100]
  16fd80:	1c29      	adds	r1, r5, #0
  16fd82:	f7ff f909 	bl	16ef98 <draw_filled_rect>
  16fd86:	9b09      	ldr	r3, [sp, #36]
  16fd88:	683a      	ldr	r2, [r7, #0]
  16fd8a:	681b      	ldr	r3, [r3, #0]
  16fd8c:	921a      	str	r2, [sp, #104]
  16fd8e:	931b      	str	r3, [sp, #108]
  16fd90:	f01f fb3c 	bl	18f40c <rbf_font_height>
  16fd94:	990c      	ldr	r1, [sp, #48]
  16fd96:	1c05      	adds	r5, r0, #0
  16fd98:	980b      	ldr	r0, [sp, #44]
  16fd9a:	680b      	ldr	r3, [r1, #0]
  16fd9c:	9a0a      	ldr	r2, [sp, #40]
  16fd9e:	6804      	ldr	r4, [r0, #0]
  16fda0:	18e4      	adds	r4, r4, r3
  16fda2:	6813      	ldr	r3, [r2, #0]
  16fda4:	3c01      	subs	r4, #1
  16fda6:	1ae4      	subs	r4, r4, r3
  16fda8:	9b09      	ldr	r3, [sp, #36]
  16fdaa:	681e      	ldr	r6, [r3, #0]
  16fdac:	f01f fb2e 	bl	18f40c <rbf_font_height>
  16fdb0:	0fe9      	lsrs	r1, r5, #31
  16fdb2:	0fc3      	lsrs	r3, r0, #31
  16fdb4:	9a1b      	ldr	r2, [sp, #108]
  16fdb6:	1949      	adds	r1, r1, r5
  16fdb8:	181b      	adds	r3, r3, r0
  16fdba:	9808      	ldr	r0, [sp, #32]
  16fdbc:	1049      	asrs	r1, r1, #1
  16fdbe:	1889      	adds	r1, r1, r2
  16fdc0:	8802      	ldrh	r2, [r0, #0]
  16fdc2:	105b      	asrs	r3, r3, #1
  16fdc4:	199b      	adds	r3, r3, r6
  16fdc6:	9200      	str	r2, [sp, #0]
  16fdc8:	981a      	ldr	r0, [sp, #104]
  16fdca:	1c22      	adds	r2, r4, #0
  16fdcc:	f7fe ff0e 	bl	16ebec <draw_line>
  16fdd0:	683f      	ldr	r7, [r7, #0]
  16fdd2:	9909      	ldr	r1, [sp, #36]
  16fdd4:	971c      	str	r7, [sp, #112]
  16fdd6:	680e      	ldr	r6, [r1, #0]
  16fdd8:	f01f fb18 	bl	18f40c <rbf_font_height>
  16fddc:	9a0b      	ldr	r2, [sp, #44]
  16fdde:	1c07      	adds	r7, r0, #0
  16fde0:	980c      	ldr	r0, [sp, #48]
  16fde2:	6814      	ldr	r4, [r2, #0]
  16fde4:	6803      	ldr	r3, [r0, #0]
  16fde6:	990a      	ldr	r1, [sp, #40]
  16fde8:	9a09      	ldr	r2, [sp, #36]
  16fdea:	18e4      	adds	r4, r4, r3
  16fdec:	680b      	ldr	r3, [r1, #0]
  16fdee:	3c01      	subs	r4, #1
  16fdf0:	1ae4      	subs	r4, r4, r3
  16fdf2:	6815      	ldr	r5, [r2, #0]
  16fdf4:	f01f fb0a 	bl	18f40c <rbf_font_height>
  16fdf8:	9b08      	ldr	r3, [sp, #32]
  16fdfa:	3601      	adds	r6, #1
  16fdfc:	881a      	ldrh	r2, [r3, #0]
  16fdfe:	0ffb      	lsrs	r3, r7, #31
  16fe00:	19db      	adds	r3, r3, r7
  16fe02:	0a12      	lsrs	r2, r2, #8
  16fe04:	105b      	asrs	r3, r3, #1
  16fe06:	18f6      	adds	r6, r6, r3
  16fe08:	3d01      	subs	r5, #1
  16fe0a:	0213      	lsls	r3, r2, #8
  16fe0c:	4313      	orrs	r3, r2
  16fe0e:	182d      	adds	r5, r5, r0
  16fe10:	9300      	str	r3, [sp, #0]
  16fe12:	981c      	ldr	r0, [sp, #112]
  16fe14:	1c31      	adds	r1, r6, #0
  16fe16:	1c22      	adds	r2, r4, #0
  16fe18:	1c2b      	adds	r3, r5, #0
  16fe1a:	f7ff f8bd 	bl	16ef98 <draw_filled_rect>
  16fe1e:	4b20      	ldr	r3, [pc, #128]	(16fea0 <gui_menu_draw+0x3ec>)
  16fe20:	4a13      	ldr	r2, [pc, #76]	(16fe70 <gui_menu_draw+0x3bc>)
  16fe22:	6818      	ldr	r0, [r3, #0]
  16fe24:	6813      	ldr	r3, [r2, #0]
  16fe26:	2220      	movs	r2, #32
  16fe28:	18c0      	adds	r0, r0, r3
  16fe2a:	4b1e      	ldr	r3, [pc, #120]	(16fea4 <gui_menu_draw+0x3f0>)
  16fe2c:	681b      	ldr	r3, [r3, #0]
  16fe2e:	1ac0      	subs	r0, r0, r3
  16fe30:	4b06      	ldr	r3, [pc, #24]	(16fe4c <gui_menu_draw+0x398>)
  16fe32:	6819      	ldr	r1, [r3, #0]
  16fe34:	4b0b      	ldr	r3, [pc, #44]	(16fe64 <gui_menu_draw+0x3b0>)
  16fe36:	881b      	ldrh	r3, [r3, #0]
  16fe38:	f01f fbcc 	bl	18f5d4 <rbf_draw_char>
  16fe3c:	e0a4      	b.n	16ff88 <gui_menu_draw+0x4d4>
  16fe3e:	46c0      	nop			(mov r8, r8)
  16fe40:	001af810 	.word	0x001af810
  16fe44:	001af80c 	.word	0x001af80c
  16fe48:	001af850 	.word	0x001af850
  16fe4c:	001af854 	.word	0x001af854
  16fe50:	001af81c 	.word	0x001af81c
  16fe54:	001aa787 	.word	0x001aa787
  16fe58:	001af7d0 	.word	0x001af7d0
  16fe5c:	001af808 	.word	0x001af808
  16fe60:	001ba558 	.word	0x001ba558
  16fe64:	001af860 	.word	0x001af860
  16fe68:	00000246 	.word	0x00000246
  16fe6c:	001af862 	.word	0x001af862
  16fe70:	001af818 	.word	0x001af818
  16fe74:	001af858 	.word	0x001af858
  16fe78:	001a2078 	.word	0x001a2078
  16fe7c:	001a7a29 	.word	0x001a7a29
  16fe80:	001af828 	.word	0x001af828
  16fe84:	001af788 	.word	0x001af788
  16fe88:	001a81c1 	.word	0x001a81c1
  16fe8c:	001af82c 	.word	0x001af82c
  16fe90:	001a7a2b 	.word	0x001a7a2b
  16fe94:	001a7a87 	.word	0x001a7a87
  16fe98:	001a7a2f 	.word	0x001a7a2f
  16fe9c:	001a7bed 	.word	0x001a7bed
  16fea0:	001af820 	.word	0x001af820
  16fea4:	001af834 	.word	0x001af834
  16fea8:	2001      	movs	r0, #1
  16feaa:	f7ff fc6d 	bl	16f788 <gui_menu_draw_symbol>
  16feae:	4c7a      	ldr	r4, [pc, #488]	(170098 <gui_menu_draw+0x5e4>)
  16feb0:	497a      	ldr	r1, [pc, #488]	(17009c <gui_menu_draw+0x5e8>)
  16feb2:	9407      	str	r4, [sp, #28]
  16feb4:	4e7a      	ldr	r6, [pc, #488]	(1700a0 <gui_menu_draw+0x5ec>)
  16feb6:	6825      	ldr	r5, [r4, #0]
  16feb8:	6838      	ldr	r0, [r7, #0]
  16feba:	9106      	str	r1, [sp, #24]
  16febc:	680b      	ldr	r3, [r1, #0]
  16febe:	6834      	ldr	r4, [r6, #0]
  16fec0:	901d      	str	r0, [sp, #116]
  16fec2:	1ae4      	subs	r4, r4, r3
  16fec4:	4b77      	ldr	r3, [pc, #476]	(1700a4 <gui_menu_draw+0x5f0>)
  16fec6:	4878      	ldr	r0, [pc, #480]	(1700a8 <gui_menu_draw+0x5f4>)
  16fec8:	681b      	ldr	r3, [r3, #0]
  16feca:	1ae4      	subs	r4, r4, r3
  16fecc:	9b02      	ldr	r3, [sp, #8]
  16fece:	681a      	ldr	r2, [r3, #0]
  16fed0:	6803      	ldr	r3, [r0, #0]
  16fed2:	6892      	ldr	r2, [r2, #8]
  16fed4:	011b      	lsls	r3, r3, #4
  16fed6:	18d2      	adds	r2, r2, r3
  16fed8:	6850      	ldr	r0, [r2, #4]
  16feda:	f021 feb1 	bl	191c40 <lang_str>
  16fede:	4a73      	ldr	r2, [pc, #460]	(1700ac <gui_menu_draw+0x5f8>)
  16fee0:	1c03      	adds	r3, r0, #0
  16fee2:	8812      	ldrh	r2, [r2, #0]
  16fee4:	991d      	ldr	r1, [sp, #116]
  16fee6:	9200      	str	r2, [sp, #0]
  16fee8:	1c28      	adds	r0, r5, #0
  16feea:	1c22      	adds	r2, r4, #0
  16feec:	f01f fbfc 	bl	18f6e8 <rbf_draw_string_len>
  16fef0:	4b6f      	ldr	r3, [pc, #444]	(1700b0 <gui_menu_draw+0x5fc>)
  16fef2:	6832      	ldr	r2, [r6, #0]
  16fef4:	9907      	ldr	r1, [sp, #28]
  16fef6:	681b      	ldr	r3, [r3, #0]
  16fef8:	1940      	adds	r0, r0, r5
  16fefa:	18d3      	adds	r3, r2, r3
  16fefc:	6008      	str	r0, [r1, #0]
  16fefe:	931e      	str	r3, [sp, #120]
  16ff00:	9a06      	ldr	r2, [sp, #24]
  16ff02:	4b6c      	ldr	r3, [pc, #432]	(1700b4 <gui_menu_draw+0x600>)
  16ff04:	6812      	ldr	r2, [r2, #0]
  16ff06:	681b      	ldr	r3, [r3, #0]
  16ff08:	921f      	str	r2, [sp, #124]
  16ff0a:	9312      	str	r3, [sp, #72]
  16ff0c:	683f      	ldr	r7, [r7, #0]
  16ff0e:	f01f fa7d 	bl	18f40c <rbf_font_height>
  16ff12:	9b02      	ldr	r3, [sp, #8]
  16ff14:	4c64      	ldr	r4, [pc, #400]	(1700a8 <gui_menu_draw+0x5f4>)
  16ff16:	681a      	ldr	r2, [r3, #0]
  16ff18:	6823      	ldr	r3, [r4, #0]
  16ff1a:	6892      	ldr	r2, [r2, #8]
  16ff1c:	011b      	lsls	r3, r3, #4
  16ff1e:	18d2      	adds	r2, r2, r3
  16ff20:	6893      	ldr	r3, [r2, #8]
  16ff22:	4684      	mov	ip, r0
  16ff24:	681c      	ldr	r4, [r3, #0]
  16ff26:	8853      	ldrh	r3, [r2, #2]
  16ff28:	220f      	movs	r2, #15
  16ff2a:	4013      	ands	r3, r2
  16ff2c:	2b09      	cmp	r3, #9
  16ff2e:	d100      	bne.n	16ff32 <gui_menu_draw+0x47e>
  16ff30:	e0ab      	b.n	17008a <gui_menu_draw+0x5d6>
  16ff32:	2500      	movs	r5, #0
  16ff34:	2600      	movs	r6, #0
  16ff36:	981e      	ldr	r0, [sp, #120]
  16ff38:	991f      	ldr	r1, [sp, #124]
  16ff3a:	9b12      	ldr	r3, [sp, #72]
  16ff3c:	1a42      	subs	r2, r0, r1
  16ff3e:	3a03      	subs	r2, #3
  16ff40:	1ad0      	subs	r0, r2, r3
  16ff42:	1cb9      	adds	r1, r7, #2
  16ff44:	1efb      	subs	r3, r7, #3
  16ff46:	1c27      	adds	r7, r4, #0
  16ff48:	412f      	asrs	r7, r5
  16ff4a:	4134      	asrs	r4, r6
  16ff4c:	063d      	lsls	r5, r7, #24
  16ff4e:	0624      	lsls	r4, r4, #24
  16ff50:	0c24      	lsrs	r4, r4, #16
  16ff52:	0e2d      	lsrs	r5, r5, #24
  16ff54:	4325      	orrs	r5, r4
  16ff56:	4463      	add	r3, ip
  16ff58:	9500      	str	r5, [sp, #0]
  16ff5a:	f7ff f83f 	bl	16efdc <draw_filled_round_rect>
  16ff5e:	e013      	b.n	16ff88 <gui_menu_draw+0x4d4>
  16ff60:	6883      	ldr	r3, [r0, #8]
  16ff62:	2b00      	cmp	r3, #0
  16ff64:	d00b      	beq.n	16ff7e <gui_menu_draw+0x4ca>
  16ff66:	68c1      	ldr	r1, [r0, #12]
  16ff68:	2000      	movs	r0, #0
  16ff6a:	f000 fd74 	bl	170a56 <gui_menu_init+0xf6>
  16ff6e:	e005      	b.n	16ff7c <gui_menu_draw+0x4c8>
  16ff70:	6883      	ldr	r3, [r0, #8]
  16ff72:	2b00      	cmp	r3, #0
  16ff74:	d003      	beq.n	16ff7e <gui_menu_draw+0x4ca>
  16ff76:	2100      	movs	r1, #0
  16ff78:	f002 ff8e 	bl	172e98 <gui_change_enum2>
  16ff7c:	9015      	str	r0, [sp, #84]
  16ff7e:	4b4e      	ldr	r3, [pc, #312]	(1700b8 <gui_menu_draw+0x604>)
  16ff80:	9815      	ldr	r0, [sp, #84]
  16ff82:	6819      	ldr	r1, [r3, #0]
  16ff84:	f7ff fca0 	bl	16f8c8 <gui_menu_draw_value>
  16ff88:	4a47      	ldr	r2, [pc, #284]	(1700a8 <gui_menu_draw+0x5f4>)
  16ff8a:	9813      	ldr	r0, [sp, #76]
  16ff8c:	6813      	ldr	r3, [r2, #0]
  16ff8e:	4d4b      	ldr	r5, [pc, #300]	(1700bc <gui_menu_draw+0x608>)
  16ff90:	3301      	adds	r3, #1
  16ff92:	3001      	adds	r0, #1
  16ff94:	6013      	str	r3, [r2, #0]
  16ff96:	682c      	ldr	r4, [r5, #0]
  16ff98:	9013      	str	r0, [sp, #76]
  16ff9a:	f01f fa37 	bl	18f40c <rbf_font_height>
  16ff9e:	1900      	adds	r0, r0, r4
  16ffa0:	6028      	str	r0, [r5, #0]
  16ffa2:	4b41      	ldr	r3, [pc, #260]	(1700a8 <gui_menu_draw+0x5f4>)
  16ffa4:	681c      	ldr	r4, [r3, #0]
  16ffa6:	4b46      	ldr	r3, [pc, #280]	(1700c0 <gui_menu_draw+0x60c>)
  16ffa8:	0120      	lsls	r0, r4, #4
  16ffaa:	681b      	ldr	r3, [r3, #0]
  16ffac:	689b      	ldr	r3, [r3, #8]
  16ffae:	181b      	adds	r3, r3, r0
  16ffb0:	685b      	ldr	r3, [r3, #4]
  16ffb2:	2b00      	cmp	r3, #0
  16ffb4:	d005      	beq.n	16ffc2 <gui_menu_draw+0x50e>
  16ffb6:	4b43      	ldr	r3, [pc, #268]	(1700c4 <gui_menu_draw+0x610>)
  16ffb8:	9913      	ldr	r1, [sp, #76]
  16ffba:	681b      	ldr	r3, [r3, #0]
  16ffbc:	4299      	cmp	r1, r3
  16ffbe:	da00      	bge.n	16ffc2 <gui_menu_draw+0x50e>
  16ffc0:	e595      	b.n	16faee <gui_menu_draw+0x3a>
  16ffc2:	4e40      	ldr	r6, [pc, #256]	(1700c4 <gui_menu_draw+0x610>)
  16ffc4:	4d40      	ldr	r5, [pc, #256]	(1700c8 <gui_menu_draw+0x614>)
  16ffc6:	6834      	ldr	r4, [r6, #0]
  16ffc8:	682b      	ldr	r3, [r5, #0]
  16ffca:	42a3      	cmp	r3, r4
  16ffcc:	dd60      	ble.n	170090 <gui_menu_draw+0x5dc>
  16ffce:	f01f fa1d 	bl	18f40c <rbf_font_height>
  16ffd2:	1c23      	adds	r3, r4, #0
  16ffd4:	4343      	muls	r3, r0
  16ffd6:	682d      	ldr	r5, [r5, #0]
  16ffd8:	1e9c      	subs	r4, r3, #2
  16ffda:	6833      	ldr	r3, [r6, #0]
  16ffdc:	1c29      	adds	r1, r5, #0
  16ffde:	1c18      	adds	r0, r3, #0
  16ffe0:	4360      	muls	r0, r4
  16ffe2:	f030 f9bf 	bl	1a0364 <__aeabi_idiv>
  16ffe6:	9014      	str	r0, [sp, #80]
  16ffe8:	2813      	cmp	r0, #19
  16ffea:	dc01      	bgt.n	16fff0 <gui_menu_draw+0x53c>
  16ffec:	2214      	movs	r2, #20
  16ffee:	9214      	str	r2, [sp, #80]
  16fff0:	9b14      	ldr	r3, [sp, #80]
  16fff2:	1ae2      	subs	r2, r4, r3
  16fff4:	4b35      	ldr	r3, [pc, #212]	(1700cc <gui_menu_draw+0x618>)
  16fff6:	681b      	ldr	r3, [r3, #0]
  16fff8:	2b00      	cmp	r3, #0
  16fffa:	da00      	bge.n	16fffe <gui_menu_draw+0x54a>
  16fffc:	2300      	movs	r3, #0
  16fffe:	1c18      	adds	r0, r3, #0
  170000:	4350      	muls	r0, r2
  170002:	1e69      	subs	r1, r5, #1
  170004:	f030 f9ae 	bl	1a0364 <__aeabi_idiv>
  170008:	4c25      	ldr	r4, [pc, #148]	(1700a0 <gui_menu_draw+0x5ec>)
  17000a:	4f29      	ldr	r7, [pc, #164]	(1700b0 <gui_menu_draw+0x5fc>)
  17000c:	9005      	str	r0, [sp, #20]
  17000e:	9404      	str	r4, [sp, #16]
  170010:	9703      	str	r7, [sp, #12]
  170012:	683b      	ldr	r3, [r7, #0]
  170014:	4f2e      	ldr	r7, [pc, #184]	(1700d0 <gui_menu_draw+0x61c>)
  170016:	6822      	ldr	r2, [r4, #0]
  170018:	6839      	ldr	r1, [r7, #0]
  17001a:	9c05      	ldr	r4, [sp, #20]
  17001c:	3101      	adds	r1, #1
  17001e:	18d2      	adds	r2, r2, r3
  170020:	1863      	adds	r3, r4, r1
  170022:	4c2c      	ldr	r4, [pc, #176]	(1700d4 <gui_menu_draw+0x620>)
  170024:	1c90      	adds	r0, r2, #2
  170026:	3206      	adds	r2, #6
  170028:	9400      	str	r4, [sp, #0]
  17002a:	f7fe ffd7 	bl	16efdc <draw_filled_round_rect>
  17002e:	9903      	ldr	r1, [sp, #12]
  170030:	9804      	ldr	r0, [sp, #16]
  170032:	680b      	ldr	r3, [r1, #0]
  170034:	6805      	ldr	r5, [r0, #0]
  170036:	683c      	ldr	r4, [r7, #0]
  170038:	18ed      	adds	r5, r5, r3
  17003a:	4b22      	ldr	r3, [pc, #136]	(1700c4 <gui_menu_draw+0x610>)
  17003c:	681e      	ldr	r6, [r3, #0]
  17003e:	f01f f9e5 	bl	18f40c <rbf_font_height>
  170042:	9b14      	ldr	r3, [sp, #80]
  170044:	1caa      	adds	r2, r5, #2
  170046:	1919      	adds	r1, r3, r4
  170048:	9b05      	ldr	r3, [sp, #20]
  17004a:	3c02      	subs	r4, #2
  17004c:	18c9      	adds	r1, r1, r3
  17004e:	1c33      	adds	r3, r6, #0
  170050:	4343      	muls	r3, r0
  170052:	4820      	ldr	r0, [pc, #128]	(1700d4 <gui_menu_draw+0x620>)
  170054:	3506      	adds	r5, #6
  170056:	18e4      	adds	r4, r4, r3
  170058:	9000      	str	r0, [sp, #0]
  17005a:	1c23      	adds	r3, r4, #0
  17005c:	1c10      	adds	r0, r2, #0
  17005e:	1c2a      	adds	r2, r5, #0
  170060:	f7fe ffbc 	bl	16efdc <draw_filled_round_rect>
  170064:	9904      	ldr	r1, [sp, #16]
  170066:	9c03      	ldr	r4, [sp, #12]
  170068:	680a      	ldr	r2, [r1, #0]
  17006a:	6823      	ldr	r3, [r4, #0]
  17006c:	9c14      	ldr	r4, [sp, #80]
  17006e:	18d2      	adds	r2, r2, r3
  170070:	683b      	ldr	r3, [r7, #0]
  170072:	9f05      	ldr	r7, [sp, #20]
  170074:	1c59      	adds	r1, r3, #1
  170076:	18e3      	adds	r3, r4, r3
  170078:	4c17      	ldr	r4, [pc, #92]	(1700d8 <gui_menu_draw+0x624>)
  17007a:	1c90      	adds	r0, r2, #2
  17007c:	19c9      	adds	r1, r1, r7
  17007e:	3206      	adds	r2, #6
  170080:	19db      	adds	r3, r3, r7
  170082:	9400      	str	r4, [sp, #0]
  170084:	f7fe ffaa 	bl	16efdc <draw_filled_round_rect>
  170088:	e002      	b.n	170090 <gui_menu_draw+0x5dc>
  17008a:	2508      	movs	r5, #8
  17008c:	2608      	movs	r6, #8
  17008e:	e752      	b.n	16ff36 <gui_menu_draw+0x482>
  170090:	b020      	add	sp, #128
  170092:	bcf0      	pop	{r4, r5, r6, r7}
  170094:	bc01      	pop	{r0}
  170096:	4700      	bx	r0
  170098:	001af858 	.word	0x001af858
  17009c:	001af834 	.word	0x001af834
  1700a0:	001af820 	.word	0x001af820
  1700a4:	001af85c 	.word	0x001af85c
  1700a8:	001af850 	.word	0x001af850
  1700ac:	001af860 	.word	0x001af860
  1700b0:	001af818 	.word	0x001af818
  1700b4:	001af840 	.word	0x001af840
  1700b8:	001af830 	.word	0x001af830
  1700bc:	001af854 	.word	0x001af854
  1700c0:	001af7d0 	.word	0x001af7d0
  1700c4:	001af824 	.word	0x001af824
  1700c8:	001af814 	.word	0x001af814
  1700cc:	001af808 	.word	0x001af808
  1700d0:	001af81c 	.word	0x001af81c
  1700d4:	0000ffff 	.word	0x0000ffff
  1700d8:	00000101 	.word	0x00000101

001700dc <gui_menu_updown>:
  1700dc:	b5f0      	push	{r4, r5, r6, r7, lr}
  1700de:	b084      	sub	sp, #16
  1700e0:	9001      	str	r0, [sp, #4]
  1700e2:	2006      	movs	r0, #6
  1700e4:	f031 fbc2 	bl	1a186c <__kbd_is_key_pressed_from_thumb>
  1700e8:	2800      	cmp	r0, #0
  1700ea:	d10c      	bne.n	170106 <gui_menu_updown+0x2a>
  1700ec:	2008      	movs	r0, #8
  1700ee:	f031 fbbd 	bl	1a186c <__kbd_is_key_pressed_from_thumb>
  1700f2:	2800      	cmp	r0, #0
  1700f4:	d107      	bne.n	170106 <gui_menu_updown+0x2a>
  1700f6:	2009      	movs	r0, #9
  1700f8:	f031 fbb8 	bl	1a186c <__kbd_is_key_pressed_from_thumb>
  1700fc:	2800      	cmp	r0, #0
  1700fe:	d102      	bne.n	170106 <gui_menu_updown+0x2a>
  170100:	2101      	movs	r1, #1
  170102:	9102      	str	r1, [sp, #8]
  170104:	e001      	b.n	17010a <gui_menu_updown+0x2e>
  170106:	2204      	movs	r2, #4
  170108:	9202      	str	r2, [sp, #8]
  17010a:	4934      	ldr	r1, [pc, #208]	(1701dc <gui_menu_updown+0x100>)
  17010c:	2300      	movs	r3, #0
  17010e:	4f34      	ldr	r7, [pc, #208]	(1701e0 <gui_menu_updown+0x104>)
  170110:	9303      	str	r3, [sp, #12]
  170112:	9100      	str	r1, [sp, #0]
  170114:	683b      	ldr	r3, [r7, #0]
  170116:	9a01      	ldr	r2, [sp, #4]
  170118:	18d4      	adds	r4, r2, r3
  17011a:	603c      	str	r4, [r7, #0]
  17011c:	2c00      	cmp	r4, #0
  17011e:	da0a      	bge.n	170136 <gui_menu_updown+0x5a>
  170120:	f7ff fada 	bl	16f6d8 <gui_menu_rows>
  170124:	4b2f      	ldr	r3, [pc, #188]	(1701e4 <gui_menu_updown+0x108>)
  170126:	3801      	subs	r0, #1
  170128:	681b      	ldr	r3, [r3, #0]
  17012a:	6038      	str	r0, [r7, #0]
  17012c:	1ac0      	subs	r0, r0, r3
  17012e:	9b00      	ldr	r3, [sp, #0]
  170130:	3001      	adds	r0, #1
  170132:	6018      	str	r0, [r3, #0]
  170134:	e02b      	b.n	17018e <gui_menu_updown+0xb2>
  170136:	f7ff facf 	bl	16f6d8 <gui_menu_rows>
  17013a:	4284      	cmp	r4, r0
  17013c:	db04      	blt.n	170148 <gui_menu_updown+0x6c>
  17013e:	4a27      	ldr	r2, [pc, #156]	(1701dc <gui_menu_updown+0x100>)
  170140:	2300      	movs	r3, #0
  170142:	6013      	str	r3, [r2, #0]
  170144:	603b      	str	r3, [r7, #0]
  170146:	e022      	b.n	17018e <gui_menu_updown+0xb2>
  170148:	9901      	ldr	r1, [sp, #4]
  17014a:	2901      	cmp	r1, #1
  17014c:	d118      	bne.n	170180 <gui_menu_updown+0xa4>
  17014e:	4a23      	ldr	r2, [pc, #140]	(1701dc <gui_menu_updown+0x100>)
  170150:	4e24      	ldr	r6, [pc, #144]	(1701e4 <gui_menu_updown+0x108>)
  170152:	6813      	ldr	r3, [r2, #0]
  170154:	683c      	ldr	r4, [r7, #0]
  170156:	6835      	ldr	r5, [r6, #0]
  170158:	1ae3      	subs	r3, r4, r3
  17015a:	1e6a      	subs	r2, r5, #1
  17015c:	4293      	cmp	r3, r2
  17015e:	db16      	blt.n	17018e <gui_menu_updown+0xb2>
  170160:	4b1e      	ldr	r3, [pc, #120]	(1701dc <gui_menu_updown+0x100>)
  170162:	3402      	adds	r4, #2
  170164:	1b64      	subs	r4, r4, r5
  170166:	601c      	str	r4, [r3, #0]
  170168:	f7ff fab6 	bl	16f6d8 <gui_menu_rows>
  17016c:	1964      	adds	r4, r4, r5
  17016e:	4284      	cmp	r4, r0
  170170:	dd0d      	ble.n	17018e <gui_menu_updown+0xb2>
  170172:	f7ff fab1 	bl	16f6d8 <gui_menu_rows>
  170176:	6833      	ldr	r3, [r6, #0]
  170178:	4918      	ldr	r1, [pc, #96]	(1701dc <gui_menu_updown+0x100>)
  17017a:	1ac0      	subs	r0, r0, r3
  17017c:	6008      	str	r0, [r1, #0]
  17017e:	e006      	b.n	17018e <gui_menu_updown+0xb2>
  170180:	4916      	ldr	r1, [pc, #88]	(1701dc <gui_menu_updown+0x100>)
  170182:	683a      	ldr	r2, [r7, #0]
  170184:	680b      	ldr	r3, [r1, #0]
  170186:	429a      	cmp	r2, r3
  170188:	d101      	bne.n	17018e <gui_menu_updown+0xb2>
  17018a:	1e53      	subs	r3, r2, #1
  17018c:	600b      	str	r3, [r1, #0]
  17018e:	4a13      	ldr	r2, [pc, #76]	(1701dc <gui_menu_updown+0x100>)
  170190:	6813      	ldr	r3, [r2, #0]
  170192:	2b00      	cmp	r3, #0
  170194:	da01      	bge.n	17019a <gui_menu_updown+0xbe>
  170196:	2300      	movs	r3, #0
  170198:	6013      	str	r3, [r2, #0]
  17019a:	4b13      	ldr	r3, [pc, #76]	(1701e8 <gui_menu_updown+0x10c>)
  17019c:	681a      	ldr	r2, [r3, #0]
  17019e:	4b10      	ldr	r3, [pc, #64]	(1701e0 <gui_menu_updown+0x104>)
  1701a0:	6892      	ldr	r2, [r2, #8]
  1701a2:	681b      	ldr	r3, [r3, #0]
  1701a4:	011b      	lsls	r3, r3, #4
  1701a6:	18d2      	adds	r2, r2, r3
  1701a8:	8853      	ldrh	r3, [r2, #2]
  1701aa:	220f      	movs	r2, #15
  1701ac:	4013      	ands	r3, r2
  1701ae:	3b06      	subs	r3, #6
  1701b0:	2b01      	cmp	r3, #1
  1701b2:	d9af      	bls.n	170114 <gui_menu_updown+0x38>
  1701b4:	4a0d      	ldr	r2, [pc, #52]	(1701ec <gui_menu_updown+0x110>)
  1701b6:	6813      	ldr	r3, [r2, #0]
  1701b8:	2b00      	cmp	r3, #0
  1701ba:	d101      	bne.n	1701c0 <gui_menu_updown+0xe4>
  1701bc:	2301      	movs	r3, #1
  1701be:	6013      	str	r3, [r2, #0]
  1701c0:	9a03      	ldr	r2, [sp, #12]
  1701c2:	9b02      	ldr	r3, [sp, #8]
  1701c4:	3201      	adds	r2, #1
  1701c6:	9203      	str	r2, [sp, #12]
  1701c8:	429a      	cmp	r2, r3
  1701ca:	dba3      	blt.n	170114 <gui_menu_updown+0x38>
  1701cc:	4a08      	ldr	r2, [pc, #32]	(1701f0 <gui_menu_updown+0x114>)
  1701ce:	2301      	movs	r3, #1
  1701d0:	b004      	add	sp, #16
  1701d2:	6013      	str	r3, [r2, #0]
  1701d4:	bcf0      	pop	{r4, r5, r6, r7}
  1701d6:	bc01      	pop	{r0}
  1701d8:	4700      	bx	r0
  1701da:	46c0      	nop			(mov r8, r8)
  1701dc:	001af80c 	.word	0x001af80c
  1701e0:	001af808 	.word	0x001af808
  1701e4:	001af824 	.word	0x001af824
  1701e8:	001af7d0 	.word	0x001af7d0
  1701ec:	001af810 	.word	0x001af810
  1701f0:	001af844 	.word	0x001af844

001701f4 <get_int_incr_from_button>:
  1701f4:	b500      	push	{lr}
  1701f6:	2009      	movs	r0, #9
  1701f8:	f031 fb38 	bl	1a186c <__kbd_is_key_pressed_from_thumb>
  1701fc:	2800      	cmp	r0, #0
  1701fe:	d005      	beq.n	17020c <get_int_incr_from_button+0x18>
  170200:	4a0f      	ldr	r2, [pc, #60]	(170240 <get_int_incr_from_button+0x4c>)
  170202:	230a      	movs	r3, #10
  170204:	6013      	str	r3, [r2, #0]
  170206:	4a0f      	ldr	r2, [pc, #60]	(170244 <get_int_incr_from_button+0x50>)
  170208:	2301      	movs	r3, #1
  17020a:	6013      	str	r3, [r2, #0]
  17020c:	2008      	movs	r0, #8
  17020e:	f031 fb2d 	bl	1a186c <__kbd_is_key_pressed_from_thumb>
  170212:	2800      	cmp	r0, #0
  170214:	d005      	beq.n	170222 <get_int_incr_from_button+0x2e>
  170216:	4a0a      	ldr	r2, [pc, #40]	(170240 <get_int_incr_from_button+0x4c>)
  170218:	2364      	movs	r3, #100
  17021a:	6013      	str	r3, [r2, #0]
  17021c:	4a09      	ldr	r2, [pc, #36]	(170244 <get_int_incr_from_button+0x50>)
  17021e:	2301      	movs	r3, #1
  170220:	6013      	str	r3, [r2, #0]
  170222:	2006      	movs	r0, #6
  170224:	f031 fb22 	bl	1a186c <__kbd_is_key_pressed_from_thumb>
  170228:	2800      	cmp	r0, #0
  17022a:	d006      	beq.n	17023a <get_int_incr_from_button+0x46>
  17022c:	4a04      	ldr	r2, [pc, #16]	(170240 <get_int_incr_from_button+0x4c>)
  17022e:	23fa      	movs	r3, #250
  170230:	009b      	lsls	r3, r3, #2
  170232:	6013      	str	r3, [r2, #0]
  170234:	4a03      	ldr	r2, [pc, #12]	(170244 <get_int_incr_from_button+0x50>)
  170236:	2301      	movs	r3, #1
  170238:	6013      	str	r3, [r2, #0]
  17023a:	bc01      	pop	{r0}
  17023c:	4700      	bx	r0
  17023e:	46c0      	nop			(mov r8, r8)
  170240:	001af844 	.word	0x001af844
  170244:	001af848 	.word	0x001af848

00170248 <update_enum_value>:
  170248:	b510      	push	{r4, lr}
  17024a:	4b1e      	ldr	r3, [pc, #120]	(1702c4 <update_enum_value+0x7c>)
  17024c:	1c04      	adds	r4, r0, #0
  17024e:	681a      	ldr	r2, [r3, #0]
  170250:	4b1d      	ldr	r3, [pc, #116]	(1702c8 <update_enum_value+0x80>)
  170252:	6892      	ldr	r2, [r2, #8]
  170254:	681b      	ldr	r3, [r3, #0]
  170256:	011b      	lsls	r3, r3, #4
  170258:	18d2      	adds	r2, r2, r3
  17025a:	6893      	ldr	r3, [r2, #8]
  17025c:	2b00      	cmp	r3, #0
  17025e:	d02a      	beq.n	1702b6 <update_enum_value+0x6e>
  170260:	2006      	movs	r0, #6
  170262:	f031 fb03 	bl	1a186c <__kbd_is_key_pressed_from_thumb>
  170266:	2800      	cmp	r0, #0
  170268:	d10d      	bne.n	170286 <update_enum_value+0x3e>
  17026a:	2008      	movs	r0, #8
  17026c:	f031 fafe 	bl	1a186c <__kbd_is_key_pressed_from_thumb>
  170270:	2800      	cmp	r0, #0
  170272:	d001      	beq.n	170278 <update_enum_value+0x30>
  170274:	2106      	movs	r1, #6
  170276:	e007      	b.n	170288 <update_enum_value+0x40>
  170278:	2009      	movs	r0, #9
  17027a:	f031 faf7 	bl	1a186c <__kbd_is_key_pressed_from_thumb>
  17027e:	2800      	cmp	r0, #0
  170280:	d101      	bne.n	170286 <update_enum_value+0x3e>
  170282:	2101      	movs	r1, #1
  170284:	e000      	b.n	170288 <update_enum_value+0x40>
  170286:	2103      	movs	r1, #3
  170288:	4b0e      	ldr	r3, [pc, #56]	(1702c4 <update_enum_value+0x7c>)
  17028a:	681a      	ldr	r2, [r3, #0]
  17028c:	4b0e      	ldr	r3, [pc, #56]	(1702c8 <update_enum_value+0x80>)
  17028e:	6892      	ldr	r2, [r2, #8]
  170290:	681b      	ldr	r3, [r3, #0]
  170292:	011b      	lsls	r3, r3, #4
  170294:	18d0      	adds	r0, r2, r3
  170296:	8843      	ldrh	r3, [r0, #2]
  170298:	220f      	movs	r2, #15
  17029a:	4013      	ands	r3, r2
  17029c:	1c22      	adds	r2, r4, #0
  17029e:	434a      	muls	r2, r1
  1702a0:	2b08      	cmp	r3, #8
  1702a2:	d105      	bne.n	1702b0 <update_enum_value+0x68>
  1702a4:	68c1      	ldr	r1, [r0, #12]
  1702a6:	6883      	ldr	r3, [r0, #8]
  1702a8:	1c10      	adds	r0, r2, #0
  1702aa:	f000 fbd4 	bl	170a56 <gui_menu_init+0xf6>
  1702ae:	e002      	b.n	1702b6 <update_enum_value+0x6e>
  1702b0:	1c11      	adds	r1, r2, #0
  1702b2:	f002 fdf1 	bl	172e98 <gui_change_enum2>
  1702b6:	4a05      	ldr	r2, [pc, #20]	(1702cc <update_enum_value+0x84>)
  1702b8:	2301      	movs	r3, #1
  1702ba:	6013      	str	r3, [r2, #0]
  1702bc:	bc10      	pop	{r4}
  1702be:	bc01      	pop	{r0}
  1702c0:	4700      	bx	r0
  1702c2:	46c0      	nop			(mov r8, r8)
  1702c4:	001af7d0 	.word	0x001af7d0
  1702c8:	001af808 	.word	0x001af808
  1702cc:	001af810 	.word	0x001af810

001702d0 <update_int_value>:
  1702d0:	b510      	push	{r4, lr}
  1702d2:	1c04      	adds	r4, r0, #0
  1702d4:	f7ff ff8e 	bl	1701f4 <get_int_incr_from_button>
  1702d8:	4b48      	ldr	r3, [pc, #288]	(1703fc <update_int_value+0x12c>)
  1702da:	681a      	ldr	r2, [r3, #0]
  1702dc:	4b48      	ldr	r3, [pc, #288]	(170400 <update_int_value+0x130>)
  1702de:	6892      	ldr	r2, [r2, #8]
  1702e0:	681b      	ldr	r3, [r3, #0]
  1702e2:	011b      	lsls	r3, r3, #4
  1702e4:	18d0      	adds	r0, r2, r3
  1702e6:	8842      	ldrh	r2, [r0, #2]
  1702e8:	23f0      	movs	r3, #240
  1702ea:	011b      	lsls	r3, r3, #4
  1702ec:	401a      	ands	r2, r3
  1702ee:	2380      	movs	r3, #128
  1702f0:	005b      	lsls	r3, r3, #1
  1702f2:	429a      	cmp	r2, r3
  1702f4:	d005      	beq.n	170302 <update_int_value+0x32>
  1702f6:	2380      	movs	r3, #128
  1702f8:	009b      	lsls	r3, r3, #2
  1702fa:	6881      	ldr	r1, [r0, #8]
  1702fc:	429a      	cmp	r2, r3
  1702fe:	d105      	bne.n	17030c <update_int_value+0x3c>
  170300:	e002      	b.n	170308 <update_int_value+0x38>
  170302:	6881      	ldr	r1, [r0, #8]
  170304:	68c3      	ldr	r3, [r0, #12]
  170306:	e003      	b.n	170310 <update_int_value+0x40>
  170308:	68c3      	ldr	r3, [r0, #12]
  17030a:	e000      	b.n	17030e <update_int_value+0x3e>
  17030c:	4b3d      	ldr	r3, [pc, #244]	(170404 <update_int_value+0x134>)
  17030e:	681b      	ldr	r3, [r3, #0]
  170310:	1c1a      	adds	r2, r3, #0
  170312:	4362      	muls	r2, r4
  170314:	680b      	ldr	r3, [r1, #0]
  170316:	189b      	adds	r3, r3, r2
  170318:	600b      	str	r3, [r1, #0]
  17031a:	4b38      	ldr	r3, [pc, #224]	(1703fc <update_int_value+0x12c>)
  17031c:	6819      	ldr	r1, [r3, #0]
  17031e:	4b38      	ldr	r3, [pc, #224]	(170400 <update_int_value+0x130>)
  170320:	681a      	ldr	r2, [r3, #0]
  170322:	688b      	ldr	r3, [r1, #8]
  170324:	0112      	lsls	r2, r2, #4
  170326:	189b      	adds	r3, r3, r2
  170328:	885a      	ldrh	r2, [r3, #2]
  17032a:	6899      	ldr	r1, [r3, #8]
  17032c:	06d3      	lsls	r3, r2, #27
  17032e:	d511      	bpl.n	170354 <update_int_value+0x84>
  170330:	680b      	ldr	r3, [r1, #0]
  170332:	2b00      	cmp	r3, #0
  170334:	da01      	bge.n	17033a <update_int_value+0x6a>
  170336:	2300      	movs	r3, #0
  170338:	600b      	str	r3, [r1, #0]
  17033a:	4b30      	ldr	r3, [pc, #192]	(1703fc <update_int_value+0x12c>)
  17033c:	681a      	ldr	r2, [r3, #0]
  17033e:	4b30      	ldr	r3, [pc, #192]	(170400 <update_int_value+0x130>)
  170340:	6892      	ldr	r2, [r2, #8]
  170342:	681b      	ldr	r3, [r3, #0]
  170344:	011b      	lsls	r3, r3, #4
  170346:	18d2      	adds	r2, r2, r3
  170348:	8853      	ldrh	r3, [r2, #2]
  17034a:	0699      	lsls	r1, r3, #26
  17034c:	d519      	bpl.n	170382 <update_int_value+0xb2>
  17034e:	6891      	ldr	r1, [r2, #8]
  170350:	8992      	ldrh	r2, [r2, #12]
  170352:	e012      	b.n	17037a <update_int_value+0xaa>
  170354:	4a2c      	ldr	r2, [pc, #176]	(170408 <update_int_value+0x138>)
  170356:	680b      	ldr	r3, [r1, #0]
  170358:	4293      	cmp	r3, r2
  17035a:	da00      	bge.n	17035e <update_int_value+0x8e>
  17035c:	600a      	str	r2, [r1, #0]
  17035e:	4b27      	ldr	r3, [pc, #156]	(1703fc <update_int_value+0x12c>)
  170360:	681a      	ldr	r2, [r3, #0]
  170362:	4b27      	ldr	r3, [pc, #156]	(170400 <update_int_value+0x130>)
  170364:	6892      	ldr	r2, [r2, #8]
  170366:	681b      	ldr	r3, [r3, #0]
  170368:	011b      	lsls	r3, r3, #4
  17036a:	18d2      	adds	r2, r2, r3
  17036c:	8853      	ldrh	r3, [r2, #2]
  17036e:	0699      	lsls	r1, r3, #26
  170370:	d507      	bpl.n	170382 <update_int_value+0xb2>
  170372:	68d3      	ldr	r3, [r2, #12]
  170374:	6891      	ldr	r1, [r2, #8]
  170376:	041b      	lsls	r3, r3, #16
  170378:	141a      	asrs	r2, r3, #16
  17037a:	680b      	ldr	r3, [r1, #0]
  17037c:	4293      	cmp	r3, r2
  17037e:	da00      	bge.n	170382 <update_int_value+0xb2>
  170380:	600a      	str	r2, [r1, #0]
  170382:	4b1e      	ldr	r3, [pc, #120]	(1703fc <update_int_value+0x12c>)
  170384:	4921      	ldr	r1, [pc, #132]	(17040c <update_int_value+0x13c>)
  170386:	681a      	ldr	r2, [r3, #0]
  170388:	4b1d      	ldr	r3, [pc, #116]	(170400 <update_int_value+0x130>)
  17038a:	6892      	ldr	r2, [r2, #8]
  17038c:	681b      	ldr	r3, [r3, #0]
  17038e:	011b      	lsls	r3, r3, #4
  170390:	18d2      	adds	r2, r2, r3
  170392:	6892      	ldr	r2, [r2, #8]
  170394:	6813      	ldr	r3, [r2, #0]
  170396:	428b      	cmp	r3, r1
  170398:	dd00      	ble.n	17039c <update_int_value+0xcc>
  17039a:	6011      	str	r1, [r2, #0]
  17039c:	4b17      	ldr	r3, [pc, #92]	(1703fc <update_int_value+0x12c>)
  17039e:	681a      	ldr	r2, [r3, #0]
  1703a0:	4b17      	ldr	r3, [pc, #92]	(170400 <update_int_value+0x130>)
  1703a2:	6892      	ldr	r2, [r2, #8]
  1703a4:	681b      	ldr	r3, [r3, #0]
  1703a6:	011b      	lsls	r3, r3, #4
  1703a8:	18d2      	adds	r2, r2, r3
  1703aa:	8853      	ldrh	r3, [r2, #2]
  1703ac:	06d9      	lsls	r1, r3, #27
  1703ae:	d504      	bpl.n	1703ba <update_int_value+0xea>
  1703b0:	0659      	lsls	r1, r3, #25
  1703b2:	d50c      	bpl.n	1703ce <update_int_value+0xfe>
  1703b4:	6891      	ldr	r1, [r2, #8]
  1703b6:	89d2      	ldrh	r2, [r2, #14]
  1703b8:	e005      	b.n	1703c6 <update_int_value+0xf6>
  1703ba:	0659      	lsls	r1, r3, #25
  1703bc:	d507      	bpl.n	1703ce <update_int_value+0xfe>
  1703be:	89d3      	ldrh	r3, [r2, #14]
  1703c0:	6891      	ldr	r1, [r2, #8]
  1703c2:	041b      	lsls	r3, r3, #16
  1703c4:	141a      	asrs	r2, r3, #16
  1703c6:	680b      	ldr	r3, [r1, #0]
  1703c8:	4293      	cmp	r3, r2
  1703ca:	dd00      	ble.n	1703ce <update_int_value+0xfe>
  1703cc:	600a      	str	r2, [r1, #0]
  1703ce:	f7ff f991 	bl	16f6f4 <do_callback>
  1703d2:	490f      	ldr	r1, [pc, #60]	(170410 <update_int_value+0x140>)
  1703d4:	680b      	ldr	r3, [r1, #0]
  1703d6:	2b00      	cmp	r3, #0
  1703d8:	d009      	beq.n	1703ee <update_int_value+0x11e>
  1703da:	4a0a      	ldr	r2, [pc, #40]	(170404 <update_int_value+0x134>)
  1703dc:	2301      	movs	r3, #1
  1703de:	6013      	str	r3, [r2, #0]
  1703e0:	2300      	movs	r3, #0
  1703e2:	600b      	str	r3, [r1, #0]
  1703e4:	4a0b      	ldr	r2, [pc, #44]	(170414 <update_int_value+0x144>)
  1703e6:	2010      	movs	r0, #16
  1703e8:	2100      	movs	r1, #0
  1703ea:	f7fe fe45 	bl	16f078 <draw_string>
  1703ee:	4a0a      	ldr	r2, [pc, #40]	(170418 <update_int_value+0x148>)
  1703f0:	2301      	movs	r3, #1
  1703f2:	6013      	str	r3, [r2, #0]
  1703f4:	bc10      	pop	{r4}
  1703f6:	bc01      	pop	{r0}
  1703f8:	4700      	bx	r0
  1703fa:	46c0      	nop			(mov r8, r8)
  1703fc:	001af7d0 	.word	0x001af7d0
  170400:	001af808 	.word	0x001af808
  170404:	001af844 	.word	0x001af844
  170408:	ffffd8f1 	.word	0xffffd8f1
  17040c:	0001869f 	.word	0x0001869f
  170410:	001af848 	.word	0x001af848
  170414:	001a88ed 	.word	0x001a88ed
  170418:	001af810 	.word	0x001af810

0017041c <gui_menu_erase_and_redraw>:
  17041c:	b500      	push	{lr}
  17041e:	4a04      	ldr	r2, [pc, #16]	(170430 <gui_menu_erase_and_redraw+0x14>)
  170420:	2302      	movs	r3, #2
  170422:	6013      	str	r3, [r2, #0]
  170424:	f7ff f8fa 	bl	16f61c <draw_restore>
  170428:	f002 fe06 	bl	173038 <gui_force_restore>
  17042c:	bc01      	pop	{r0}
  17042e:	4700      	bx	r0
  170430:	001af810 	.word	0x001af810

00170434 <select_sub_menu>:
  170434:	b5f0      	push	{r4, r5, r6, r7, lr}
  170436:	4b23      	ldr	r3, [pc, #140]	(1704c4 <select_sub_menu+0x90>)
  170438:	4f23      	ldr	r7, [pc, #140]	(1704c8 <select_sub_menu+0x94>)
  17043a:	681e      	ldr	r6, [r3, #0]
  17043c:	683c      	ldr	r4, [r7, #0]
  17043e:	0073      	lsls	r3, r6, #1
  170440:	4a22      	ldr	r2, [pc, #136]	(1704cc <select_sub_menu+0x98>)
  170442:	199b      	adds	r3, r3, r6
  170444:	0099      	lsls	r1, r3, #2
  170446:	4d22      	ldr	r5, [pc, #136]	(1704d0 <select_sub_menu+0x9c>)
  170448:	508c      	str	r4, [r1, r2]
  17044a:	6828      	ldr	r0, [r5, #0]
  17044c:	3301      	adds	r3, #1
  17044e:	009b      	lsls	r3, r3, #2
  170450:	5098      	str	r0, [r3, r2]
  170452:	4b20      	ldr	r3, [pc, #128]	(1704d4 <select_sub_menu+0xa0>)
  170454:	1852      	adds	r2, r2, r1
  170456:	681b      	ldr	r3, [r3, #0]
  170458:	0100      	lsls	r0, r0, #4
  17045a:	6093      	str	r3, [r2, #8]
  17045c:	4a1e      	ldr	r2, [pc, #120]	(1704d8 <select_sub_menu+0xa4>)
  17045e:	2393      	movs	r3, #147
  170460:	009b      	lsls	r3, r3, #2
  170462:	58d3      	ldr	r3, [r2, r3]
  170464:	68a2      	ldr	r2, [r4, #8]
  170466:	2b00      	cmp	r3, #0
  170468:	d013      	beq.n	170492 <select_sub_menu+0x5e>
  17046a:	1813      	adds	r3, r2, r0
  17046c:	6898      	ldr	r0, [r3, #8]
  17046e:	2100      	movs	r1, #0
  170470:	2200      	movs	r2, #0
  170472:	f7ff f923 	bl	16f6bc <gui_menu_set_curr_menu>
  170476:	683b      	ldr	r3, [r7, #0]
  170478:	6829      	ldr	r1, [r5, #0]
  17047a:	689b      	ldr	r3, [r3, #8]
  17047c:	010a      	lsls	r2, r1, #4
  17047e:	189b      	adds	r3, r3, r2
  170480:	885b      	ldrh	r3, [r3, #2]
  170482:	220f      	movs	r2, #15
  170484:	4013      	ands	r3, r2
  170486:	3b06      	subs	r3, #6
  170488:	2b01      	cmp	r3, #1
  17048a:	d809      	bhi.n	1704a0 <select_sub_menu+0x6c>
  17048c:	1c4b      	adds	r3, r1, #1
  17048e:	602b      	str	r3, [r5, #0]
  170490:	e006      	b.n	1704a0 <select_sub_menu+0x6c>
  170492:	1813      	adds	r3, r2, r0
  170494:	2201      	movs	r2, #1
  170496:	6898      	ldr	r0, [r3, #8]
  170498:	2100      	movs	r1, #0
  17049a:	4252      	negs	r2, r2
  17049c:	f7ff f90e 	bl	16f6bc <gui_menu_set_curr_menu>
  1704a0:	4c08      	ldr	r4, [pc, #32]	(1704c4 <select_sub_menu+0x90>)
  1704a2:	1c73      	adds	r3, r6, #1
  1704a4:	6023      	str	r3, [r4, #0]
  1704a6:	2b04      	cmp	r3, #4
  1704a8:	d907      	bls.n	1704ba <select_sub_menu+0x86>
  1704aa:	4b0c      	ldr	r3, [pc, #48]	(1704dc <select_sub_menu+0xa8>)
  1704ac:	4a0c      	ldr	r2, [pc, #48]	(1704e0 <select_sub_menu+0xac>)
  1704ae:	2000      	movs	r0, #0
  1704b0:	2100      	movs	r1, #0
  1704b2:	f7fe fe6f 	bl	16f194 <draw_txt_string>
  1704b6:	2300      	movs	r3, #0
  1704b8:	6023      	str	r3, [r4, #0]
  1704ba:	f7ff ffaf 	bl	17041c <gui_menu_erase_and_redraw>
  1704be:	bcf0      	pop	{r4, r5, r6, r7}
  1704c0:	bc01      	pop	{r0}
  1704c2:	4700      	bx	r0
  1704c4:	001af804 	.word	0x001af804
  1704c8:	001af7d0 	.word	0x001af7d0
  1704cc:	001af7d4 	.word	0x001af7d4
  1704d0:	001af808 	.word	0x001af808
  1704d4:	001af80c 	.word	0x001af80c
  1704d8:	001ba558 	.word	0x001ba558
  1704dc:	0000b3bd 	.word	0x0000b3bd
  1704e0:	001a7a33 	.word	0x001a7a33

001704e4 <gui_menu_back>:
  1704e4:	b510      	push	{r4, lr}
  1704e6:	4b0b      	ldr	r3, [pc, #44]	(170514 <gui_menu_back+0x30>)
  1704e8:	681a      	ldr	r2, [r3, #0]
  1704ea:	2a00      	cmp	r2, #0
  1704ec:	d00f      	beq.n	17050e <gui_menu_back+0x2a>
  1704ee:	3a01      	subs	r2, #1
  1704f0:	601a      	str	r2, [r3, #0]
  1704f2:	0053      	lsls	r3, r2, #1
  1704f4:	4c08      	ldr	r4, [pc, #32]	(170518 <gui_menu_back+0x34>)
  1704f6:	189b      	adds	r3, r3, r2
  1704f8:	009a      	lsls	r2, r3, #2
  1704fa:	3301      	adds	r3, #1
  1704fc:	5910      	ldr	r0, [r2, r4]
  1704fe:	009b      	lsls	r3, r3, #2
  170500:	18a2      	adds	r2, r4, r2
  170502:	6891      	ldr	r1, [r2, #8]
  170504:	591a      	ldr	r2, [r3, r4]
  170506:	f7ff f8d9 	bl	16f6bc <gui_menu_set_curr_menu>
  17050a:	f7ff ff87 	bl	17041c <gui_menu_erase_and_redraw>
  17050e:	bc10      	pop	{r4}
  170510:	bc01      	pop	{r0}
  170512:	4700      	bx	r0
  170514:	001af804 	.word	0x001af804
  170518:	001af7d4 	.word	0x001af7d4

0017051c <gui_menu_kbd_process>:
  17051c:	b530      	push	{r4, r5, lr}
  17051e:	b082      	sub	sp, #8
  170520:	f031 f9a8 	bl	1a1874 <__kbd_get_autoclicked_key_from_thumb>
  170524:	1c04      	adds	r4, r0, #0
  170526:	f031 f9a9 	bl	1a187c <__get_jogdial_direction_from_thumb>
  17052a:	4320      	orrs	r0, r4
  17052c:	2809      	cmp	r0, #9
  17052e:	d100      	bne.n	170532 <gui_menu_kbd_process+0x16>
  170530:	e149      	b.n	1707c6 <gui_menu_kbd_process+0x2aa>
  170532:	2809      	cmp	r0, #9
  170534:	dc13      	bgt.n	17055e <gui_menu_kbd_process+0x42>
  170536:	2803      	cmp	r0, #3
  170538:	d073      	beq.n	170622 <gui_menu_kbd_process+0x106>
  17053a:	2803      	cmp	r0, #3
  17053c:	dc05      	bgt.n	17054a <gui_menu_kbd_process+0x2e>
  17053e:	2801      	cmp	r0, #1
  170540:	d068      	beq.n	170614 <gui_menu_kbd_process+0xf8>
  170542:	2802      	cmp	r0, #2
  170544:	d000      	beq.n	170548 <gui_menu_kbd_process+0x2c>
  170546:	e18b      	b.n	170860 <gui_menu_kbd_process+0x344>
  170548:	e067      	b.n	17061a <gui_menu_kbd_process+0xfe>
  17054a:	2805      	cmp	r0, #5
  17054c:	d100      	bne.n	170550 <gui_menu_kbd_process+0x34>
  17054e:	e0a0      	b.n	170692 <gui_menu_kbd_process+0x176>
  170550:	2805      	cmp	r0, #5
  170552:	da00      	bge.n	170556 <gui_menu_kbd_process+0x3a>
  170554:	e080      	b.n	170658 <gui_menu_kbd_process+0x13c>
  170556:	2808      	cmp	r0, #8
  170558:	d000      	beq.n	17055c <gui_menu_kbd_process+0x40>
  17055a:	e181      	b.n	170860 <gui_menu_kbd_process+0x344>
  17055c:	e0f7      	b.n	17074e <gui_menu_kbd_process+0x232>
  17055e:	2864      	cmp	r0, #100
  170560:	d058      	beq.n	170614 <gui_menu_kbd_process+0xf8>
  170562:	2864      	cmp	r0, #100
  170564:	dc06      	bgt.n	170574 <gui_menu_kbd_process+0x58>
  170566:	280b      	cmp	r0, #11
  170568:	d100      	bne.n	17056c <gui_menu_kbd_process+0x50>
  17056a:	e177      	b.n	17085c <gui_menu_kbd_process+0x340>
  17056c:	280d      	cmp	r0, #13
  17056e:	d000      	beq.n	170572 <gui_menu_kbd_process+0x56>
  170570:	e176      	b.n	170860 <gui_menu_kbd_process+0x344>
  170572:	e007      	b.n	170584 <gui_menu_kbd_process+0x68>
  170574:	2866      	cmp	r0, #102
  170576:	d054      	beq.n	170622 <gui_menu_kbd_process+0x106>
  170578:	2866      	cmp	r0, #102
  17057a:	db4e      	blt.n	17061a <gui_menu_kbd_process+0xfe>
  17057c:	2867      	cmp	r0, #103
  17057e:	d000      	beq.n	170582 <gui_menu_kbd_process+0x66>
  170580:	e16e      	b.n	170860 <gui_menu_kbd_process+0x344>
  170582:	e069      	b.n	170658 <gui_menu_kbd_process+0x13c>
  170584:	4bb8      	ldr	r3, [pc, #736]	(170868 <gui_menu_kbd_process+0x34c>)
  170586:	4ab9      	ldr	r2, [pc, #740]	(17086c <gui_menu_kbd_process+0x350>)
  170588:	589b      	ldr	r3, [r3, r2]
  17058a:	2b03      	cmp	r3, #3
  17058c:	d000      	beq.n	170590 <gui_menu_kbd_process+0x74>
  17058e:	e167      	b.n	170860 <gui_menu_kbd_process+0x344>
  170590:	4db7      	ldr	r5, [pc, #732]	(170870 <gui_menu_kbd_process+0x354>)
  170592:	2296      	movs	r2, #150
  170594:	682b      	ldr	r3, [r5, #0]
  170596:	0052      	lsls	r2, r2, #1
  170598:	2002      	movs	r0, #2
  17059a:	5e19      	ldrsh	r1, [r3, r0]
  17059c:	689c      	ldr	r4, [r3, #8]
  17059e:	48b5      	ldr	r0, [pc, #724]	(170874 <gui_menu_kbd_process+0x358>)
  1705a0:	4291      	cmp	r1, r2
  1705a2:	d00c      	beq.n	1705be <gui_menu_kbd_process+0xa2>
  1705a4:	6803      	ldr	r3, [r0, #0]
  1705a6:	2201      	movs	r2, #1
  1705a8:	9000      	str	r0, [sp, #0]
  1705aa:	9201      	str	r2, [sp, #4]
  1705ac:	011b      	lsls	r3, r3, #4
  1705ae:	58e0      	ldr	r0, [r4, r3]
  1705b0:	18e3      	adds	r3, r4, r3
  1705b2:	6859      	ldr	r1, [r3, #4]
  1705b4:	689a      	ldr	r2, [r3, #8]
  1705b6:	68db      	ldr	r3, [r3, #12]
  1705b8:	f002 fb48 	bl	172c4c <mod_user_menu>
  1705bc:	e150      	b.n	170860 <gui_menu_kbd_process+0x344>
  1705be:	6803      	ldr	r3, [r0, #0]
  1705c0:	2200      	movs	r2, #0
  1705c2:	9000      	str	r0, [sp, #0]
  1705c4:	9201      	str	r2, [sp, #4]
  1705c6:	011b      	lsls	r3, r3, #4
  1705c8:	58e0      	ldr	r0, [r4, r3]
  1705ca:	18e3      	adds	r3, r4, r3
  1705cc:	6859      	ldr	r1, [r3, #4]
  1705ce:	689a      	ldr	r2, [r3, #8]
  1705d0:	68db      	ldr	r3, [r3, #12]
  1705d2:	f002 fb3b 	bl	172c4c <mod_user_menu>
  1705d6:	4ba8      	ldr	r3, [pc, #672]	(170878 <gui_menu_kbd_process+0x35c>)
  1705d8:	6819      	ldr	r1, [r3, #0]
  1705da:	2900      	cmp	r1, #0
  1705dc:	d00d      	beq.n	1705fa <gui_menu_kbd_process+0xde>
  1705de:	4ba7      	ldr	r3, [pc, #668]	(17087c <gui_menu_kbd_process+0x360>)
  1705e0:	682a      	ldr	r2, [r5, #0]
  1705e2:	681b      	ldr	r3, [r3, #0]
  1705e4:	6892      	ldr	r2, [r2, #8]
  1705e6:	18cb      	adds	r3, r1, r3
  1705e8:	3b01      	subs	r3, #1
  1705ea:	011b      	lsls	r3, r3, #4
  1705ec:	18d2      	adds	r2, r2, r3
  1705ee:	6853      	ldr	r3, [r2, #4]
  1705f0:	2b00      	cmp	r3, #0
  1705f2:	d102      	bne.n	1705fa <gui_menu_kbd_process+0xde>
  1705f4:	4aa0      	ldr	r2, [pc, #640]	(170878 <gui_menu_kbd_process+0x35c>)
  1705f6:	1e4b      	subs	r3, r1, #1
  1705f8:	6013      	str	r3, [r2, #0]
  1705fa:	4aa1      	ldr	r2, [pc, #644]	(170880 <gui_menu_kbd_process+0x364>)
  1705fc:	2302      	movs	r3, #2
  1705fe:	6013      	str	r3, [r2, #0]
  170600:	f7ff f86a 	bl	16f6d8 <gui_menu_rows>
  170604:	4b9d      	ldr	r3, [pc, #628]	(17087c <gui_menu_kbd_process+0x360>)
  170606:	681b      	ldr	r3, [r3, #0]
  170608:	4298      	cmp	r0, r3
  17060a:	db00      	blt.n	17060e <gui_menu_kbd_process+0xf2>
  17060c:	e128      	b.n	170860 <gui_menu_kbd_process+0x344>
  17060e:	f7ff f805 	bl	16f61c <draw_restore>
  170612:	e125      	b.n	170860 <gui_menu_kbd_process+0x344>
  170614:	2001      	movs	r0, #1
  170616:	4240      	negs	r0, r0
  170618:	e000      	b.n	17061c <gui_menu_kbd_process+0x100>
  17061a:	2001      	movs	r0, #1
  17061c:	f7ff fd5e 	bl	1700dc <gui_menu_updown>
  170620:	e11e      	b.n	170860 <gui_menu_kbd_process+0x344>
  170622:	4b94      	ldr	r3, [pc, #592]	(170874 <gui_menu_kbd_process+0x358>)
  170624:	681a      	ldr	r2, [r3, #0]
  170626:	2a00      	cmp	r2, #0
  170628:	da00      	bge.n	17062c <gui_menu_kbd_process+0x110>
  17062a:	e117      	b.n	17085c <gui_menu_kbd_process+0x340>
  17062c:	4b90      	ldr	r3, [pc, #576]	(170870 <gui_menu_kbd_process+0x354>)
  17062e:	0112      	lsls	r2, r2, #4
  170630:	681b      	ldr	r3, [r3, #0]
  170632:	689b      	ldr	r3, [r3, #8]
  170634:	189b      	adds	r3, r3, r2
  170636:	885b      	ldrh	r3, [r3, #2]
  170638:	220f      	movs	r2, #15
  17063a:	4013      	ands	r3, r2
  17063c:	1e5a      	subs	r2, r3, #1
  17063e:	2a0a      	cmp	r2, #10
  170640:	d900      	bls.n	170644 <gui_menu_kbd_process+0x128>
  170642:	e10d      	b.n	170860 <gui_menu_kbd_process+0x344>
  170644:	0093      	lsls	r3, r2, #2
  170646:	4a8f      	ldr	r2, [pc, #572]	(170884 <gui_menu_kbd_process+0x368>)
  170648:	58d3      	ldr	r3, [r2, r3]
  17064a:	469f      	mov	pc, r3
  17064c:	2001      	movs	r0, #1
  17064e:	4240      	negs	r0, r0
  170650:	e018      	b.n	170684 <gui_menu_kbd_process+0x168>
  170652:	2001      	movs	r0, #1
  170654:	4240      	negs	r0, r0
  170656:	e019      	b.n	17068c <gui_menu_kbd_process+0x170>
  170658:	4b86      	ldr	r3, [pc, #536]	(170874 <gui_menu_kbd_process+0x358>)
  17065a:	681a      	ldr	r2, [r3, #0]
  17065c:	2a00      	cmp	r2, #0
  17065e:	da00      	bge.n	170662 <gui_menu_kbd_process+0x146>
  170660:	e0fe      	b.n	170860 <gui_menu_kbd_process+0x344>
  170662:	4b83      	ldr	r3, [pc, #524]	(170870 <gui_menu_kbd_process+0x354>)
  170664:	0112      	lsls	r2, r2, #4
  170666:	681b      	ldr	r3, [r3, #0]
  170668:	689b      	ldr	r3, [r3, #8]
  17066a:	189b      	adds	r3, r3, r2
  17066c:	885b      	ldrh	r3, [r3, #2]
  17066e:	220f      	movs	r2, #15
  170670:	4013      	ands	r3, r2
  170672:	1e5a      	subs	r2, r3, #1
  170674:	2a0a      	cmp	r2, #10
  170676:	d900      	bls.n	17067a <gui_menu_kbd_process+0x15e>
  170678:	e0f2      	b.n	170860 <gui_menu_kbd_process+0x344>
  17067a:	0093      	lsls	r3, r2, #2
  17067c:	4a82      	ldr	r2, [pc, #520]	(170888 <gui_menu_kbd_process+0x36c>)
  17067e:	58d3      	ldr	r3, [r2, r3]
  170680:	469f      	mov	pc, r3
  170682:	2001      	movs	r0, #1
  170684:	f7ff fe24 	bl	1702d0 <update_int_value>
  170688:	e0ea      	b.n	170860 <gui_menu_kbd_process+0x344>
  17068a:	2001      	movs	r0, #1
  17068c:	f7ff fddc 	bl	170248 <update_enum_value>
  170690:	e0e6      	b.n	170860 <gui_menu_kbd_process+0x344>
  170692:	4b78      	ldr	r3, [pc, #480]	(170874 <gui_menu_kbd_process+0x358>)
  170694:	681a      	ldr	r2, [r3, #0]
  170696:	2a00      	cmp	r2, #0
  170698:	da00      	bge.n	17069c <gui_menu_kbd_process+0x180>
  17069a:	e0e1      	b.n	170860 <gui_menu_kbd_process+0x344>
  17069c:	4b74      	ldr	r3, [pc, #464]	(170870 <gui_menu_kbd_process+0x354>)
  17069e:	0112      	lsls	r2, r2, #4
  1706a0:	681b      	ldr	r3, [r3, #0]
  1706a2:	689b      	ldr	r3, [r3, #8]
  1706a4:	1899      	adds	r1, r3, r2
  1706a6:	884b      	ldrh	r3, [r1, #2]
  1706a8:	220f      	movs	r2, #15
  1706aa:	4013      	ands	r3, r2
  1706ac:	3b01      	subs	r3, #1
  1706ae:	2b0a      	cmp	r3, #10
  1706b0:	d900      	bls.n	1706b4 <gui_menu_kbd_process+0x198>
  1706b2:	e0d5      	b.n	170860 <gui_menu_kbd_process+0x344>
  1706b4:	4a75      	ldr	r2, [pc, #468]	(17088c <gui_menu_kbd_process+0x370>)
  1706b6:	009b      	lsls	r3, r3, #2
  1706b8:	58d3      	ldr	r3, [r2, r3]
  1706ba:	469f      	mov	pc, r3
  1706bc:	2006      	movs	r0, #6
  1706be:	f031 f8d5 	bl	1a186c <__kbd_is_key_pressed_from_thumb>
  1706c2:	2800      	cmp	r0, #0
  1706c4:	d100      	bne.n	1706c8 <gui_menu_kbd_process+0x1ac>
  1706c6:	e0cb      	b.n	170860 <gui_menu_kbd_process+0x344>
  1706c8:	4b69      	ldr	r3, [pc, #420]	(170870 <gui_menu_kbd_process+0x354>)
  1706ca:	681a      	ldr	r2, [r3, #0]
  1706cc:	4b69      	ldr	r3, [pc, #420]	(170874 <gui_menu_kbd_process+0x358>)
  1706ce:	6892      	ldr	r2, [r2, #8]
  1706d0:	681b      	ldr	r3, [r3, #0]
  1706d2:	011b      	lsls	r3, r3, #4
  1706d4:	18d2      	adds	r2, r2, r3
  1706d6:	6892      	ldr	r2, [r2, #8]
  1706d8:	2300      	movs	r3, #0
  1706da:	e05c      	b.n	170796 <gui_menu_kbd_process+0x27a>
  1706dc:	f7ff f82e 	bl	16f73c <update_bool_value>
  1706e0:	e0be      	b.n	170860 <gui_menu_kbd_process+0x344>
  1706e2:	688b      	ldr	r3, [r1, #8]
  1706e4:	2b00      	cmp	r3, #0
  1706e6:	d100      	bne.n	1706ea <gui_menu_kbd_process+0x1ce>
  1706e8:	e0ba      	b.n	170860 <gui_menu_kbd_process+0x344>
  1706ea:	68c8      	ldr	r0, [r1, #12]
  1706ec:	f000 f9b3 	bl	170a56 <gui_menu_init+0xf6>
  1706f0:	4b5f      	ldr	r3, [pc, #380]	(170870 <gui_menu_kbd_process+0x354>)
  1706f2:	681b      	ldr	r3, [r3, #0]
  1706f4:	685a      	ldr	r2, [r3, #4]
  1706f6:	2a00      	cmp	r2, #0
  1706f8:	d022      	beq.n	170740 <gui_menu_kbd_process+0x224>
  1706fa:	4b5e      	ldr	r3, [pc, #376]	(170874 <gui_menu_kbd_process+0x358>)
  1706fc:	6818      	ldr	r0, [r3, #0]
  1706fe:	f000 f9a9 	bl	170a54 <gui_menu_init+0xf4>
  170702:	e01d      	b.n	170740 <gui_menu_kbd_process+0x224>
  170704:	f7ff fe96 	bl	170434 <select_sub_menu>
  170708:	e0aa      	b.n	170860 <gui_menu_kbd_process+0x344>
  17070a:	f7fe ff87 	bl	16f61c <draw_restore>
  17070e:	4b58      	ldr	r3, [pc, #352]	(170870 <gui_menu_kbd_process+0x354>)
  170710:	681a      	ldr	r2, [r3, #0]
  170712:	4b58      	ldr	r3, [pc, #352]	(170874 <gui_menu_kbd_process+0x358>)
  170714:	6891      	ldr	r1, [r2, #8]
  170716:	681b      	ldr	r3, [r3, #0]
  170718:	220f      	movs	r2, #15
  17071a:	011b      	lsls	r3, r3, #4
  17071c:	18c9      	adds	r1, r1, r3
  17071e:	884b      	ldrh	r3, [r1, #2]
  170720:	4013      	ands	r3, r2
  170722:	3b09      	subs	r3, #9
  170724:	425a      	negs	r2, r3
  170726:	415a      	adcs	r2, r3
  170728:	688b      	ldr	r3, [r1, #8]
  17072a:	2001      	movs	r0, #1
  17072c:	189b      	adds	r3, r3, r2
  17072e:	4a58      	ldr	r2, [pc, #352]	(170890 <gui_menu_kbd_process+0x374>)
  170730:	6013      	str	r3, [r2, #0]
  170732:	7819      	ldrb	r1, [r3, #0]
  170734:	4a57      	ldr	r2, [pc, #348]	(170894 <gui_menu_kbd_process+0x378>)
  170736:	f000 f98f 	bl	170a58 <gui_palette_init>
  17073a:	2003      	movs	r0, #3
  17073c:	f002 fc76 	bl	17302c <gui_set_mode>
  170740:	4a4f      	ldr	r2, [pc, #316]	(170880 <gui_menu_kbd_process+0x364>)
  170742:	2302      	movs	r3, #2
  170744:	e070      	b.n	170828 <gui_menu_kbd_process+0x30c>
  170746:	2001      	movs	r0, #1
  170748:	f7ff fd7e 	bl	170248 <update_enum_value>
  17074c:	e06a      	b.n	170824 <gui_menu_kbd_process+0x308>
  17074e:	4b46      	ldr	r3, [pc, #280]	(170868 <gui_menu_kbd_process+0x34c>)
  170750:	4a46      	ldr	r2, [pc, #280]	(17086c <gui_menu_kbd_process+0x350>)
  170752:	589b      	ldr	r3, [r3, r2]
  170754:	2b03      	cmp	r3, #3
  170756:	d120      	bne.n	17079a <gui_menu_kbd_process+0x27e>
  170758:	4b45      	ldr	r3, [pc, #276]	(170870 <gui_menu_kbd_process+0x354>)
  17075a:	6819      	ldr	r1, [r3, #0]
  17075c:	2396      	movs	r3, #150
  17075e:	2402      	movs	r4, #2
  170760:	5f0a      	ldrsh	r2, [r1, r4]
  170762:	005b      	lsls	r3, r3, #1
  170764:	429a      	cmp	r2, r3
  170766:	d118      	bne.n	17079a <gui_menu_kbd_process+0x27e>
  170768:	4d42      	ldr	r5, [pc, #264]	(170874 <gui_menu_kbd_process+0x358>)
  17076a:	688c      	ldr	r4, [r1, #8]
  17076c:	682a      	ldr	r2, [r5, #0]
  17076e:	2302      	movs	r3, #2
  170770:	9500      	str	r5, [sp, #0]
  170772:	9301      	str	r3, [sp, #4]
  170774:	0112      	lsls	r2, r2, #4
  170776:	5910      	ldr	r0, [r2, r4]
  170778:	18a4      	adds	r4, r4, r2
  17077a:	68e3      	ldr	r3, [r4, #12]
  17077c:	6861      	ldr	r1, [r4, #4]
  17077e:	68a2      	ldr	r2, [r4, #8]
  170780:	f002 fa64 	bl	172c4c <mod_user_menu>
  170784:	4b3c      	ldr	r3, [pc, #240]	(170878 <gui_menu_kbd_process+0x35c>)
  170786:	682d      	ldr	r5, [r5, #0]
  170788:	681b      	ldr	r3, [r3, #0]
  17078a:	42ab      	cmp	r3, r5
  17078c:	db4a      	blt.n	170824 <gui_menu_kbd_process+0x308>
  17078e:	2d00      	cmp	r5, #0
  170790:	d048      	beq.n	170824 <gui_menu_kbd_process+0x308>
  170792:	4a39      	ldr	r2, [pc, #228]	(170878 <gui_menu_kbd_process+0x35c>)
  170794:	1e6b      	subs	r3, r5, #1
  170796:	6013      	str	r3, [r2, #0]
  170798:	e044      	b.n	170824 <gui_menu_kbd_process+0x308>
  17079a:	4c3f      	ldr	r4, [pc, #252]	(170898 <gui_menu_kbd_process+0x37c>)
  17079c:	6820      	ldr	r0, [r4, #0]
  17079e:	2809      	cmp	r0, #9
  1707a0:	dd03      	ble.n	1707aa <gui_menu_kbd_process+0x28e>
  1707a2:	210a      	movs	r1, #10
  1707a4:	f02f fdde 	bl	1a0364 <__aeabi_idiv>
  1707a8:	6020      	str	r0, [r4, #0]
  1707aa:	4c3c      	ldr	r4, [pc, #240]	(17089c <gui_menu_kbd_process+0x380>)
  1707ac:	4b3a      	ldr	r3, [pc, #232]	(170898 <gui_menu_kbd_process+0x37c>)
  1707ae:	493c      	ldr	r1, [pc, #240]	(1708a0 <gui_menu_kbd_process+0x384>)
  1707b0:	681a      	ldr	r2, [r3, #0]
  1707b2:	1c20      	adds	r0, r4, #0
  1707b4:	f031 f826 	bl	1a1804 <__sprintf_from_thumb>
  1707b8:	4a3a      	ldr	r2, [pc, #232]	(1708a4 <gui_menu_kbd_process+0x388>)
  1707ba:	2010      	movs	r0, #16
  1707bc:	2100      	movs	r1, #0
  1707be:	2300      	movs	r3, #0
  1707c0:	f7fe fc5a 	bl	16f078 <draw_string>
  1707c4:	e043      	b.n	17084e <gui_menu_kbd_process+0x332>
  1707c6:	4a28      	ldr	r2, [pc, #160]	(170868 <gui_menu_kbd_process+0x34c>)
  1707c8:	4b28      	ldr	r3, [pc, #160]	(17086c <gui_menu_kbd_process+0x350>)
  1707ca:	58d0      	ldr	r0, [r2, r3]
  1707cc:	2803      	cmp	r0, #3
  1707ce:	d12d      	bne.n	17082c <gui_menu_kbd_process+0x310>
  1707d0:	4d27      	ldr	r5, [pc, #156]	(170870 <gui_menu_kbd_process+0x354>)
  1707d2:	2396      	movs	r3, #150
  1707d4:	6829      	ldr	r1, [r5, #0]
  1707d6:	005b      	lsls	r3, r3, #1
  1707d8:	2402      	movs	r4, #2
  1707da:	5f0a      	ldrsh	r2, [r1, r4]
  1707dc:	429a      	cmp	r2, r3
  1707de:	d125      	bne.n	17082c <gui_menu_kbd_process+0x310>
  1707e0:	4c24      	ldr	r4, [pc, #144]	(170874 <gui_menu_kbd_process+0x358>)
  1707e2:	688b      	ldr	r3, [r1, #8]
  1707e4:	6822      	ldr	r2, [r4, #0]
  1707e6:	9400      	str	r4, [sp, #0]
  1707e8:	9001      	str	r0, [sp, #4]
  1707ea:	0112      	lsls	r2, r2, #4
  1707ec:	58d0      	ldr	r0, [r2, r3]
  1707ee:	189b      	adds	r3, r3, r2
  1707f0:	6859      	ldr	r1, [r3, #4]
  1707f2:	689a      	ldr	r2, [r3, #8]
  1707f4:	68db      	ldr	r3, [r3, #12]
  1707f6:	f002 fa29 	bl	172c4c <mod_user_menu>
  1707fa:	481f      	ldr	r0, [pc, #124]	(170878 <gui_menu_kbd_process+0x35c>)
  1707fc:	4b1f      	ldr	r3, [pc, #124]	(17087c <gui_menu_kbd_process+0x360>)
  1707fe:	6801      	ldr	r1, [r0, #0]
  170800:	681b      	ldr	r3, [r3, #0]
  170802:	6824      	ldr	r4, [r4, #0]
  170804:	18cb      	adds	r3, r1, r3
  170806:	3b01      	subs	r3, #1
  170808:	42a3      	cmp	r3, r4
  17080a:	dc0b      	bgt.n	170824 <gui_menu_kbd_process+0x308>
  17080c:	2c0d      	cmp	r4, #13
  17080e:	dc09      	bgt.n	170824 <gui_menu_kbd_process+0x308>
  170810:	682a      	ldr	r2, [r5, #0]
  170812:	1c63      	adds	r3, r4, #1
  170814:	6892      	ldr	r2, [r2, #8]
  170816:	011b      	lsls	r3, r3, #4
  170818:	18d2      	adds	r2, r2, r3
  17081a:	6853      	ldr	r3, [r2, #4]
  17081c:	2b00      	cmp	r3, #0
  17081e:	d001      	beq.n	170824 <gui_menu_kbd_process+0x308>
  170820:	1c4b      	adds	r3, r1, #1
  170822:	6003      	str	r3, [r0, #0]
  170824:	4a16      	ldr	r2, [pc, #88]	(170880 <gui_menu_kbd_process+0x364>)
  170826:	2301      	movs	r3, #1
  170828:	6013      	str	r3, [r2, #0]
  17082a:	e019      	b.n	170860 <gui_menu_kbd_process+0x344>
  17082c:	491a      	ldr	r1, [pc, #104]	(170898 <gui_menu_kbd_process+0x37c>)
  17082e:	23fa      	movs	r3, #250
  170830:	680a      	ldr	r2, [r1, #0]
  170832:	009b      	lsls	r3, r3, #2
  170834:	429a      	cmp	r2, r3
  170836:	dc03      	bgt.n	170840 <gui_menu_kbd_process+0x324>
  170838:	0093      	lsls	r3, r2, #2
  17083a:	189b      	adds	r3, r3, r2
  17083c:	005b      	lsls	r3, r3, #1
  17083e:	600b      	str	r3, [r1, #0]
  170840:	4c16      	ldr	r4, [pc, #88]	(17089c <gui_menu_kbd_process+0x380>)
  170842:	4b15      	ldr	r3, [pc, #84]	(170898 <gui_menu_kbd_process+0x37c>)
  170844:	4916      	ldr	r1, [pc, #88]	(1708a0 <gui_menu_kbd_process+0x384>)
  170846:	681a      	ldr	r2, [r3, #0]
  170848:	1c20      	adds	r0, r4, #0
  17084a:	f030 ffdb 	bl	1a1804 <__sprintf_from_thumb>
  17084e:	2000      	movs	r0, #0
  170850:	2100      	movs	r1, #0
  170852:	1c22      	adds	r2, r4, #0
  170854:	4b14      	ldr	r3, [pc, #80]	(1708a8 <gui_menu_kbd_process+0x38c>)
  170856:	f7fe fc0f 	bl	16f078 <draw_string>
  17085a:	e001      	b.n	170860 <gui_menu_kbd_process+0x344>
  17085c:	f7ff fe42 	bl	1704e4 <gui_menu_back>
  170860:	b002      	add	sp, #8
  170862:	bc30      	pop	{r4, r5}
  170864:	bc01      	pop	{r0}
  170866:	4700      	bx	r0
  170868:	001ba558 	.word	0x001ba558
  17086c:	00000614 	.word	0x00000614
  170870:	001af7d0 	.word	0x001af7d0
  170874:	001af808 	.word	0x001af808
  170878:	001af80c 	.word	0x001af80c
  17087c:	001af824 	.word	0x001af824
  170880:	001af810 	.word	0x001af810
  170884:	001a20a8 	.word	0x001a20a8
  170888:	001a20d4 	.word	0x001a20d4
  17088c:	001a2100 	.word	0x001a2100
  170890:	001af84c 	.word	0x001af84c
  170894:	001708ad 	.word	0x001708ad
  170898:	001af844 	.word	0x001af844
  17089c:	001af7c8 	.word	0x001af7c8
  1708a0:	001a7a36 	.word	0x001a7a36
  1708a4:	001a88ed 	.word	0x001a88ed
  1708a8:	00000eff 	.word	0x00000eff

001708ac <gui_menu_color_selected>:
  1708ac:	b500      	push	{lr}
  1708ae:	4b03      	ldr	r3, [pc, #12]	(1708bc <gui_menu_color_selected+0x10>)
  1708b0:	681b      	ldr	r3, [r3, #0]
  1708b2:	7018      	strb	r0, [r3, #0]
  1708b4:	f7ff fdb2 	bl	17041c <gui_menu_erase_and_redraw>
  1708b8:	bc01      	pop	{r0}
  1708ba:	4700      	bx	r0
  1708bc:	001af84c 	.word	0x001af84c

001708c0 <gui_enter_submenu>:
  1708c0:	b530      	push	{r4, r5, lr}
  1708c2:	4d19      	ldr	r5, [pc, #100]	(170928 <gui_enter_submenu+0x68>)
  1708c4:	4b19      	ldr	r3, [pc, #100]	(17092c <gui_enter_submenu+0x6c>)
  1708c6:	682a      	ldr	r2, [r5, #0]
  1708c8:	681c      	ldr	r4, [r3, #0]
  1708ca:	0053      	lsls	r3, r2, #1
  1708cc:	4918      	ldr	r1, [pc, #96]	(170930 <gui_enter_submenu+0x70>)
  1708ce:	189b      	adds	r3, r3, r2
  1708d0:	0098      	lsls	r0, r3, #2
  1708d2:	4a18      	ldr	r2, [pc, #96]	(170934 <gui_enter_submenu+0x74>)
  1708d4:	5044      	str	r4, [r0, r1]
  1708d6:	6812      	ldr	r2, [r2, #0]
  1708d8:	3301      	adds	r3, #1
  1708da:	009b      	lsls	r3, r3, #2
  1708dc:	505a      	str	r2, [r3, r1]
  1708de:	4b16      	ldr	r3, [pc, #88]	(170938 <gui_enter_submenu+0x78>)
  1708e0:	1809      	adds	r1, r1, r0
  1708e2:	681b      	ldr	r3, [r3, #0]
  1708e4:	0112      	lsls	r2, r2, #4
  1708e6:	608b      	str	r3, [r1, #8]
  1708e8:	68a3      	ldr	r3, [r4, #8]
  1708ea:	2100      	movs	r1, #0
  1708ec:	189b      	adds	r3, r3, r2
  1708ee:	2201      	movs	r2, #1
  1708f0:	6898      	ldr	r0, [r3, #8]
  1708f2:	4252      	negs	r2, r2
  1708f4:	f7fe fee2 	bl	16f6bc <gui_menu_set_curr_menu>
  1708f8:	682b      	ldr	r3, [r5, #0]
  1708fa:	3301      	adds	r3, #1
  1708fc:	602b      	str	r3, [r5, #0]
  1708fe:	2b04      	cmp	r3, #4
  170900:	d907      	bls.n	170912 <gui_enter_submenu+0x52>
  170902:	4b0e      	ldr	r3, [pc, #56]	(17093c <gui_enter_submenu+0x7c>)
  170904:	4a0e      	ldr	r2, [pc, #56]	(170940 <gui_enter_submenu+0x80>)
  170906:	2000      	movs	r0, #0
  170908:	2100      	movs	r1, #0
  17090a:	f7fe fc43 	bl	16f194 <draw_txt_string>
  17090e:	2300      	movs	r3, #0
  170910:	602b      	str	r3, [r5, #0]
  170912:	4a0c      	ldr	r2, [pc, #48]	(170944 <gui_enter_submenu+0x84>)
  170914:	2302      	movs	r3, #2
  170916:	6013      	str	r3, [r2, #0]
  170918:	f7fe fe80 	bl	16f61c <draw_restore>
  17091c:	f002 fb8c 	bl	173038 <gui_force_restore>
  170920:	bc30      	pop	{r4, r5}
  170922:	bc01      	pop	{r0}
  170924:	4700      	bx	r0
  170926:	46c0      	nop			(mov r8, r8)
  170928:	001af804 	.word	0x001af804
  17092c:	001af7d0 	.word	0x001af7d0
  170930:	001af7d4 	.word	0x001af7d4
  170934:	001af808 	.word	0x001af808
  170938:	001af80c 	.word	0x001af80c
  17093c:	0000b3bd 	.word	0x0000b3bd
  170940:	001a7a33 	.word	0x001a7a33
  170944:	001af810 	.word	0x001af810

00170948 <gui_menu_force_redraw>:
  170948:	b500      	push	{lr}
  17094a:	f002 fb69 	bl	173020 <gui_get_mode>
  17094e:	2802      	cmp	r0, #2
  170950:	d101      	bne.n	170956 <gui_menu_force_redraw+0xe>
  170952:	4b02      	ldr	r3, [pc, #8]	(17095c <gui_menu_force_redraw+0x14>)
  170954:	6018      	str	r0, [r3, #0]
  170956:	bc01      	pop	{r0}
  170958:	4700      	bx	r0
  17095a:	46c0      	nop			(mov r8, r8)
  17095c:	001af810 	.word	0x001af810

00170960 <gui_menu_init>:
  170960:	b530      	push	{r4, r5, lr}
  170962:	2800      	cmp	r0, #0
  170964:	d010      	beq.n	170988 <gui_menu_init+0x28>
  170966:	4b28      	ldr	r3, [pc, #160]	(170a08 <gui_menu_init+0xa8>)
  170968:	2293      	movs	r2, #147
  17096a:	0092      	lsls	r2, r2, #2
  17096c:	589b      	ldr	r3, [r3, r2]
  17096e:	2b00      	cmp	r3, #0
  170970:	d002      	beq.n	170978 <gui_menu_init+0x18>
  170972:	2100      	movs	r1, #0
  170974:	2200      	movs	r2, #0
  170976:	e002      	b.n	17097e <gui_menu_init+0x1e>
  170978:	2201      	movs	r2, #1
  17097a:	2100      	movs	r1, #0
  17097c:	4252      	negs	r2, r2
  17097e:	f7fe fe9d 	bl	16f6bc <gui_menu_set_curr_menu>
  170982:	4a22      	ldr	r2, [pc, #136]	(170a0c <gui_menu_init+0xac>)
  170984:	2300      	movs	r3, #0
  170986:	6013      	str	r3, [r2, #0]
  170988:	4b21      	ldr	r3, [pc, #132]	(170a10 <gui_menu_init+0xb0>)
  17098a:	681c      	ldr	r4, [r3, #0]
  17098c:	f01e fd3e 	bl	18f40c <rbf_font_height>
  170990:	1c01      	adds	r1, r0, #0
  170992:	1c20      	adds	r0, r4, #0
  170994:	f02f fca0 	bl	1a02d8 <__aeabi_uidiv>
  170998:	4a1e      	ldr	r2, [pc, #120]	(170a14 <gui_menu_init+0xb4>)
  17099a:	230a      	movs	r3, #10
  17099c:	6013      	str	r3, [r2, #0]
  17099e:	4b1e      	ldr	r3, [pc, #120]	(170a18 <gui_menu_init+0xb8>)
  1709a0:	4a1e      	ldr	r2, [pc, #120]	(170a1c <gui_menu_init+0xbc>)
  1709a2:	681b      	ldr	r3, [r3, #0]
  1709a4:	4d1e      	ldr	r5, [pc, #120]	(170a20 <gui_menu_init+0xc0>)
  1709a6:	3b14      	subs	r3, #20
  1709a8:	3801      	subs	r0, #1
  1709aa:	6013      	str	r3, [r2, #0]
  1709ac:	6028      	str	r0, [r5, #0]
  1709ae:	481d      	ldr	r0, [pc, #116]	(170a24 <gui_menu_init+0xc4>)
  1709b0:	f01e fd4c 	bl	18f44c <rbf_str_width>
  1709b4:	4b1c      	ldr	r3, [pc, #112]	(170a28 <gui_menu_init+0xc8>)
  1709b6:	6018      	str	r0, [r3, #0]
  1709b8:	481c      	ldr	r0, [pc, #112]	(170a2c <gui_menu_init+0xcc>)
  1709ba:	f01e fd47 	bl	18f44c <rbf_str_width>
  1709be:	4b1c      	ldr	r3, [pc, #112]	(170a30 <gui_menu_init+0xd0>)
  1709c0:	6018      	str	r0, [r3, #0]
  1709c2:	481c      	ldr	r0, [pc, #112]	(170a34 <gui_menu_init+0xd4>)
  1709c4:	f01e fd42 	bl	18f44c <rbf_str_width>
  1709c8:	4b1b      	ldr	r3, [pc, #108]	(170a38 <gui_menu_init+0xd8>)
  1709ca:	6018      	str	r0, [r3, #0]
  1709cc:	2020      	movs	r0, #32
  1709ce:	f01e fd29 	bl	18f424 <rbf_char_width>
  1709d2:	4b1a      	ldr	r3, [pc, #104]	(170a3c <gui_menu_init+0xdc>)
  1709d4:	6018      	str	r0, [r3, #0]
  1709d6:	205b      	movs	r0, #91
  1709d8:	f01e fd24 	bl	18f424 <rbf_char_width>
  1709dc:	4b18      	ldr	r3, [pc, #96]	(170a40 <gui_menu_init+0xe0>)
  1709de:	6018      	str	r0, [r3, #0]
  1709e0:	205d      	movs	r0, #93
  1709e2:	f01e fd1f 	bl	18f424 <rbf_char_width>
  1709e6:	4b17      	ldr	r3, [pc, #92]	(170a44 <gui_menu_init+0xe4>)
  1709e8:	6018      	str	r0, [r3, #0]
  1709ea:	f01e fd0f 	bl	18f40c <rbf_font_height>
  1709ee:	4b16      	ldr	r3, [pc, #88]	(170a48 <gui_menu_init+0xe8>)
  1709f0:	4a16      	ldr	r2, [pc, #88]	(170a4c <gui_menu_init+0xec>)
  1709f2:	3804      	subs	r0, #4
  1709f4:	6018      	str	r0, [r3, #0]
  1709f6:	2301      	movs	r3, #1
  1709f8:	6013      	str	r3, [r2, #0]
  1709fa:	4a15      	ldr	r2, [pc, #84]	(170a50 <gui_menu_init+0xf0>)
  1709fc:	2302      	movs	r3, #2
  1709fe:	6013      	str	r3, [r2, #0]
  170a00:	bc30      	pop	{r4, r5}
  170a02:	bc01      	pop	{r0}
  170a04:	4700      	bx	r0
  170a06:	46c0      	nop			(mov r8, r8)
  170a08:	001ba558 	.word	0x001ba558
  170a0c:	001af804 	.word	0x001af804
  170a10:	001af75c 	.word	0x001af75c
  170a14:	001af818 	.word	0x001af818
  170a18:	001af758 	.word	0x001af758
  170a1c:	001af820 	.word	0x001af820
  170a20:	001af824 	.word	0x001af824
  170a24:	001a7a29 	.word	0x001a7a29
  170a28:	001af828 	.word	0x001af828
  170a2c:	001a7a3a 	.word	0x001a7a3a
  170a30:	001af82c 	.word	0x001af82c
  170a34:	001a7a40 	.word	0x001a7a40
  170a38:	001af830 	.word	0x001af830
  170a3c:	001af834 	.word	0x001af834
  170a40:	001af838 	.word	0x001af838
  170a44:	001af83c 	.word	0x001af83c
  170a48:	001af840 	.word	0x001af840
  170a4c:	001af844 	.word	0x001af844
  170a50:	001af810 	.word	0x001af810
  170a54:	4710      	bx	r2
  170a56:	4718      	bx	r3

00170a58 <gui_palette_init>:
  170a58:	4b04      	ldr	r3, [pc, #16]	(170a6c <gui_palette_init+0x14>)
  170a5a:	8019      	strh	r1, [r3, #0]
  170a5c:	4b04      	ldr	r3, [pc, #16]	(170a70 <gui_palette_init+0x18>)
  170a5e:	6018      	str	r0, [r3, #0]
  170a60:	4b04      	ldr	r3, [pc, #16]	(170a74 <gui_palette_init+0x1c>)
  170a62:	601a      	str	r2, [r3, #0]
  170a64:	4a04      	ldr	r2, [pc, #16]	(170a78 <gui_palette_init+0x20>)
  170a66:	2301      	movs	r3, #1
  170a68:	6013      	str	r3, [r2, #0]
  170a6a:	4770      	bx	lr
  170a6c:	001af8a4 	.word	0x001af8a4
  170a70:	001af8a8 	.word	0x001af8a8
  170a74:	001af8ac 	.word	0x001af8ac
  170a78:	001af8b0 	.word	0x001af8b0

00170a7c <gui_palette_draw>:
  170a7c:	b5f0      	push	{r4, r5, r6, r7, lr}
  170a7e:	4b45      	ldr	r3, [pc, #276]	(170b94 <gui_palette_draw+0x118>)
  170a80:	b084      	sub	sp, #16
  170a82:	681b      	ldr	r3, [r3, #0]
  170a84:	9302      	str	r3, [sp, #8]
  170a86:	4b44      	ldr	r3, [pc, #272]	(170b98 <gui_palette_draw+0x11c>)
  170a88:	681b      	ldr	r3, [r3, #0]
  170a8a:	2b00      	cmp	r3, #0
  170a8c:	d07e      	beq.n	170b8c <gui_palette_draw+0x110>
  170a8e:	9802      	ldr	r0, [sp, #8]
  170a90:	4a42      	ldr	r2, [pc, #264]	(170b9c <gui_palette_draw+0x120>)
  170a92:	2100      	movs	r1, #0
  170a94:	4b42      	ldr	r3, [pc, #264]	(170ba0 <gui_palette_draw+0x124>)
  170a96:	38e8      	subs	r0, #232
  170a98:	f7fe faee 	bl	16f078 <draw_string>
  170a9c:	2096      	movs	r0, #150
  170a9e:	f021 f8cf 	bl	191c40 <lang_str>
  170aa2:	4c40      	ldr	r4, [pc, #256]	(170ba4 <gui_palette_draw+0x128>)
  170aa4:	4b40      	ldr	r3, [pc, #256]	(170ba8 <gui_palette_draw+0x12c>)
  170aa6:	1c02      	adds	r2, r0, #0
  170aa8:	4940      	ldr	r1, [pc, #256]	(170bac <gui_palette_draw+0x130>)
  170aaa:	781b      	ldrb	r3, [r3, #0]
  170aac:	1c20      	adds	r0, r4, #0
  170aae:	f030 fea9 	bl	1a1804 <__sprintf_from_thumb>
  170ab2:	2100      	movs	r1, #0
  170ab4:	2000      	movs	r0, #0
  170ab6:	1c22      	adds	r2, r4, #0
  170ab8:	4b39      	ldr	r3, [pc, #228]	(170ba0 <gui_palette_draw+0x124>)
  170aba:	f7fe fadd 	bl	16f078 <draw_string>
  170abe:	21ff      	movs	r1, #255
  170ac0:	9103      	str	r1, [sp, #12]
  170ac2:	2618      	movs	r6, #24
  170ac4:	e019      	b.n	170afa <gui_palette_draw+0x7e>
  170ac6:	1c20      	adds	r0, r4, #0
  170ac8:	1c04      	adds	r4, r0, #0
  170aca:	340d      	adds	r4, #13
  170acc:	1c22      	adds	r2, r4, #0
  170ace:	1c3b      	adds	r3, r7, #0
  170ad0:	1c31      	adds	r1, r6, #0
  170ad2:	9500      	str	r5, [sp, #0]
  170ad4:	f7fe fa60 	bl	16ef98 <draw_filled_rect>
  170ad8:	2280      	movs	r2, #128
  170ada:	0052      	lsls	r2, r2, #1
  170adc:	18ab      	adds	r3, r5, r2
  170ade:	041b      	lsls	r3, r3, #16
  170ae0:	0c1d      	lsrs	r5, r3, #16
  170ae2:	2cd8      	cmp	r4, #216
  170ae4:	d1ef      	bne.n	170ac6 <gui_palette_draw+0x4a>
  170ae6:	9903      	ldr	r1, [sp, #12]
  170ae8:	2280      	movs	r2, #128
  170aea:	0152      	lsls	r2, r2, #5
  170aec:	188b      	adds	r3, r1, r2
  170aee:	041b      	lsls	r3, r3, #16
  170af0:	0c1b      	lsrs	r3, r3, #16
  170af2:	9303      	str	r3, [sp, #12]
  170af4:	2fe8      	cmp	r7, #232
  170af6:	d005      	beq.n	170b04 <gui_palette_draw+0x88>
  170af8:	1c3e      	adds	r6, r7, #0
  170afa:	1c37      	adds	r7, r6, #0
  170afc:	9d03      	ldr	r5, [sp, #12]
  170afe:	2008      	movs	r0, #8
  170b00:	370d      	adds	r7, #13
  170b02:	e7e1      	b.n	170ac8 <gui_palette_draw+0x4c>
  170b04:	4b2a      	ldr	r3, [pc, #168]	(170bb0 <gui_palette_draw+0x134>)
  170b06:	9a02      	ldr	r2, [sp, #8]
  170b08:	681b      	ldr	r3, [r3, #0]
  170b0a:	2116      	movs	r1, #22
  170b0c:	9100      	str	r1, [sp, #0]
  170b0e:	2108      	movs	r1, #8
  170b10:	3a01      	subs	r2, #1
  170b12:	3b01      	subs	r3, #1
  170b14:	9101      	str	r1, [sp, #4]
  170b16:	2000      	movs	r0, #0
  170b18:	2110      	movs	r1, #16
  170b1a:	f7fe f99d 	bl	16ee58 <draw_rect_thick>
  170b1e:	4b25      	ldr	r3, [pc, #148]	(170bb4 <gui_palette_draw+0x138>)
  170b20:	20d9      	movs	r0, #217
  170b22:	9300      	str	r3, [sp, #0]
  170b24:	2118      	movs	r1, #24
  170b26:	22e0      	movs	r2, #224
  170b28:	23e8      	movs	r3, #232
  170b2a:	f7fe fa35 	bl	16ef98 <draw_filled_rect>
  170b2e:	4e1e      	ldr	r6, [pc, #120]	(170ba8 <gui_palette_draw+0x12c>)
  170b30:	210f      	movs	r1, #15
  170b32:	8835      	ldrh	r5, [r6, #0]
  170b34:	24b3      	movs	r4, #179
  170b36:	092a      	lsrs	r2, r5, #4
  170b38:	400a      	ands	r2, r1
  170b3a:	0053      	lsls	r3, r2, #1
  170b3c:	189b      	adds	r3, r3, r2
  170b3e:	4029      	ands	r1, r5
  170b40:	009b      	lsls	r3, r3, #2
  170b42:	189b      	adds	r3, r3, r2
  170b44:	062d      	lsls	r5, r5, #24
  170b46:	004a      	lsls	r2, r1, #1
  170b48:	1852      	adds	r2, r2, r1
  170b4a:	0c2d      	lsrs	r5, r5, #16
  170b4c:	4325      	orrs	r5, r4
  170b4e:	0092      	lsls	r2, r2, #2
  170b50:	1852      	adds	r2, r2, r1
  170b52:	042d      	lsls	r5, r5, #16
  170b54:	1c19      	adds	r1, r3, #0
  170b56:	1c90      	adds	r0, r2, #2
  170b58:	3112      	adds	r1, #18
  170b5a:	321b      	adds	r2, #27
  170b5c:	332b      	adds	r3, #43
  170b5e:	0c2d      	lsrs	r5, r5, #16
  170b60:	2402      	movs	r4, #2
  170b62:	9500      	str	r5, [sp, #0]
  170b64:	9401      	str	r4, [sp, #4]
  170b66:	f7fe fa27 	bl	16efb8 <draw_filled_rect_thick>
  170b6a:	7833      	ldrb	r3, [r6, #0]
  170b6c:	2101      	movs	r1, #1
  170b6e:	021b      	lsls	r3, r3, #8
  170b70:	430b      	orrs	r3, r1
  170b72:	9a02      	ldr	r2, [sp, #8]
  170b74:	041b      	lsls	r3, r3, #16
  170b76:	0c1b      	lsrs	r3, r3, #16
  170b78:	3a09      	subs	r2, #9
  170b7a:	9300      	str	r3, [sp, #0]
  170b7c:	20e1      	movs	r0, #225
  170b7e:	23e8      	movs	r3, #232
  170b80:	2118      	movs	r1, #24
  170b82:	f7fe fa09 	bl	16ef98 <draw_filled_rect>
  170b86:	4a04      	ldr	r2, [pc, #16]	(170b98 <gui_palette_draw+0x11c>)
  170b88:	2300      	movs	r3, #0
  170b8a:	6013      	str	r3, [r2, #0]
  170b8c:	b004      	add	sp, #16
  170b8e:	bcf0      	pop	{r4, r5, r6, r7}
  170b90:	bc01      	pop	{r0}
  170b92:	4700      	bx	r0
  170b94:	001af758 	.word	0x001af758
  170b98:	001af8b0 	.word	0x001af8b0
  170b9c:	001a7a48 	.word	0x001a7a48
  170ba0:	0000ff01 	.word	0x0000ff01
  170ba4:	001af864 	.word	0x001af864
  170ba8:	001af8a4 	.word	0x001af8a4
  170bac:	001a7a66 	.word	0x001a7a66
  170bb0:	001af75c 	.word	0x001af75c
  170bb4:	00001616 	.word	0x00001616

00170bb8 <gui_palette_kbd_process>:
  170bb8:	b500      	push	{lr}
  170bba:	f030 fe5b 	bl	1a1874 <__kbd_get_autoclicked_key_from_thumb>
  170bbe:	3801      	subs	r0, #1
  170bc0:	2804      	cmp	r0, #4
  170bc2:	d830      	bhi.n	170c26 <gui_palette_kbd_process+0x6e>
  170bc4:	4a19      	ldr	r2, [pc, #100]	(170c2c <gui_palette_kbd_process+0x74>)
  170bc6:	0083      	lsls	r3, r0, #2
  170bc8:	58d3      	ldr	r3, [r2, r3]
  170bca:	469f      	mov	pc, r3
  170bcc:	4818      	ldr	r0, [pc, #96]	(170c30 <gui_palette_kbd_process+0x78>)
  170bce:	8801      	ldrh	r1, [r0, #0]
  170bd0:	1c0b      	adds	r3, r1, #0
  170bd2:	3310      	adds	r3, #16
  170bd4:	e003      	b.n	170bde <gui_palette_kbd_process+0x26>
  170bd6:	4816      	ldr	r0, [pc, #88]	(170c30 <gui_palette_kbd_process+0x78>)
  170bd8:	8801      	ldrh	r1, [r0, #0]
  170bda:	1c0b      	adds	r3, r1, #0
  170bdc:	3b10      	subs	r3, #16
  170bde:	22f0      	movs	r2, #240
  170be0:	4013      	ands	r3, r2
  170be2:	220f      	movs	r2, #15
  170be4:	4011      	ands	r1, r2
  170be6:	430b      	orrs	r3, r1
  170be8:	4a12      	ldr	r2, [pc, #72]	(170c34 <gui_palette_kbd_process+0x7c>)
  170bea:	8003      	strh	r3, [r0, #0]
  170bec:	2301      	movs	r3, #1
  170bee:	6013      	str	r3, [r2, #0]
  170bf0:	e019      	b.n	170c26 <gui_palette_kbd_process+0x6e>
  170bf2:	480f      	ldr	r0, [pc, #60]	(170c30 <gui_palette_kbd_process+0x78>)
  170bf4:	8801      	ldrh	r1, [r0, #0]
  170bf6:	1e4b      	subs	r3, r1, #1
  170bf8:	e002      	b.n	170c00 <gui_palette_kbd_process+0x48>
  170bfa:	480d      	ldr	r0, [pc, #52]	(170c30 <gui_palette_kbd_process+0x78>)
  170bfc:	8801      	ldrh	r1, [r0, #0]
  170bfe:	1c4b      	adds	r3, r1, #1
  170c00:	220f      	movs	r2, #15
  170c02:	4013      	ands	r3, r2
  170c04:	22f0      	movs	r2, #240
  170c06:	e7ed      	b.n	170be4 <gui_palette_kbd_process+0x2c>
  170c08:	4b0b      	ldr	r3, [pc, #44]	(170c38 <gui_palette_kbd_process+0x80>)
  170c0a:	681b      	ldr	r3, [r3, #0]
  170c0c:	2b01      	cmp	r3, #1
  170c0e:	d10a      	bne.n	170c26 <gui_palette_kbd_process+0x6e>
  170c10:	4b0a      	ldr	r3, [pc, #40]	(170c3c <gui_palette_kbd_process+0x84>)
  170c12:	681a      	ldr	r2, [r3, #0]
  170c14:	2a00      	cmp	r2, #0
  170c16:	d003      	beq.n	170c20 <gui_palette_kbd_process+0x68>
  170c18:	4b05      	ldr	r3, [pc, #20]	(170c30 <gui_palette_kbd_process+0x78>)
  170c1a:	8818      	ldrh	r0, [r3, #0]
  170c1c:	f000 f810 	bl	170c40 <gui_palette_kbd_process+0x88>
  170c20:	2002      	movs	r0, #2
  170c22:	f002 fa03 	bl	17302c <gui_set_mode>
  170c26:	bc01      	pop	{r0}
  170c28:	4700      	bx	r0
  170c2a:	46c0      	nop			(mov r8, r8)
  170c2c:	001a212c 	.word	0x001a212c
  170c30:	001af8a4 	.word	0x001af8a4
  170c34:	001af8b0 	.word	0x001af8b0
  170c38:	001af8a8 	.word	0x001af8a8
  170c3c:	001af8ac 	.word	0x001af8ac
  170c40:	4710      	bx	r2
  170c42:	46c0      	nop			(mov r8, r8)

00170c44 <gui_mbox_result>:
  170c44:	4b04      	ldr	r3, [pc, #16]	(170c58 <gui_mbox_result+0x14>)
  170c46:	4a05      	ldr	r2, [pc, #20]	(170c5c <gui_mbox_result+0x18>)
  170c48:	681b      	ldr	r3, [r3, #0]
  170c4a:	4905      	ldr	r1, [pc, #20]	(170c60 <gui_mbox_result+0x1c>)
  170c4c:	009b      	lsls	r3, r3, #2
  170c4e:	589b      	ldr	r3, [r3, r2]
  170c50:	00db      	lsls	r3, r3, #3
  170c52:	5858      	ldr	r0, [r3, r1]
  170c54:	4770      	bx	lr
  170c56:	46c0      	nop			(mov r8, r8)
  170c58:	001af8d8 	.word	0x001af8d8
  170c5c:	001af8c8 	.word	0x001af8c8
  170c60:	001a2140 	.word	0x001a2140

00170c64 <gui_mbox_draw_buttons>:
  170c64:	b5f0      	push	{r4, r5, r6, r7, lr}
  170c66:	4b29      	ldr	r3, [pc, #164]	(170d0c <gui_mbox_draw_buttons+0xa8>)
  170c68:	4a29      	ldr	r2, [pc, #164]	(170d10 <gui_mbox_draw_buttons+0xac>)
  170c6a:	681f      	ldr	r7, [r3, #0]
  170c6c:	4c29      	ldr	r4, [pc, #164]	(170d14 <gui_mbox_draw_buttons+0xb0>)
  170c6e:	4b2a      	ldr	r3, [pc, #168]	(170d18 <gui_mbox_draw_buttons+0xb4>)
  170c70:	b086      	sub	sp, #24
  170c72:	9205      	str	r2, [sp, #20]
  170c74:	2600      	movs	r6, #0
  170c76:	9302      	str	r3, [sp, #8]
  170c78:	9401      	str	r4, [sp, #4]
  170c7a:	e03e      	b.n	170cfa <gui_mbox_draw_buttons+0x96>
  170c7c:	9a01      	ldr	r2, [sp, #4]
  170c7e:	6813      	ldr	r3, [r2, #0]
  170c80:	42b3      	cmp	r3, r6
  170c82:	d002      	beq.n	170c8a <gui_mbox_draw_buttons+0x26>
  170c84:	4b25      	ldr	r3, [pc, #148]	(170d1c <gui_mbox_draw_buttons+0xb8>)
  170c86:	9304      	str	r3, [sp, #16]
  170c88:	e001      	b.n	170c8e <gui_mbox_draw_buttons+0x2a>
  170c8a:	4c25      	ldr	r4, [pc, #148]	(170d20 <gui_mbox_draw_buttons+0xbc>)
  170c8c:	9404      	str	r4, [sp, #16]
  170c8e:	4d25      	ldr	r5, [pc, #148]	(170d24 <gui_mbox_draw_buttons+0xc0>)
  170c90:	1c3a      	adds	r2, r7, #0
  170c92:	682b      	ldr	r3, [r5, #0]
  170c94:	1e78      	subs	r0, r7, #1
  170c96:	1e59      	subs	r1, r3, #1
  170c98:	3233      	adds	r2, #51
  170c9a:	3313      	adds	r3, #19
  170c9c:	24ff      	movs	r4, #255
  170c9e:	9400      	str	r4, [sp, #0]
  170ca0:	f7fe f8cc 	bl	16ee3c <draw_rect>
  170ca4:	682b      	ldr	r3, [r5, #0]
  170ca6:	9c04      	ldr	r4, [sp, #16]
  170ca8:	1c3a      	adds	r2, r7, #0
  170caa:	1e99      	subs	r1, r3, #2
  170cac:	1eb8      	subs	r0, r7, #2
  170cae:	3232      	adds	r2, #50
  170cb0:	3312      	adds	r3, #18
  170cb2:	9400      	str	r4, [sp, #0]
  170cb4:	f7fe f970 	bl	16ef98 <draw_filled_rect>
  170cb8:	9a05      	ldr	r2, [sp, #20]
  170cba:	4c1b      	ldr	r4, [pc, #108]	(170d28 <gui_mbox_draw_buttons+0xc4>)
  170cbc:	6813      	ldr	r3, [r2, #0]
  170cbe:	3601      	adds	r6, #1
  170cc0:	00db      	lsls	r3, r3, #3
  170cc2:	3304      	adds	r3, #4
  170cc4:	5918      	ldr	r0, [r3, r4]
  170cc6:	f020 ffbb 	bl	191c40 <lang_str>
  170cca:	f030 fddb 	bl	1a1884 <__strlen_from_thumb>
  170cce:	9a05      	ldr	r2, [sp, #20]
  170cd0:	9003      	str	r0, [sp, #12]
  170cd2:	ca08      	ldmia	r2!, {r3}
  170cd4:	682d      	ldr	r5, [r5, #0]
  170cd6:	00db      	lsls	r3, r3, #3
  170cd8:	3304      	adds	r3, #4
  170cda:	5918      	ldr	r0, [r3, r4]
  170cdc:	9205      	str	r2, [sp, #20]
  170cde:	f020 ffaf 	bl	191c40 <lang_str>
  170ce2:	9b03      	ldr	r3, [sp, #12]
  170ce4:	1c02      	adds	r2, r0, #0
  170ce6:	2006      	movs	r0, #6
  170ce8:	1ac0      	subs	r0, r0, r3
  170cea:	00c0      	lsls	r0, r0, #3
  170cec:	1040      	asrs	r0, r0, #1
  170cee:	1838      	adds	r0, r7, r0
  170cf0:	1c29      	adds	r1, r5, #0
  170cf2:	9b04      	ldr	r3, [sp, #16]
  170cf4:	f7fe f9c0 	bl	16f078 <draw_string>
  170cf8:	3742      	adds	r7, #66
  170cfa:	9c02      	ldr	r4, [sp, #8]
  170cfc:	6823      	ldr	r3, [r4, #0]
  170cfe:	429e      	cmp	r6, r3
  170d00:	dbbc      	blt.n	170c7c <gui_mbox_draw_buttons+0x18>
  170d02:	b006      	add	sp, #24
  170d04:	bcf0      	pop	{r4, r5, r6, r7}
  170d06:	bc01      	pop	{r0}
  170d08:	4700      	bx	r0
  170d0a:	46c0      	nop			(mov r8, r8)
  170d0c:	001af8dc 	.word	0x001af8dc
  170d10:	001af8c8 	.word	0x001af8c8
  170d14:	001af8d8 	.word	0x001af8d8
  170d18:	001af8d4 	.word	0x001af8d4
  170d1c:	0000ff01 	.word	0x0000ff01
  170d20:	0000b301 	.word	0x0000b301
  170d24:	001af8e0 	.word	0x001af8e0
  170d28:	001a2140 	.word	0x001a2140

00170d2c <gui_mbox_kbd_process>:
  170d2c:	b510      	push	{r4, lr}
  170d2e:	f030 fdad 	bl	1a188c <__kbd_get_clicked_key_from_thumb>
  170d32:	1c04      	adds	r4, r0, #0
  170d34:	f030 fda2 	bl	1a187c <__get_jogdial_direction_from_thumb>
  170d38:	4320      	orrs	r0, r4
  170d3a:	2805      	cmp	r0, #5
  170d3c:	d021      	beq.n	170d82 <gui_mbox_kbd_process+0x56>
  170d3e:	2805      	cmp	r0, #5
  170d40:	dc04      	bgt.n	170d4c <gui_mbox_kbd_process+0x20>
  170d42:	2803      	cmp	r0, #3
  170d44:	d007      	beq.n	170d56 <gui_mbox_kbd_process+0x2a>
  170d46:	2804      	cmp	r0, #4
  170d48:	d135      	bne.n	170db6 <gui_mbox_kbd_process+0x8a>
  170d4a:	e00c      	b.n	170d66 <gui_mbox_kbd_process+0x3a>
  170d4c:	2864      	cmp	r0, #100
  170d4e:	d002      	beq.n	170d56 <gui_mbox_kbd_process+0x2a>
  170d50:	2865      	cmp	r0, #101
  170d52:	d130      	bne.n	170db6 <gui_mbox_kbd_process+0x8a>
  170d54:	e007      	b.n	170d66 <gui_mbox_kbd_process+0x3a>
  170d56:	4a19      	ldr	r2, [pc, #100]	(170dbc <gui_mbox_kbd_process+0x90>)
  170d58:	6813      	ldr	r3, [r2, #0]
  170d5a:	2b00      	cmp	r3, #0
  170d5c:	dc01      	bgt.n	170d62 <gui_mbox_kbd_process+0x36>
  170d5e:	4b18      	ldr	r3, [pc, #96]	(170dc0 <gui_mbox_kbd_process+0x94>)
  170d60:	681b      	ldr	r3, [r3, #0]
  170d62:	3b01      	subs	r3, #1
  170d64:	e009      	b.n	170d7a <gui_mbox_kbd_process+0x4e>
  170d66:	4b16      	ldr	r3, [pc, #88]	(170dc0 <gui_mbox_kbd_process+0x94>)
  170d68:	4a14      	ldr	r2, [pc, #80]	(170dbc <gui_mbox_kbd_process+0x90>)
  170d6a:	681b      	ldr	r3, [r3, #0]
  170d6c:	6811      	ldr	r1, [r2, #0]
  170d6e:	3b01      	subs	r3, #1
  170d70:	4299      	cmp	r1, r3
  170d72:	da01      	bge.n	170d78 <gui_mbox_kbd_process+0x4c>
  170d74:	1c4b      	adds	r3, r1, #1
  170d76:	e000      	b.n	170d7a <gui_mbox_kbd_process+0x4e>
  170d78:	2300      	movs	r3, #0
  170d7a:	6013      	str	r3, [r2, #0]
  170d7c:	f7ff ff72 	bl	170c64 <gui_mbox_draw_buttons>
  170d80:	e019      	b.n	170db6 <gui_mbox_kbd_process+0x8a>
  170d82:	f030 fd87 	bl	1a1894 <__kbd_reset_autoclicked_key_from_thumb>
  170d86:	4b0f      	ldr	r3, [pc, #60]	(170dc4 <gui_mbox_kbd_process+0x98>)
  170d88:	6818      	ldr	r0, [r3, #0]
  170d8a:	f002 f94f 	bl	17302c <gui_set_mode>
  170d8e:	4b0e      	ldr	r3, [pc, #56]	(170dc8 <gui_mbox_kbd_process+0x9c>)
  170d90:	681b      	ldr	r3, [r3, #0]
  170d92:	055a      	lsls	r2, r3, #21
  170d94:	d501      	bpl.n	170d9a <gui_mbox_kbd_process+0x6e>
  170d96:	f7fe fc41 	bl	16f61c <draw_restore>
  170d9a:	4b0c      	ldr	r3, [pc, #48]	(170dcc <gui_mbox_kbd_process+0xa0>)
  170d9c:	681c      	ldr	r4, [r3, #0]
  170d9e:	2c00      	cmp	r4, #0
  170da0:	d009      	beq.n	170db6 <gui_mbox_kbd_process+0x8a>
  170da2:	4b06      	ldr	r3, [pc, #24]	(170dbc <gui_mbox_kbd_process+0x90>)
  170da4:	4a0a      	ldr	r2, [pc, #40]	(170dd0 <gui_mbox_kbd_process+0xa4>)
  170da6:	681b      	ldr	r3, [r3, #0]
  170da8:	490a      	ldr	r1, [pc, #40]	(170dd4 <gui_mbox_kbd_process+0xa8>)
  170daa:	009b      	lsls	r3, r3, #2
  170dac:	589b      	ldr	r3, [r3, r2]
  170dae:	00db      	lsls	r3, r3, #3
  170db0:	5858      	ldr	r0, [r3, r1]
  170db2:	f000 f977 	bl	1710a4 <gui_mbox_init+0xdc>
  170db6:	bc10      	pop	{r4}
  170db8:	bc01      	pop	{r0}
  170dba:	4700      	bx	r0
  170dbc:	001af8d8 	.word	0x001af8d8
  170dc0:	001af8d4 	.word	0x001af8d4
  170dc4:	001af8b4 	.word	0x001af8b4
  170dc8:	001af8c4 	.word	0x001af8c4
  170dcc:	001af8e4 	.word	0x001af8e4
  170dd0:	001af8c8 	.word	0x001af8c8
  170dd4:	001a2140 	.word	0x001a2140

00170dd8 <gui_mbox_draw>:
  170dd8:	b5f0      	push	{r4, r5, r6, r7, lr}
  170dda:	4b70      	ldr	r3, [pc, #448]	(170f9c <gui_mbox_draw+0x1c4>)
  170ddc:	b0d1      	sub	sp, #324
  170dde:	781b      	ldrb	r3, [r3, #0]
  170de0:	2b00      	cmp	r3, #0
  170de2:	d100      	bne.n	170de6 <gui_mbox_draw+0xe>
  170de4:	e0d5      	b.n	170f92 <gui_mbox_draw+0x1ba>
  170de6:	4b6e      	ldr	r3, [pc, #440]	(170fa0 <gui_mbox_draw+0x1c8>)
  170de8:	681c      	ldr	r4, [r3, #0]
  170dea:	4b6e      	ldr	r3, [pc, #440]	(170fa4 <gui_mbox_draw+0x1cc>)
  170dec:	681a      	ldr	r2, [r3, #0]
  170dee:	0153      	lsls	r3, r2, #5
  170df0:	189b      	adds	r3, r3, r2
  170df2:	005b      	lsls	r3, r3, #1
  170df4:	3b12      	subs	r3, #18
  170df6:	9305      	str	r3, [sp, #20]
  170df8:	f030 fd1c 	bl	1a1834 <__mode_get_from_thumb>
  170dfc:	4b6a      	ldr	r3, [pc, #424]	(170fa8 <gui_mbox_draw+0x1d0>)
  170dfe:	6818      	ldr	r0, [r3, #0]
  170e00:	f030 fd40 	bl	1a1884 <__strlen_from_thumb>
  170e04:	2823      	cmp	r0, #35
  170e06:	d900      	bls.n	170e0a <gui_mbox_draw+0x32>
  170e08:	2023      	movs	r0, #35
  170e0a:	2700      	movs	r7, #0
  170e0c:	2200      	movs	r2, #0
  170e0e:	ad09      	add	r5, sp, #36
  170e10:	2600      	movs	r6, #0
  170e12:	e019      	b.n	170e48 <gui_mbox_draw+0x70>
  170e14:	290a      	cmp	r1, #10
  170e16:	d10b      	bne.n	170e30 <gui_mbox_draw+0x58>
  170e18:	00fb      	lsls	r3, r7, #3
  170e1a:	19db      	adds	r3, r3, r7
  170e1c:	009b      	lsls	r3, r3, #2
  170e1e:	189b      	adds	r3, r3, r2
  170e20:	3701      	adds	r7, #1
  170e22:	555e      	strb	r6, [r3, r5]
  170e24:	2f08      	cmp	r7, #8
  170e26:	d101      	bne.n	170e2c <gui_mbox_draw+0x54>
  170e28:	2200      	movs	r2, #0
  170e2a:	e010      	b.n	170e4e <gui_mbox_draw+0x76>
  170e2c:	2200      	movs	r2, #0
  170e2e:	e00a      	b.n	170e46 <gui_mbox_draw+0x6e>
  170e30:	2a22      	cmp	r2, #34
  170e32:	d808      	bhi.n	170e46 <gui_mbox_draw+0x6e>
  170e34:	00fb      	lsls	r3, r7, #3
  170e36:	19db      	adds	r3, r3, r7
  170e38:	009b      	lsls	r3, r3, #2
  170e3a:	189b      	adds	r3, r3, r2
  170e3c:	3201      	adds	r2, #1
  170e3e:	5559      	strb	r1, [r3, r5]
  170e40:	4282      	cmp	r2, r0
  170e42:	d900      	bls.n	170e46 <gui_mbox_draw+0x6e>
  170e44:	1c10      	adds	r0, r2, #0
  170e46:	3401      	adds	r4, #1
  170e48:	7821      	ldrb	r1, [r4, #0]
  170e4a:	2900      	cmp	r1, #0
  170e4c:	d1e2      	bne.n	170e14 <gui_mbox_draw+0x3c>
  170e4e:	3002      	adds	r0, #2
  170e50:	9007      	str	r0, [sp, #28]
  170e52:	2f07      	cmp	r7, #7
  170e54:	d807      	bhi.n	170e66 <gui_mbox_draw+0x8e>
  170e56:	00fb      	lsls	r3, r7, #3
  170e58:	19db      	adds	r3, r3, r7
  170e5a:	009b      	lsls	r3, r3, #2
  170e5c:	189b      	adds	r3, r3, r2
  170e5e:	2100      	movs	r1, #0
  170e60:	aa09      	add	r2, sp, #36
  170e62:	5499      	strb	r1, [r3, r2]
  170e64:	3701      	adds	r7, #1
  170e66:	9a05      	ldr	r2, [sp, #20]
  170e68:	9807      	ldr	r0, [sp, #28]
  170e6a:	3212      	adds	r2, #18
  170e6c:	00c3      	lsls	r3, r0, #3
  170e6e:	429a      	cmp	r2, r3
  170e70:	d902      	bls.n	170e78 <gui_mbox_draw+0xa0>
  170e72:	08d3      	lsrs	r3, r2, #3
  170e74:	3301      	adds	r3, #1
  170e76:	9307      	str	r3, [sp, #28]
  170e78:	9907      	ldr	r1, [sp, #28]
  170e7a:	232c      	movs	r3, #44
  170e7c:	1a5b      	subs	r3, r3, r1
  170e7e:	260c      	movs	r6, #12
  170e80:	085b      	lsrs	r3, r3, #1
  170e82:	1bf6      	subs	r6, r6, r7
  170e84:	00db      	lsls	r3, r3, #3
  170e86:	0876      	lsrs	r6, r6, #1
  170e88:	1cbd      	adds	r5, r7, #2
  170e8a:	0136      	lsls	r6, r6, #4
  170e8c:	00ca      	lsls	r2, r1, #3
  170e8e:	9304      	str	r3, [sp, #16]
  170e90:	012d      	lsls	r5, r5, #4
  170e92:	189b      	adds	r3, r3, r2
  170e94:	1975      	adds	r5, r6, r5
  170e96:	9804      	ldr	r0, [sp, #16]
  170e98:	9208      	str	r2, [sp, #32]
  170e9a:	9303      	str	r3, [sp, #12]
  170e9c:	1c1a      	adds	r2, r3, #0
  170e9e:	24ff      	movs	r4, #255
  170ea0:	1c2b      	adds	r3, r5, #0
  170ea2:	1ef1      	subs	r1, r6, #3
  170ea4:	3803      	subs	r0, #3
  170ea6:	3205      	adds	r2, #5
  170ea8:	3312      	adds	r3, #18
  170eaa:	9400      	str	r4, [sp, #0]
  170eac:	2403      	movs	r4, #3
  170eae:	9401      	str	r4, [sp, #4]
  170eb0:	f7fd fff4 	bl	16ee9c <draw_rect_shadow>
  170eb4:	9804      	ldr	r0, [sp, #16]
  170eb6:	9a03      	ldr	r2, [sp, #12]
  170eb8:	4b3c      	ldr	r3, [pc, #240]	(170fac <gui_mbox_draw+0x1d4>)
  170eba:	3511      	adds	r5, #17
  170ebc:	1f31      	subs	r1, r6, #4
  170ebe:	3804      	subs	r0, #4
  170ec0:	3204      	adds	r2, #4
  170ec2:	9300      	str	r3, [sp, #0]
  170ec4:	1c2b      	adds	r3, r5, #0
  170ec6:	9401      	str	r4, [sp, #4]
  170ec8:	f7fe f876 	bl	16efb8 <draw_filled_rect_thick>
  170ecc:	9804      	ldr	r0, [sp, #16]
  170ece:	9a03      	ldr	r2, [sp, #12]
  170ed0:	4d37      	ldr	r5, [pc, #220]	(170fb0 <gui_mbox_draw+0x1d8>)
  170ed2:	1c33      	adds	r3, r6, #0
  170ed4:	1eb1      	subs	r1, r6, #2
  170ed6:	3202      	adds	r2, #2
  170ed8:	3802      	subs	r0, #2
  170eda:	3312      	adds	r3, #18
  170edc:	9500      	str	r5, [sp, #0]
  170ede:	f7fe f85b 	bl	16ef98 <draw_filled_rect>
  170ee2:	4b31      	ldr	r3, [pc, #196]	(170fa8 <gui_mbox_draw+0x1d0>)
  170ee4:	681c      	ldr	r4, [r3, #0]
  170ee6:	1c20      	adds	r0, r4, #0
  170ee8:	f030 fccc 	bl	1a1884 <__strlen_from_thumb>
  170eec:	9907      	ldr	r1, [sp, #28]
  170eee:	9a04      	ldr	r2, [sp, #16]
  170ef0:	1a08      	subs	r0, r1, r0
  170ef2:	0840      	lsrs	r0, r0, #1
  170ef4:	00c0      	lsls	r0, r0, #3
  170ef6:	1880      	adds	r0, r0, r2
  170ef8:	1c31      	adds	r1, r6, #0
  170efa:	1c22      	adds	r2, r4, #0
  170efc:	1c2b      	adds	r3, r5, #0
  170efe:	f7fe f8bb 	bl	16f078 <draw_string>
  170f02:	9808      	ldr	r0, [sp, #32]
  170f04:	9905      	ldr	r1, [sp, #20]
  170f06:	4b2b      	ldr	r3, [pc, #172]	(170fb4 <gui_mbox_draw+0x1dc>)
  170f08:	1a42      	subs	r2, r0, r1
  170f0a:	9804      	ldr	r0, [sp, #16]
  170f0c:	0852      	lsrs	r2, r2, #1
  170f0e:	1812      	adds	r2, r2, r0
  170f10:	601a      	str	r2, [r3, #0]
  170f12:	013b      	lsls	r3, r7, #4
  170f14:	4a28      	ldr	r2, [pc, #160]	(170fb8 <gui_mbox_draw+0x1e0>)
  170f16:	331a      	adds	r3, #26
  170f18:	199b      	adds	r3, r3, r6
  170f1a:	6013      	str	r3, [r2, #0]
  170f1c:	00fb      	lsls	r3, r7, #3
  170f1e:	19db      	adds	r3, r3, r7
  170f20:	009b      	lsls	r3, r3, #2
  170f22:	a951      	add	r1, sp, #324
  170f24:	4a25      	ldr	r2, [pc, #148]	(170fbc <gui_mbox_draw+0x1e4>)
  170f26:	18cb      	adds	r3, r1, r3
  170f28:	189c      	adds	r4, r3, r2
  170f2a:	013b      	lsls	r3, r7, #4
  170f2c:	3306      	adds	r3, #6
  170f2e:	199b      	adds	r3, r3, r6
  170f30:	9306      	str	r3, [sp, #24]
  170f32:	4b23      	ldr	r3, [pc, #140]	(170fc0 <gui_mbox_draw+0x1e8>)
  170f34:	26c0      	movs	r6, #192
  170f36:	2580      	movs	r5, #128
  170f38:	9302      	str	r3, [sp, #8]
  170f3a:	00b6      	lsls	r6, r6, #2
  170f3c:	006d      	lsls	r5, r5, #1
  170f3e:	1c20      	adds	r0, r4, #0
  170f40:	f030 fca0 	bl	1a1884 <__strlen_from_thumb>
  170f44:	9902      	ldr	r1, [sp, #8]
  170f46:	1c32      	adds	r2, r6, #0
  170f48:	680b      	ldr	r3, [r1, #0]
  170f4a:	3f01      	subs	r7, #1
  170f4c:	401a      	ands	r2, r3
  170f4e:	42aa      	cmp	r2, r5
  170f50:	d005      	beq.n	170f5e <gui_mbox_draw+0x186>
  170f52:	2380      	movs	r3, #128
  170f54:	009b      	lsls	r3, r3, #2
  170f56:	429a      	cmp	r2, r3
  170f58:	d005      	beq.n	170f66 <gui_mbox_draw+0x18e>
  170f5a:	2008      	movs	r0, #8
  170f5c:	e008      	b.n	170f70 <gui_mbox_draw+0x198>
  170f5e:	9a07      	ldr	r2, [sp, #28]
  170f60:	1a13      	subs	r3, r2, r0
  170f62:	085b      	lsrs	r3, r3, #1
  170f64:	e003      	b.n	170f6e <gui_mbox_draw+0x196>
  170f66:	9907      	ldr	r1, [sp, #28]
  170f68:	4a16      	ldr	r2, [pc, #88]	(170fc4 <gui_mbox_draw+0x1ec>)
  170f6a:	1a0b      	subs	r3, r1, r0
  170f6c:	189b      	adds	r3, r3, r2
  170f6e:	00d8      	lsls	r0, r3, #3
  170f70:	9b04      	ldr	r3, [sp, #16]
  170f72:	1c22      	adds	r2, r4, #0
  170f74:	18c0      	adds	r0, r0, r3
  170f76:	9906      	ldr	r1, [sp, #24]
  170f78:	4b0c      	ldr	r3, [pc, #48]	(170fac <gui_mbox_draw+0x1d4>)
  170f7a:	f7fe f87d 	bl	16f078 <draw_string>
  170f7e:	9806      	ldr	r0, [sp, #24]
  170f80:	3c24      	subs	r4, #36
  170f82:	3810      	subs	r0, #16
  170f84:	9006      	str	r0, [sp, #24]
  170f86:	2f00      	cmp	r7, #0
  170f88:	d1d9      	bne.n	170f3e <gui_mbox_draw+0x166>
  170f8a:	f7ff fe6b 	bl	170c64 <gui_mbox_draw_buttons>
  170f8e:	4b03      	ldr	r3, [pc, #12]	(170f9c <gui_mbox_draw+0x1c4>)
  170f90:	701f      	strb	r7, [r3, #0]
  170f92:	b051      	add	sp, #324
  170f94:	bcf0      	pop	{r4, r5, r6, r7}
  170f96:	bc01      	pop	{r0}
  170f98:	4700      	bx	r0
  170f9a:	46c0      	nop			(mov r8, r8)
  170f9c:	001af8c0 	.word	0x001af8c0
  170fa0:	001af8bc 	.word	0x001af8bc
  170fa4:	001af8d4 	.word	0x001af8d4
  170fa8:	001af8b8 	.word	0x001af8b8
  170fac:	00001601 	.word	0x00001601
  170fb0:	0000ff01 	.word	0x0000ff01
  170fb4:	001af8dc 	.word	0x001af8dc
  170fb8:	001af8e0 	.word	0x001af8e0
  170fbc:	fffffebc 	.word	0xfffffebc
  170fc0:	001af8c4 	.word	0x001af8c4
  170fc4:	1fffffff 	.word	0x1fffffff

00170fc8 <gui_mbox_init>:
  170fc8:	b5f0      	push	{r4, r5, r6, r7, lr}
  170fca:	b082      	sub	sp, #8
  170fcc:	1c07      	adds	r7, r0, #0
  170fce:	9101      	str	r1, [sp, #4]
  170fd0:	1c15      	adds	r5, r2, #0
  170fd2:	9300      	str	r3, [sp, #0]
  170fd4:	4829      	ldr	r0, [pc, #164]	(17107c <gui_mbox_init+0xb4>)
  170fd6:	2100      	movs	r1, #0
  170fd8:	2200      	movs	r2, #0
  170fda:	26ff      	movs	r6, #255
  170fdc:	4c28      	ldr	r4, [pc, #160]	(171080 <gui_mbox_init+0xb8>)
  170fde:	e00a      	b.n	170ff6 <gui_mbox_init+0x2e>
  170fe0:	6803      	ldr	r3, [r0, #0]
  170fe2:	4033      	ands	r3, r6
  170fe4:	422b      	tst	r3, r5
  170fe6:	d002      	beq.n	170fee <gui_mbox_init+0x26>
  170fe8:	0093      	lsls	r3, r2, #2
  170fea:	5119      	str	r1, [r3, r4]
  170fec:	3201      	adds	r2, #1
  170fee:	3101      	adds	r1, #1
  170ff0:	3008      	adds	r0, #8
  170ff2:	2904      	cmp	r1, #4
  170ff4:	d001      	beq.n	170ffa <gui_mbox_init+0x32>
  170ff6:	2a02      	cmp	r2, #2
  170ff8:	ddf2      	ble.n	170fe0 <gui_mbox_init+0x18>
  170ffa:	4b22      	ldr	r3, [pc, #136]	(171084 <gui_mbox_init+0xbc>)
  170ffc:	4921      	ldr	r1, [pc, #132]	(171084 <gui_mbox_init+0xbc>)
  170ffe:	601a      	str	r2, [r3, #0]
  171000:	680a      	ldr	r2, [r1, #0]
  171002:	2a00      	cmp	r2, #0
  171004:	d103      	bne.n	17100e <gui_mbox_init+0x46>
  171006:	4b1e      	ldr	r3, [pc, #120]	(171080 <gui_mbox_init+0xb8>)
  171008:	601a      	str	r2, [r3, #0]
  17100a:	2301      	movs	r3, #1
  17100c:	600b      	str	r3, [r1, #0]
  17100e:	23c0      	movs	r3, #192
  171010:	019b      	lsls	r3, r3, #6
  171012:	1c2a      	adds	r2, r5, #0
  171014:	401a      	ands	r2, r3
  171016:	2380      	movs	r3, #128
  171018:	015b      	lsls	r3, r3, #5
  17101a:	429a      	cmp	r2, r3
  17101c:	d008      	beq.n	171030 <gui_mbox_init+0x68>
  17101e:	2380      	movs	r3, #128
  171020:	019b      	lsls	r3, r3, #6
  171022:	429a      	cmp	r2, r3
  171024:	d007      	beq.n	171036 <gui_mbox_init+0x6e>
  171026:	4918      	ldr	r1, [pc, #96]	(171088 <gui_mbox_init+0xc0>)
  171028:	2a00      	cmp	r2, #0
  17102a:	d108      	bne.n	17103e <gui_mbox_init+0x76>
  17102c:	600a      	str	r2, [r1, #0]
  17102e:	e008      	b.n	171042 <gui_mbox_init+0x7a>
  171030:	4a15      	ldr	r2, [pc, #84]	(171088 <gui_mbox_init+0xc0>)
  171032:	2301      	movs	r3, #1
  171034:	e001      	b.n	17103a <gui_mbox_init+0x72>
  171036:	4a14      	ldr	r2, [pc, #80]	(171088 <gui_mbox_init+0xc0>)
  171038:	2302      	movs	r3, #2
  17103a:	6013      	str	r3, [r2, #0]
  17103c:	e001      	b.n	171042 <gui_mbox_init+0x7a>
  17103e:	2300      	movs	r3, #0
  171040:	600b      	str	r3, [r1, #0]
  171042:	f001 ffed 	bl	173020 <gui_get_mode>
  171046:	4b11      	ldr	r3, [pc, #68]	(17108c <gui_mbox_init+0xc4>)
  171048:	6018      	str	r0, [r3, #0]
  17104a:	1c38      	adds	r0, r7, #0
  17104c:	f020 fdf8 	bl	191c40 <lang_str>
  171050:	4b0f      	ldr	r3, [pc, #60]	(171090 <gui_mbox_init+0xc8>)
  171052:	6018      	str	r0, [r3, #0]
  171054:	9801      	ldr	r0, [sp, #4]
  171056:	f020 fdf3 	bl	191c40 <lang_str>
  17105a:	4b0e      	ldr	r3, [pc, #56]	(171094 <gui_mbox_init+0xcc>)
  17105c:	4a0e      	ldr	r2, [pc, #56]	(171098 <gui_mbox_init+0xd0>)
  17105e:	6018      	str	r0, [r3, #0]
  171060:	2301      	movs	r3, #1
  171062:	7013      	strb	r3, [r2, #0]
  171064:	4b0d      	ldr	r3, [pc, #52]	(17109c <gui_mbox_init+0xd4>)
  171066:	9a00      	ldr	r2, [sp, #0]
  171068:	601d      	str	r5, [r3, #0]
  17106a:	4b0d      	ldr	r3, [pc, #52]	(1710a0 <gui_mbox_init+0xd8>)
  17106c:	2004      	movs	r0, #4
  17106e:	601a      	str	r2, [r3, #0]
  171070:	f001 ffdc 	bl	17302c <gui_set_mode>
  171074:	b002      	add	sp, #8
  171076:	bcf0      	pop	{r4, r5, r6, r7}
  171078:	bc01      	pop	{r0}
  17107a:	4700      	bx	r0
  17107c:	001a2140 	.word	0x001a2140
  171080:	001af8c8 	.word	0x001af8c8
  171084:	001af8d4 	.word	0x001af8d4
  171088:	001af8d8 	.word	0x001af8d8
  17108c:	001af8b4 	.word	0x001af8b4
  171090:	001af8b8 	.word	0x001af8b8
  171094:	001af8bc 	.word	0x001af8bc
  171098:	001af8c0 	.word	0x001af8c0
  17109c:	001af8c4 	.word	0x001af8c4
  1710a0:	001af8e4 	.word	0x001af8e4
  1710a4:	4720      	bx	r4
  1710a6:	46c0      	nop			(mov r8, r8)

001710a8 <gui_fselect_set_key_redraw>:
  1710a8:	4b01      	ldr	r3, [pc, #4]	(1710b0 <gui_fselect_set_key_redraw+0x8>)
  1710aa:	6018      	str	r0, [r3, #0]
  1710ac:	4770      	bx	lr
  1710ae:	46c0      	nop			(mov r8, r8)
  1710b0:	001afb14 	.word	0x001afb14

001710b4 <gui_fselect_result>:
  1710b4:	4802      	ldr	r0, [pc, #8]	(1710c0 <gui_fselect_result+0xc>)
  1710b6:	7803      	ldrb	r3, [r0, #0]
  1710b8:	2b00      	cmp	r3, #0
  1710ba:	d100      	bne.n	1710be <gui_fselect_result+0xa>
  1710bc:	2000      	movs	r0, #0
  1710be:	4770      	bx	lr
  1710c0:	001af9e0 	.word	0x001af9e0

001710c4 <fselect_goto_prev>:
  1710c4:	b530      	push	{r4, r5, lr}
  1710c6:	4b17      	ldr	r3, [pc, #92]	(171124 <fselect_goto_prev+0x60>)
  1710c8:	1c05      	adds	r5, r0, #0
  1710ca:	681a      	ldr	r2, [r3, #0]
  1710cc:	4b16      	ldr	r3, [pc, #88]	(171128 <fselect_goto_prev+0x64>)
  1710ce:	2400      	movs	r4, #0
  1710d0:	6818      	ldr	r0, [r3, #0]
  1710d2:	e01d      	b.n	171110 <fselect_goto_prev+0x4c>
  1710d4:	6983      	ldr	r3, [r0, #24]
  1710d6:	4293      	cmp	r3, r2
  1710d8:	d103      	bne.n	1710e2 <fselect_goto_prev+0x1e>
  1710da:	6992      	ldr	r2, [r2, #24]
  1710dc:	2a00      	cmp	r2, #0
  1710de:	d100      	bne.n	1710e2 <fselect_goto_prev+0x1e>
  1710e0:	1c1a      	adds	r2, r3, #0
  1710e2:	2b00      	cmp	r3, #0
  1710e4:	d112      	bne.n	17110c <fselect_goto_prev+0x48>
  1710e6:	2d01      	cmp	r5, #1
  1710e8:	d10f      	bne.n	17110a <fselect_goto_prev+0x46>
  1710ea:	69c3      	ldr	r3, [r0, #28]
  1710ec:	2b00      	cmp	r3, #0
  1710ee:	d001      	beq.n	1710f4 <fselect_goto_prev+0x30>
  1710f0:	1c18      	adds	r0, r3, #0
  1710f2:	e7fa      	b.n	1710ea <fselect_goto_prev+0x26>
  1710f4:	1c03      	adds	r3, r0, #0
  1710f6:	2100      	movs	r1, #0
  1710f8:	e003      	b.n	171102 <fselect_goto_prev+0x3e>
  1710fa:	3101      	adds	r1, #1
  1710fc:	2909      	cmp	r1, #9
  1710fe:	d004      	beq.n	17110a <fselect_goto_prev+0x46>
  171100:	1c13      	adds	r3, r2, #0
  171102:	699a      	ldr	r2, [r3, #24]
  171104:	2a00      	cmp	r2, #0
  171106:	d1f8      	bne.n	1710fa <fselect_goto_prev+0x36>
  171108:	1c1a      	adds	r2, r3, #0
  17110a:	1c03      	adds	r3, r0, #0
  17110c:	3401      	adds	r4, #1
  17110e:	1c18      	adds	r0, r3, #0
  171110:	42ac      	cmp	r4, r5
  171112:	dbdf      	blt.n	1710d4 <fselect_goto_prev+0x10>
  171114:	4b03      	ldr	r3, [pc, #12]	(171124 <fselect_goto_prev+0x60>)
  171116:	601a      	str	r2, [r3, #0]
  171118:	4b03      	ldr	r3, [pc, #12]	(171128 <fselect_goto_prev+0x64>)
  17111a:	6018      	str	r0, [r3, #0]
  17111c:	bc30      	pop	{r4, r5}
  17111e:	bc01      	pop	{r0}
  171120:	4700      	bx	r0
  171122:	46c0      	nop			(mov r8, r8)
  171124:	001afaac 	.word	0x001afaac
  171128:	001afab0 	.word	0x001afab0

0017112c <fselect_goto_next>:
  17112c:	b5f0      	push	{r4, r5, r6, r7, lr}
  17112e:	4d1a      	ldr	r5, [pc, #104]	(171198 <fselect_goto_next+0x6c>)
  171130:	1c06      	adds	r6, r0, #0
  171132:	1c2f      	adds	r7, r5, #0
  171134:	2000      	movs	r0, #0
  171136:	e02a      	b.n	17118e <fselect_goto_next+0x62>
  171138:	682c      	ldr	r4, [r5, #0]
  17113a:	2300      	movs	r3, #0
  17113c:	1c21      	adds	r1, r4, #0
  17113e:	e001      	b.n	171144 <fselect_goto_next+0x18>
  171140:	69c9      	ldr	r1, [r1, #28]
  171142:	3301      	adds	r3, #1
  171144:	2b08      	cmp	r3, #8
  171146:	dc01      	bgt.n	17114c <fselect_goto_next+0x20>
  171148:	2900      	cmp	r1, #0
  17114a:	d1f9      	bne.n	171140 <fselect_goto_next+0x14>
  17114c:	2b09      	cmp	r3, #9
  17114e:	d10c      	bne.n	17116a <fselect_goto_next+0x3e>
  171150:	2900      	cmp	r1, #0
  171152:	d00a      	beq.n	17116a <fselect_goto_next+0x3e>
  171154:	4b11      	ldr	r3, [pc, #68]	(17119c <fselect_goto_next+0x70>)
  171156:	698a      	ldr	r2, [r1, #24]
  171158:	681b      	ldr	r3, [r3, #0]
  17115a:	429a      	cmp	r2, r3
  17115c:	d105      	bne.n	17116a <fselect_goto_next+0x3e>
  17115e:	69cb      	ldr	r3, [r1, #28]
  171160:	2b00      	cmp	r3, #0
  171162:	d002      	beq.n	17116a <fselect_goto_next+0x3e>
  171164:	4a0c      	ldr	r2, [pc, #48]	(171198 <fselect_goto_next+0x6c>)
  171166:	69e3      	ldr	r3, [r4, #28]
  171168:	6013      	str	r3, [r2, #0]
  17116a:	4a0c      	ldr	r2, [pc, #48]	(17119c <fselect_goto_next+0x70>)
  17116c:	6813      	ldr	r3, [r2, #0]
  17116e:	69db      	ldr	r3, [r3, #28]
  171170:	2b00      	cmp	r3, #0
  171172:	d001      	beq.n	171178 <fselect_goto_next+0x4c>
  171174:	6013      	str	r3, [r2, #0]
  171176:	e009      	b.n	17118c <fselect_goto_next+0x60>
  171178:	2e01      	cmp	r6, #1
  17117a:	d107      	bne.n	17118c <fselect_goto_next+0x60>
  17117c:	e000      	b.n	171180 <fselect_goto_next+0x54>
  17117e:	603b      	str	r3, [r7, #0]
  171180:	683a      	ldr	r2, [r7, #0]
  171182:	6993      	ldr	r3, [r2, #24]
  171184:	2b00      	cmp	r3, #0
  171186:	d1fa      	bne.n	17117e <fselect_goto_next+0x52>
  171188:	4b04      	ldr	r3, [pc, #16]	(17119c <fselect_goto_next+0x70>)
  17118a:	601a      	str	r2, [r3, #0]
  17118c:	3001      	adds	r0, #1
  17118e:	42b0      	cmp	r0, r6
  171190:	dbd2      	blt.n	171138 <fselect_goto_next+0xc>
  171192:	bcf0      	pop	{r4, r5, r6, r7}
  171194:	bc01      	pop	{r0}
  171196:	4700      	bx	r0
  171198:	001afaac 	.word	0x001afaac
  17119c:	001afab0 	.word	0x001afab0

001711a0 <fselect_marked_toggle>:
  1711a0:	4b06      	ldr	r3, [pc, #24]	(1711bc <fselect_marked_toggle+0x1c>)
  1711a2:	681a      	ldr	r2, [r3, #0]
  1711a4:	2a00      	cmp	r2, #0
  1711a6:	d008      	beq.n	1711ba <fselect_marked_toggle+0x1a>
  1711a8:	7a13      	ldrb	r3, [r2, #8]
  1711aa:	2bff      	cmp	r3, #255
  1711ac:	d005      	beq.n	1711ba <fselect_marked_toggle+0x1a>
  1711ae:	06d9      	lsls	r1, r3, #27
  1711b0:	d403      	bmi.n	1711ba <fselect_marked_toggle+0x1a>
  1711b2:	7d13      	ldrb	r3, [r2, #20]
  1711b4:	4259      	negs	r1, r3
  1711b6:	414b      	adcs	r3, r1
  1711b8:	7513      	strb	r3, [r2, #20]
  1711ba:	4770      	bx	lr
  1711bc:	001afab0 	.word	0x001afab0

001711c0 <fselect_real_marked_count>:
  1711c0:	4b08      	ldr	r3, [pc, #32]	(1711e4 <fselect_real_marked_count+0x24>)
  1711c2:	2000      	movs	r0, #0
  1711c4:	681a      	ldr	r2, [r3, #0]
  1711c6:	2110      	movs	r1, #16
  1711c8:	e009      	b.n	1711de <fselect_real_marked_count+0x1e>
  1711ca:	7a13      	ldrb	r3, [r2, #8]
  1711cc:	2bff      	cmp	r3, #255
  1711ce:	d005      	beq.n	1711dc <fselect_real_marked_count+0x1c>
  1711d0:	420b      	tst	r3, r1
  1711d2:	d103      	bne.n	1711dc <fselect_real_marked_count+0x1c>
  1711d4:	7d13      	ldrb	r3, [r2, #20]
  1711d6:	2b00      	cmp	r3, #0
  1711d8:	d000      	beq.n	1711dc <fselect_real_marked_count+0x1c>
  1711da:	3001      	adds	r0, #1
  1711dc:	69d2      	ldr	r2, [r2, #28]
  1711de:	2a00      	cmp	r2, #0
  1711e0:	d1f3      	bne.n	1711ca <fselect_real_marked_count+0xa>
  1711e2:	4770      	bx	lr
  1711e4:	001af8ec 	.word	0x001af8ec

001711e8 <fselect_marked_count>:
  1711e8:	b500      	push	{lr}
  1711ea:	f7ff ffe9 	bl	1711c0 <fselect_real_marked_count>
  1711ee:	2800      	cmp	r0, #0
  1711f0:	d10a      	bne.n	171208 <fselect_marked_count+0x20>
  1711f2:	4b06      	ldr	r3, [pc, #24]	(17120c <fselect_marked_count+0x24>)
  1711f4:	681a      	ldr	r2, [r3, #0]
  1711f6:	2a00      	cmp	r2, #0
  1711f8:	d006      	beq.n	171208 <fselect_marked_count+0x20>
  1711fa:	7a12      	ldrb	r2, [r2, #8]
  1711fc:	2aff      	cmp	r2, #255
  1711fe:	d003      	beq.n	171208 <fselect_marked_count+0x20>
  171200:	2301      	movs	r3, #1
  171202:	0912      	lsrs	r2, r2, #4
  171204:	1c18      	adds	r0, r3, #0
  171206:	4390      	bics	r0, r2
  171208:	bc02      	pop	{r1}
  17120a:	4708      	bx	r1
  17120c:	001afab0 	.word	0x001afab0

00171210 <fselect_marked_inverse_selection>:
  171210:	4b09      	ldr	r3, [pc, #36]	(171238 <fselect_marked_inverse_selection+0x28>)
  171212:	2110      	movs	r1, #16
  171214:	681a      	ldr	r2, [r3, #0]
  171216:	e009      	b.n	17122c <fselect_marked_inverse_selection+0x1c>
  171218:	7a13      	ldrb	r3, [r2, #8]
  17121a:	2bff      	cmp	r3, #255
  17121c:	d005      	beq.n	17122a <fselect_marked_inverse_selection+0x1a>
  17121e:	420b      	tst	r3, r1
  171220:	d103      	bne.n	17122a <fselect_marked_inverse_selection+0x1a>
  171222:	7d13      	ldrb	r3, [r2, #20]
  171224:	4258      	negs	r0, r3
  171226:	4143      	adcs	r3, r0
  171228:	7513      	strb	r3, [r2, #20]
  17122a:	69d2      	ldr	r2, [r2, #28]
  17122c:	2a00      	cmp	r2, #0
  17122e:	d1f3      	bne.n	171218 <fselect_marked_inverse_selection+0x8>
  171230:	4a02      	ldr	r2, [pc, #8]	(17123c <fselect_marked_inverse_selection+0x2c>)
  171232:	2302      	movs	r3, #2
  171234:	6013      	str	r3, [r2, #0]
  171236:	4770      	bx	lr
  171238:	001af8ec 	.word	0x001af8ec
  17123c:	001afb04 	.word	0x001afb04

00171240 <gui_fselect_free_data>:
  171240:	b530      	push	{r4, r5, lr}
  171242:	4b0d      	ldr	r3, [pc, #52]	(171278 <gui_fselect_free_data+0x38>)
  171244:	681d      	ldr	r5, [r3, #0]
  171246:	e009      	b.n	17125c <gui_fselect_free_data+0x1c>
  171248:	6868      	ldr	r0, [r5, #4]
  17124a:	2800      	cmp	r0, #0
  17124c:	d001      	beq.n	171252 <gui_fselect_free_data+0x12>
  17124e:	f030 fb25 	bl	1a189c <__free_from_thumb>
  171252:	1c28      	adds	r0, r5, #0
  171254:	69ec      	ldr	r4, [r5, #28]
  171256:	f030 fb21 	bl	1a189c <__free_from_thumb>
  17125a:	1c25      	adds	r5, r4, #0
  17125c:	2d00      	cmp	r5, #0
  17125e:	d1f3      	bne.n	171248 <gui_fselect_free_data+0x8>
  171260:	4b06      	ldr	r3, [pc, #24]	(17127c <gui_fselect_free_data+0x3c>)
  171262:	601d      	str	r5, [r3, #0]
  171264:	4b06      	ldr	r3, [pc, #24]	(171280 <gui_fselect_free_data+0x40>)
  171266:	601d      	str	r5, [r3, #0]
  171268:	4b03      	ldr	r3, [pc, #12]	(171278 <gui_fselect_free_data+0x38>)
  17126a:	601d      	str	r5, [r3, #0]
  17126c:	4b05      	ldr	r3, [pc, #20]	(171284 <gui_fselect_free_data+0x44>)
  17126e:	601d      	str	r5, [r3, #0]
  171270:	bc30      	pop	{r4, r5}
  171272:	bc01      	pop	{r0}
  171274:	4700      	bx	r0
  171276:	46c0      	nop			(mov r8, r8)
  171278:	001af8ec 	.word	0x001af8ec
  17127c:	001afab0 	.word	0x001afab0
  171280:	001afaac 	.word	0x001afaac
  171284:	001afab4 	.word	0x001afab4

00171288 <gui_fselect_read_dir>:
  171288:	b5f0      	push	{r4, r5, r6, r7, lr}
  17128a:	b086      	sub	sp, #24
  17128c:	9004      	str	r0, [sp, #16]
  17128e:	f7ff ffd7 	bl	171240 <gui_fselect_free_data>
  171292:	9904      	ldr	r1, [sp, #16]
  171294:	780b      	ldrb	r3, [r1, #0]
  171296:	2b41      	cmp	r3, #65
  171298:	d104      	bne.n	1712a4 <gui_fselect_read_dir+0x1c>
  17129a:	784b      	ldrb	r3, [r1, #1]
  17129c:	2b00      	cmp	r3, #0
  17129e:	d101      	bne.n	1712a4 <gui_fselect_read_dir+0x1c>
  1712a0:	4860      	ldr	r0, [pc, #384]	(171424 <gui_fselect_read_dir+0x19c>)
  1712a2:	e000      	b.n	1712a6 <gui_fselect_read_dir+0x1e>
  1712a4:	9804      	ldr	r0, [sp, #16]
  1712a6:	f030 fafd 	bl	1a18a4 <__opendir_from_thumb>
  1712aa:	4c5f      	ldr	r4, [pc, #380]	(171428 <gui_fselect_read_dir+0x1a0>)
  1712ac:	1c07      	adds	r7, r0, #0
  1712ae:	2800      	cmp	r0, #0
  1712b0:	d101      	bne.n	1712b6 <gui_fselect_read_dir+0x2e>
  1712b2:	1c26      	adds	r6, r4, #0
  1712b4:	e068      	b.n	171388 <gui_fselect_read_dir+0x100>
  1712b6:	f030 faf9 	bl	1a18ac <__readdir_from_thumb>
  1712ba:	4b5c      	ldr	r3, [pc, #368]	(17142c <gui_fselect_read_dir+0x1a4>)
  1712bc:	2200      	movs	r2, #0
  1712be:	9205      	str	r2, [sp, #20]
  1712c0:	9303      	str	r3, [sp, #12]
  1712c2:	495b      	ldr	r1, [pc, #364]	(171430 <gui_fselect_read_dir+0x1a8>)
  1712c4:	4a5b      	ldr	r2, [pc, #364]	(171434 <gui_fselect_read_dir+0x1ac>)
  1712c6:	4b5c      	ldr	r3, [pc, #368]	(171438 <gui_fselect_read_dir+0x1b0>)
  1712c8:	1c05      	adds	r5, r0, #0
  1712ca:	1c26      	adds	r6, r4, #0
  1712cc:	9102      	str	r1, [sp, #8]
  1712ce:	9201      	str	r2, [sp, #4]
  1712d0:	9300      	str	r3, [sp, #0]
  1712d2:	e054      	b.n	17137e <gui_fselect_read_dir+0xf6>
  1712d4:	782b      	ldrb	r3, [r5, #0]
  1712d6:	2be5      	cmp	r3, #229
  1712d8:	d04d      	beq.n	171376 <gui_fselect_read_dir+0xee>
  1712da:	882b      	ldrh	r3, [r5, #0]
  1712dc:	2b2e      	cmp	r3, #46
  1712de:	d04a      	beq.n	171376 <gui_fselect_read_dir+0xee>
  1712e0:	2020      	movs	r0, #32
  1712e2:	f030 fae7 	bl	1a18b4 <__malloc_from_thumb>
  1712e6:	6030      	str	r0, [r6, #0]
  1712e8:	2800      	cmp	r0, #0
  1712ea:	d044      	beq.n	171376 <gui_fselect_read_dir+0xee>
  1712ec:	9903      	ldr	r1, [sp, #12]
  1712ee:	680b      	ldr	r3, [r1, #0]
  1712f0:	6003      	str	r3, [r0, #0]
  1712f2:	1c28      	adds	r0, r5, #0
  1712f4:	f030 fac6 	bl	1a1884 <__strlen_from_thumb>
  1712f8:	3001      	adds	r0, #1
  1712fa:	6834      	ldr	r4, [r6, #0]
  1712fc:	f030 fada 	bl	1a18b4 <__malloc_from_thumb>
  171300:	6060      	str	r0, [r4, #4]
  171302:	6833      	ldr	r3, [r6, #0]
  171304:	6858      	ldr	r0, [r3, #4]
  171306:	2800      	cmp	r0, #0
  171308:	d002      	beq.n	171310 <gui_fselect_read_dir+0x88>
  17130a:	1c29      	adds	r1, r5, #0
  17130c:	f030 fad6 	bl	1a18bc <__strcpy_from_thumb>
  171310:	9901      	ldr	r1, [sp, #4]
  171312:	9a04      	ldr	r2, [sp, #16]
  171314:	1c2b      	adds	r3, r5, #0
  171316:	9802      	ldr	r0, [sp, #8]
  171318:	f030 fa74 	bl	1a1804 <__sprintf_from_thumb>
  17131c:	9900      	ldr	r1, [sp, #0]
  17131e:	9802      	ldr	r0, [sp, #8]
  171320:	f030 fad0 	bl	1a18c4 <__stat_from_thumb>
  171324:	6831      	ldr	r1, [r6, #0]
  171326:	2800      	cmp	r0, #0
  171328:	d10a      	bne.n	171340 <gui_fselect_read_dir+0xb8>
  17132a:	9a00      	ldr	r2, [sp, #0]
  17132c:	6853      	ldr	r3, [r2, #4]
  17132e:	720b      	strb	r3, [r1, #8]
  171330:	9900      	ldr	r1, [sp, #0]
  171332:	6832      	ldr	r2, [r6, #0]
  171334:	688b      	ldr	r3, [r1, #8]
  171336:	60d3      	str	r3, [r2, #12]
  171338:	6832      	ldr	r2, [r6, #0]
  17133a:	690b      	ldr	r3, [r1, #16]
  17133c:	6113      	str	r3, [r2, #16]
  17133e:	e00d      	b.n	17135c <gui_fselect_read_dir+0xd4>
  171340:	682b      	ldr	r3, [r5, #0]
  171342:	4a3e      	ldr	r2, [pc, #248]	(17143c <gui_fselect_read_dir+0x1b4>)
  171344:	401a      	ands	r2, r3
  171346:	4b3e      	ldr	r3, [pc, #248]	(171440 <gui_fselect_read_dir+0x1b8>)
  171348:	429a      	cmp	r2, r3
  17134a:	d001      	beq.n	171350 <gui_fselect_read_dir+0xc8>
  17134c:	23ff      	movs	r3, #255
  17134e:	e000      	b.n	171352 <gui_fselect_read_dir+0xca>
  171350:	2310      	movs	r3, #16
  171352:	720b      	strb	r3, [r1, #8]
  171354:	6832      	ldr	r2, [r6, #0]
  171356:	2300      	movs	r3, #0
  171358:	6113      	str	r3, [r2, #16]
  17135a:	60d3      	str	r3, [r2, #12]
  17135c:	6832      	ldr	r2, [r6, #0]
  17135e:	2300      	movs	r3, #0
  171360:	7513      	strb	r3, [r2, #20]
  171362:	6833      	ldr	r3, [r6, #0]
  171364:	9a05      	ldr	r2, [sp, #20]
  171366:	619a      	str	r2, [r3, #24]
  171368:	4a30      	ldr	r2, [pc, #192]	(17142c <gui_fselect_read_dir+0x1a4>)
  17136a:	6836      	ldr	r6, [r6, #0]
  17136c:	6813      	ldr	r3, [r2, #0]
  17136e:	9605      	str	r6, [sp, #20]
  171370:	3301      	adds	r3, #1
  171372:	361c      	adds	r6, #28
  171374:	6013      	str	r3, [r2, #0]
  171376:	1c38      	adds	r0, r7, #0
  171378:	f030 fa98 	bl	1a18ac <__readdir_from_thumb>
  17137c:	1c05      	adds	r5, r0, #0
  17137e:	2d00      	cmp	r5, #0
  171380:	d1a8      	bne.n	1712d4 <gui_fselect_read_dir+0x4c>
  171382:	1c38      	adds	r0, r7, #0
  171384:	f030 faa2 	bl	1a18cc <__closedir_from_thumb>
  171388:	2500      	movs	r5, #0
  17138a:	6035      	str	r5, [r6, #0]
  17138c:	4e27      	ldr	r6, [pc, #156]	(17142c <gui_fselect_read_dir+0x1a4>)
  17138e:	6830      	ldr	r0, [r6, #0]
  171390:	2800      	cmp	r0, #0
  171392:	d03d      	beq.n	171410 <gui_fselect_read_dir+0x188>
  171394:	0080      	lsls	r0, r0, #2
  171396:	f030 fa8d 	bl	1a18b4 <__malloc_from_thumb>
  17139a:	1c04      	adds	r4, r0, #0
  17139c:	2800      	cmp	r0, #0
  17139e:	d037      	beq.n	171410 <gui_fselect_read_dir+0x188>
  1713a0:	4b21      	ldr	r3, [pc, #132]	(171428 <gui_fselect_read_dir+0x1a0>)
  1713a2:	6035      	str	r5, [r6, #0]
  1713a4:	6819      	ldr	r1, [r3, #0]
  1713a6:	1c35      	adds	r5, r6, #0
  1713a8:	e005      	b.n	1713b6 <gui_fselect_read_dir+0x12e>
  1713aa:	682b      	ldr	r3, [r5, #0]
  1713ac:	009a      	lsls	r2, r3, #2
  1713ae:	3301      	adds	r3, #1
  1713b0:	50a1      	str	r1, [r4, r2]
  1713b2:	602b      	str	r3, [r5, #0]
  1713b4:	69c9      	ldr	r1, [r1, #28]
  1713b6:	2900      	cmp	r1, #0
  1713b8:	d1f7      	bne.n	1713aa <gui_fselect_read_dir+0x122>
  1713ba:	6831      	ldr	r1, [r6, #0]
  1713bc:	1c20      	adds	r0, r4, #0
  1713be:	4b21      	ldr	r3, [pc, #132]	(171444 <gui_fselect_read_dir+0x1bc>)
  1713c0:	2204      	movs	r2, #4
  1713c2:	f030 fa87 	bl	1a18d4 <__qsort_from_thumb>
  1713c6:	1c2f      	adds	r7, r5, #0
  1713c8:	1c21      	adds	r1, r4, #0
  1713ca:	2000      	movs	r0, #0
  1713cc:	e008      	b.n	1713e0 <gui_fselect_read_dir+0x158>
  1713ce:	680b      	ldr	r3, [r1, #0]
  1713d0:	6018      	str	r0, [r3, #0]
  1713d2:	680a      	ldr	r2, [r1, #0]
  1713d4:	684b      	ldr	r3, [r1, #4]
  1713d6:	3001      	adds	r0, #1
  1713d8:	61d3      	str	r3, [r2, #28]
  1713da:	684a      	ldr	r2, [r1, #4]
  1713dc:	c908      	ldmia	r1!, {r3}
  1713de:	6193      	str	r3, [r2, #24]
  1713e0:	683d      	ldr	r5, [r7, #0]
  1713e2:	1e6b      	subs	r3, r5, #1
  1713e4:	4298      	cmp	r0, r3
  1713e6:	d3f2      	bcc.n	1713ce <gui_fselect_read_dir+0x146>
  1713e8:	2201      	movs	r2, #1
  1713ea:	1aab      	subs	r3, r5, r2
  1713ec:	009b      	lsls	r3, r3, #2
  1713ee:	6820      	ldr	r0, [r4, #0]
  1713f0:	58e1      	ldr	r1, [r4, r3]
  1713f2:	2300      	movs	r3, #0
  1713f4:	6183      	str	r3, [r0, #24]
  1713f6:	61cb      	str	r3, [r1, #28]
  1713f8:	6833      	ldr	r3, [r6, #0]
  1713fa:	1c20      	adds	r0, r4, #0
  1713fc:	1a9a      	subs	r2, r3, r2
  1713fe:	0092      	lsls	r2, r2, #2
  171400:	58a2      	ldr	r2, [r4, r2]
  171402:	3b01      	subs	r3, #1
  171404:	6013      	str	r3, [r2, #0]
  171406:	6823      	ldr	r3, [r4, #0]
  171408:	4a07      	ldr	r2, [pc, #28]	(171428 <gui_fselect_read_dir+0x1a0>)
  17140a:	6013      	str	r3, [r2, #0]
  17140c:	f030 fa46 	bl	1a189c <__free_from_thumb>
  171410:	4b05      	ldr	r3, [pc, #20]	(171428 <gui_fselect_read_dir+0x1a0>)
  171412:	b006      	add	sp, #24
  171414:	681a      	ldr	r2, [r3, #0]
  171416:	4b0c      	ldr	r3, [pc, #48]	(171448 <gui_fselect_read_dir+0x1c0>)
  171418:	601a      	str	r2, [r3, #0]
  17141a:	4b0c      	ldr	r3, [pc, #48]	(17144c <gui_fselect_read_dir+0x1c4>)
  17141c:	601a      	str	r2, [r3, #0]
  17141e:	bcf0      	pop	{r4, r5, r6, r7}
  171420:	bc01      	pop	{r0}
  171422:	4700      	bx	r0
  171424:	001a8a66 	.word	0x001a8a66
  171428:	001af8ec 	.word	0x001af8ec
  17142c:	001afab4 	.word	0x001afab4
  171430:	001afa44 	.word	0x001afa44
  171434:	001a7a77 	.word	0x001a7a77
  171438:	001af8f0 	.word	0x001af8f0
  17143c:	00ffffff 	.word	0x00ffffff
  171440:	00002e2e 	.word	0x00002e2e
  171444:	0016e834 	.word	0x0016e834
  171448:	001afab0 	.word	0x001afab0
  17144c:	001afaac 	.word	0x001afaac

00171450 <gui_fselect_marked_free_data>:
  171450:	b530      	push	{r4, r5, lr}
  171452:	4b0c      	ldr	r3, [pc, #48]	(171484 <gui_fselect_marked_free_data+0x34>)
  171454:	681d      	ldr	r5, [r3, #0]
  171456:	e009      	b.n	17146c <gui_fselect_marked_free_data+0x1c>
  171458:	6868      	ldr	r0, [r5, #4]
  17145a:	2800      	cmp	r0, #0
  17145c:	d001      	beq.n	171462 <gui_fselect_marked_free_data+0x12>
  17145e:	f030 fa1d 	bl	1a189c <__free_from_thumb>
  171462:	1c28      	adds	r0, r5, #0
  171464:	69ec      	ldr	r4, [r5, #28]
  171466:	f030 fa19 	bl	1a189c <__free_from_thumb>
  17146a:	1c25      	adds	r5, r4, #0
  17146c:	2d00      	cmp	r5, #0
  17146e:	d1f3      	bne.n	171458 <gui_fselect_marked_free_data+0x8>
  171470:	4b04      	ldr	r3, [pc, #16]	(171484 <gui_fselect_marked_free_data+0x34>)
  171472:	601d      	str	r5, [r3, #0]
  171474:	4b04      	ldr	r3, [pc, #16]	(171488 <gui_fselect_marked_free_data+0x38>)
  171476:	601d      	str	r5, [r3, #0]
  171478:	4b04      	ldr	r3, [pc, #16]	(17148c <gui_fselect_marked_free_data+0x3c>)
  17147a:	701d      	strb	r5, [r3, #0]
  17147c:	bc30      	pop	{r4, r5}
  17147e:	bc01      	pop	{r0}
  171480:	4700      	bx	r0
  171482:	46c0      	nop			(mov r8, r8)
  171484:	001af908 	.word	0x001af908
  171488:	001afabc 	.word	0x001afabc
  17148c:	001afac0 	.word	0x001afac0

00171490 <exit_fselect>:
  171490:	b510      	push	{r4, lr}
  171492:	1c04      	adds	r4, r0, #0
  171494:	f7ff fed4 	bl	171240 <gui_fselect_free_data>
  171498:	f7ff ffda 	bl	171450 <gui_fselect_marked_free_data>
  17149c:	4b0e      	ldr	r3, [pc, #56]	(1714d8 <exit_fselect+0x48>)
  17149e:	681b      	ldr	r3, [r3, #0]
  1714a0:	2b00      	cmp	r3, #0
  1714a2:	d005      	beq.n	1714b0 <exit_fselect+0x20>
  1714a4:	4b0d      	ldr	r3, [pc, #52]	(1714dc <exit_fselect+0x4c>)
  1714a6:	6818      	ldr	r0, [r3, #0]
  1714a8:	f001 fdc0 	bl	17302c <gui_set_mode>
  1714ac:	f7fe f8b6 	bl	16f61c <draw_restore>
  1714b0:	4b0b      	ldr	r3, [pc, #44]	(1714e0 <exit_fselect+0x50>)
  1714b2:	681b      	ldr	r3, [r3, #0]
  1714b4:	2b00      	cmp	r3, #0
  1714b6:	d002      	beq.n	1714be <exit_fselect+0x2e>
  1714b8:	1c20      	adds	r0, r4, #0
  1714ba:	f001 fbc3 	bl	172c44 <gui_fselect_force_redraw+0x18>
  1714be:	4b06      	ldr	r3, [pc, #24]	(1714d8 <exit_fselect+0x48>)
  1714c0:	681b      	ldr	r3, [r3, #0]
  1714c2:	2b00      	cmp	r3, #0
  1714c4:	d105      	bne.n	1714d2 <exit_fselect+0x42>
  1714c6:	4b05      	ldr	r3, [pc, #20]	(1714dc <exit_fselect+0x4c>)
  1714c8:	6818      	ldr	r0, [r3, #0]
  1714ca:	f001 fdaf 	bl	17302c <gui_set_mode>
  1714ce:	f7fe f8a5 	bl	16f61c <draw_restore>
  1714d2:	bc10      	pop	{r4}
  1714d4:	bc01      	pop	{r0}
  1714d6:	4700      	bx	r0
  1714d8:	001afb14 	.word	0x001afb14
  1714dc:	001afaa8 	.word	0x001afaa8
  1714e0:	001afb0c 	.word	0x001afb0c

001714e4 <gui_fselect_kbd_process>:
  1714e4:	b570      	push	{r4, r5, r6, lr}
  1714e6:	f030 f9c5 	bl	1a1874 <__kbd_get_autoclicked_key_from_thumb>
  1714ea:	1c04      	adds	r4, r0, #0
  1714ec:	f030 f9c6 	bl	1a187c <__get_jogdial_direction_from_thumb>
  1714f0:	4320      	orrs	r0, r4
  1714f2:	2808      	cmp	r0, #8
  1714f4:	d04c      	beq.n	171590 <gui_fselect_kbd_process+0xac>
  1714f6:	2808      	cmp	r0, #8
  1714f8:	dc0f      	bgt.n	17151a <gui_fselect_kbd_process+0x36>
  1714fa:	2803      	cmp	r0, #3
  1714fc:	d057      	beq.n	1715ae <gui_fselect_kbd_process+0xca>
  1714fe:	2803      	cmp	r0, #3
  171500:	dc05      	bgt.n	17150e <gui_fselect_kbd_process+0x2a>
  171502:	2801      	cmp	r0, #1
  171504:	d01a      	beq.n	17153c <gui_fselect_kbd_process+0x58>
  171506:	2802      	cmp	r0, #2
  171508:	d000      	beq.n	17150c <gui_fselect_kbd_process+0x28>
  17150a:	e106      	b.n	17171a <gui_fselect_kbd_process+0x236>
  17150c:	e024      	b.n	171558 <gui_fselect_kbd_process+0x74>
  17150e:	2804      	cmp	r0, #4
  171510:	d045      	beq.n	17159e <gui_fselect_kbd_process+0xba>
  171512:	2805      	cmp	r0, #5
  171514:	d000      	beq.n	171518 <gui_fselect_kbd_process+0x34>
  171516:	e100      	b.n	17171a <gui_fselect_kbd_process+0x236>
  171518:	e0a3      	b.n	171662 <gui_fselect_kbd_process+0x17e>
  17151a:	280d      	cmp	r0, #13
  17151c:	d100      	bne.n	171520 <gui_fselect_kbd_process+0x3c>
  17151e:	e0db      	b.n	1716d8 <gui_fselect_kbd_process+0x1f4>
  171520:	280d      	cmp	r0, #13
  171522:	dc05      	bgt.n	171530 <gui_fselect_kbd_process+0x4c>
  171524:	2809      	cmp	r0, #9
  171526:	d027      	beq.n	171578 <gui_fselect_kbd_process+0x94>
  171528:	280a      	cmp	r0, #10
  17152a:	d000      	beq.n	17152e <gui_fselect_kbd_process+0x4a>
  17152c:	e0f5      	b.n	17171a <gui_fselect_kbd_process+0x236>
  17152e:	e0f1      	b.n	171714 <gui_fselect_kbd_process+0x230>
  171530:	2864      	cmp	r0, #100
  171532:	d003      	beq.n	17153c <gui_fselect_kbd_process+0x58>
  171534:	2865      	cmp	r0, #101
  171536:	d000      	beq.n	17153a <gui_fselect_kbd_process+0x56>
  171538:	e0ef      	b.n	17171a <gui_fselect_kbd_process+0x236>
  17153a:	e00d      	b.n	171558 <gui_fselect_kbd_process+0x74>
  17153c:	4b78      	ldr	r3, [pc, #480]	(171720 <gui_fselect_kbd_process+0x23c>)
  17153e:	681b      	ldr	r3, [r3, #0]
  171540:	2b00      	cmp	r3, #0
  171542:	d100      	bne.n	171546 <gui_fselect_kbd_process+0x62>
  171544:	e0e9      	b.n	17171a <gui_fselect_kbd_process+0x236>
  171546:	2006      	movs	r0, #6
  171548:	f030 f990 	bl	1a186c <__kbd_is_key_pressed_from_thumb>
  17154c:	2800      	cmp	r0, #0
  17154e:	d001      	beq.n	171554 <gui_fselect_kbd_process+0x70>
  171550:	2004      	movs	r0, #4
  171552:	e017      	b.n	171584 <gui_fselect_kbd_process+0xa0>
  171554:	2001      	movs	r0, #1
  171556:	e015      	b.n	171584 <gui_fselect_kbd_process+0xa0>
  171558:	4b71      	ldr	r3, [pc, #452]	(171720 <gui_fselect_kbd_process+0x23c>)
  17155a:	681b      	ldr	r3, [r3, #0]
  17155c:	2b00      	cmp	r3, #0
  17155e:	d100      	bne.n	171562 <gui_fselect_kbd_process+0x7e>
  171560:	e0db      	b.n	17171a <gui_fselect_kbd_process+0x236>
  171562:	2006      	movs	r0, #6
  171564:	f030 f982 	bl	1a186c <__kbd_is_key_pressed_from_thumb>
  171568:	2800      	cmp	r0, #0
  17156a:	d001      	beq.n	171570 <gui_fselect_kbd_process+0x8c>
  17156c:	2004      	movs	r0, #4
  17156e:	e000      	b.n	171572 <gui_fselect_kbd_process+0x8e>
  171570:	2001      	movs	r0, #1
  171572:	f7ff fddb 	bl	17112c <fselect_goto_next>
  171576:	e007      	b.n	171588 <gui_fselect_kbd_process+0xa4>
  171578:	4b69      	ldr	r3, [pc, #420]	(171720 <gui_fselect_kbd_process+0x23c>)
  17157a:	681b      	ldr	r3, [r3, #0]
  17157c:	2b00      	cmp	r3, #0
  17157e:	d100      	bne.n	171582 <gui_fselect_kbd_process+0x9e>
  171580:	e0cb      	b.n	17171a <gui_fselect_kbd_process+0x236>
  171582:	2009      	movs	r0, #9
  171584:	f7ff fd9e 	bl	1710c4 <fselect_goto_prev>
  171588:	4a66      	ldr	r2, [pc, #408]	(171724 <gui_fselect_kbd_process+0x240>)
  17158a:	2301      	movs	r3, #1
  17158c:	6013      	str	r3, [r2, #0]
  17158e:	e0c4      	b.n	17171a <gui_fselect_kbd_process+0x236>
  171590:	4b63      	ldr	r3, [pc, #396]	(171720 <gui_fselect_kbd_process+0x23c>)
  171592:	681b      	ldr	r3, [r3, #0]
  171594:	2b00      	cmp	r3, #0
  171596:	d100      	bne.n	17159a <gui_fselect_kbd_process+0xb6>
  171598:	e0bf      	b.n	17171a <gui_fselect_kbd_process+0x236>
  17159a:	2009      	movs	r0, #9
  17159c:	e7e9      	b.n	171572 <gui_fselect_kbd_process+0x8e>
  17159e:	4b60      	ldr	r3, [pc, #384]	(171720 <gui_fselect_kbd_process+0x23c>)
  1715a0:	681b      	ldr	r3, [r3, #0]
  1715a2:	2b00      	cmp	r3, #0
  1715a4:	d100      	bne.n	1715a8 <gui_fselect_kbd_process+0xc4>
  1715a6:	e0b8      	b.n	17171a <gui_fselect_kbd_process+0x236>
  1715a8:	f7ff fdfa 	bl	1711a0 <fselect_marked_toggle>
  1715ac:	e7e0      	b.n	171570 <gui_fselect_kbd_process+0x8c>
  1715ae:	4b5c      	ldr	r3, [pc, #368]	(171720 <gui_fselect_kbd_process+0x23c>)
  1715b0:	681b      	ldr	r3, [r3, #0]
  1715b2:	2b00      	cmp	r3, #0
  1715b4:	d100      	bne.n	1715b8 <gui_fselect_kbd_process+0xd4>
  1715b6:	e0b0      	b.n	17171a <gui_fselect_kbd_process+0x236>
  1715b8:	7a1b      	ldrb	r3, [r3, #8]
  1715ba:	2bff      	cmp	r3, #255
  1715bc:	d100      	bne.n	1715c0 <gui_fselect_kbd_process+0xdc>
  1715be:	e0ac      	b.n	17171a <gui_fselect_kbd_process+0x236>
  1715c0:	f7ff fe12 	bl	1711e8 <fselect_marked_count>
  1715c4:	2800      	cmp	r0, #0
  1715c6:	d101      	bne.n	1715cc <gui_fselect_kbd_process+0xe8>
  1715c8:	2513      	movs	r5, #19
  1715ca:	e012      	b.n	1715f2 <gui_fselect_kbd_process+0x10e>
  1715cc:	f7ff fe0c 	bl	1711e8 <fselect_marked_count>
  1715d0:	2801      	cmp	r0, #1
  1715d2:	d901      	bls.n	1715d8 <gui_fselect_kbd_process+0xf4>
  1715d4:	257b      	movs	r5, #123
  1715d6:	e000      	b.n	1715da <gui_fselect_kbd_process+0xf6>
  1715d8:	251b      	movs	r5, #27
  1715da:	4b51      	ldr	r3, [pc, #324]	(171720 <gui_fselect_kbd_process+0x23c>)
  1715dc:	681b      	ldr	r3, [r3, #0]
  1715de:	7d1b      	ldrb	r3, [r3, #20]
  1715e0:	2b00      	cmp	r3, #0
  1715e2:	d106      	bne.n	1715f2 <gui_fselect_kbd_process+0x10e>
  1715e4:	f7ff fdec 	bl	1711c0 <fselect_real_marked_count>
  1715e8:	2800      	cmp	r0, #0
  1715ea:	d002      	beq.n	1715f2 <gui_fselect_kbd_process+0x10e>
  1715ec:	2380      	movs	r3, #128
  1715ee:	005b      	lsls	r3, r3, #1
  1715f0:	431d      	orrs	r5, r3
  1715f2:	4b4d      	ldr	r3, [pc, #308]	(171728 <gui_fselect_kbd_process+0x244>)
  1715f4:	781b      	ldrb	r3, [r3, #0]
  1715f6:	3b01      	subs	r3, #1
  1715f8:	061b      	lsls	r3, r3, #24
  1715fa:	0e1b      	lsrs	r3, r3, #24
  1715fc:	2b01      	cmp	r3, #1
  1715fe:	d801      	bhi.n	171604 <gui_fselect_kbd_process+0x120>
  171600:	2304      	movs	r3, #4
  171602:	431d      	orrs	r5, r3
  171604:	4b46      	ldr	r3, [pc, #280]	(171720 <gui_fselect_kbd_process+0x23c>)
  171606:	6819      	ldr	r1, [r3, #0]
  171608:	7a0b      	ldrb	r3, [r1, #8]
  17160a:	06da      	lsls	r2, r3, #27
  17160c:	d50c      	bpl.n	171628 <gui_fselect_kbd_process+0x144>
  17160e:	684a      	ldr	r2, [r1, #4]
  171610:	7813      	ldrb	r3, [r2, #0]
  171612:	2b2e      	cmp	r3, #46
  171614:	d108      	bne.n	171628 <gui_fselect_kbd_process+0x144>
  171616:	7853      	ldrb	r3, [r2, #1]
  171618:	2b2e      	cmp	r3, #46
  17161a:	d105      	bne.n	171628 <gui_fselect_kbd_process+0x144>
  17161c:	7893      	ldrb	r3, [r2, #2]
  17161e:	2b00      	cmp	r3, #0
  171620:	d102      	bne.n	171628 <gui_fselect_kbd_process+0x144>
  171622:	78d3      	ldrb	r3, [r2, #3]
  171624:	2b43      	cmp	r3, #67
  171626:	d101      	bne.n	17162c <gui_fselect_kbd_process+0x148>
  171628:	2380      	movs	r3, #128
  17162a:	431d      	orrs	r5, r3
  17162c:	68cc      	ldr	r4, [r1, #12]
  17162e:	f030 f955 	bl	1a18dc <__hook_raw_size_from_thumb>
  171632:	4284      	cmp	r4, r0
  171634:	d102      	bne.n	17163c <gui_fselect_kbd_process+0x158>
  171636:	2380      	movs	r3, #128
  171638:	009b      	lsls	r3, r3, #2
  17163a:	431d      	orrs	r5, r3
  17163c:	f7ff fdd4 	bl	1711e8 <fselect_marked_count>
  171640:	2801      	cmp	r0, #1
  171642:	d806      	bhi.n	171652 <gui_fselect_kbd_process+0x16e>
  171644:	4b36      	ldr	r3, [pc, #216]	(171720 <gui_fselect_kbd_process+0x23c>)
  171646:	681b      	ldr	r3, [r3, #0]
  171648:	68dc      	ldr	r4, [r3, #12]
  17164a:	f030 f947 	bl	1a18dc <__hook_raw_size_from_thumb>
  17164e:	4284      	cmp	r4, r0
  171650:	d902      	bls.n	171658 <gui_fselect_kbd_process+0x174>
  171652:	2380      	movs	r3, #128
  171654:	00db      	lsls	r3, r3, #3
  171656:	431d      	orrs	r5, r3
  171658:	4934      	ldr	r1, [pc, #208]	(17172c <gui_fselect_kbd_process+0x248>)
  17165a:	1c28      	adds	r0, r5, #0
  17165c:	f009 fcbc 	bl	17afd8 <gui_mpopup_init>
  171660:	e05b      	b.n	17171a <gui_fselect_kbd_process+0x236>
  171662:	4b2f      	ldr	r3, [pc, #188]	(171720 <gui_fselect_kbd_process+0x23c>)
  171664:	681a      	ldr	r2, [r3, #0]
  171666:	2a00      	cmp	r2, #0
  171668:	d057      	beq.n	17171a <gui_fselect_kbd_process+0x236>
  17166a:	7a11      	ldrb	r1, [r2, #8]
  17166c:	29ff      	cmp	r1, #255
  17166e:	d054      	beq.n	17171a <gui_fselect_kbd_process+0x236>
  171670:	4b2c      	ldr	r3, [pc, #176]	(171724 <gui_fselect_kbd_process+0x240>)
  171672:	681b      	ldr	r3, [r3, #0]
  171674:	2b00      	cmp	r3, #0
  171676:	d150      	bne.n	17171a <gui_fselect_kbd_process+0x236>
  171678:	4e2d      	ldr	r6, [pc, #180]	(171730 <gui_fselect_kbd_process+0x24c>)
  17167a:	6855      	ldr	r5, [r2, #4]
  17167c:	06cb      	lsls	r3, r1, #27
  17167e:	d522      	bpl.n	1716c6 <gui_fselect_kbd_process+0x1e2>
  171680:	1c30      	adds	r0, r6, #0
  171682:	f030 f8ff 	bl	1a1884 <__strlen_from_thumb>
  171686:	782b      	ldrb	r3, [r5, #0]
  171688:	1c01      	adds	r1, r0, #0
  17168a:	1c02      	adds	r2, r0, #0
  17168c:	2b2e      	cmp	r3, #46
  17168e:	d110      	bne.n	1716b2 <gui_fselect_kbd_process+0x1ce>
  171690:	786b      	ldrb	r3, [r5, #1]
  171692:	2b2e      	cmp	r3, #46
  171694:	d10d      	bne.n	1716b2 <gui_fselect_kbd_process+0x1ce>
  171696:	78ab      	ldrb	r3, [r5, #2]
  171698:	2b00      	cmp	r3, #0
  17169a:	d10a      	bne.n	1716b2 <gui_fselect_kbd_process+0x1ce>
  17169c:	1e43      	subs	r3, r0, #1
  17169e:	18f0      	adds	r0, r6, r3
  1716a0:	7803      	ldrb	r3, [r0, #0]
  1716a2:	3901      	subs	r1, #1
  1716a4:	3801      	subs	r0, #1
  1716a6:	2b2f      	cmp	r3, #47
  1716a8:	d1fa      	bne.n	1716a0 <gui_fselect_kbd_process+0x1bc>
  1716aa:	4a21      	ldr	r2, [pc, #132]	(171730 <gui_fselect_kbd_process+0x24c>)
  1716ac:	2300      	movs	r3, #0
  1716ae:	5453      	strb	r3, [r2, r1]
  1716b0:	e005      	b.n	1716be <gui_fselect_kbd_process+0x1da>
  1716b2:	481f      	ldr	r0, [pc, #124]	(171730 <gui_fselect_kbd_process+0x24c>)
  1716b4:	491f      	ldr	r1, [pc, #124]	(171734 <gui_fselect_kbd_process+0x250>)
  1716b6:	1880      	adds	r0, r0, r2
  1716b8:	1c2a      	adds	r2, r5, #0
  1716ba:	f030 f8a3 	bl	1a1804 <__sprintf_from_thumb>
  1716be:	481c      	ldr	r0, [pc, #112]	(171730 <gui_fselect_kbd_process+0x24c>)
  1716c0:	f7ff fde2 	bl	171288 <gui_fselect_read_dir>
  1716c4:	e760      	b.n	171588 <gui_fselect_kbd_process+0xa4>
  1716c6:	4c1c      	ldr	r4, [pc, #112]	(171738 <gui_fselect_kbd_process+0x254>)
  1716c8:	491c      	ldr	r1, [pc, #112]	(17173c <gui_fselect_kbd_process+0x258>)
  1716ca:	1c20      	adds	r0, r4, #0
  1716cc:	1c32      	adds	r2, r6, #0
  1716ce:	1c2b      	adds	r3, r5, #0
  1716d0:	f030 f898 	bl	1a1804 <__sprintf_from_thumb>
  1716d4:	1c20      	adds	r0, r4, #0
  1716d6:	e01e      	b.n	171716 <gui_fselect_kbd_process+0x232>
  1716d8:	4b11      	ldr	r3, [pc, #68]	(171720 <gui_fselect_kbd_process+0x23c>)
  1716da:	681b      	ldr	r3, [r3, #0]
  1716dc:	2b00      	cmp	r3, #0
  1716de:	d01c      	beq.n	17171a <gui_fselect_kbd_process+0x236>
  1716e0:	7a1a      	ldrb	r2, [r3, #8]
  1716e2:	2aff      	cmp	r2, #255
  1716e4:	d019      	beq.n	17171a <gui_fselect_kbd_process+0x236>
  1716e6:	06d1      	lsls	r1, r2, #27
  1716e8:	d50d      	bpl.n	171706 <gui_fselect_kbd_process+0x222>
  1716ea:	685a      	ldr	r2, [r3, #4]
  1716ec:	7813      	ldrb	r3, [r2, #0]
  1716ee:	2b2e      	cmp	r3, #46
  1716f0:	d105      	bne.n	1716fe <gui_fselect_kbd_process+0x21a>
  1716f2:	7853      	ldrb	r3, [r2, #1]
  1716f4:	2b2e      	cmp	r3, #46
  1716f6:	d102      	bne.n	1716fe <gui_fselect_kbd_process+0x21a>
  1716f8:	7893      	ldrb	r3, [r2, #2]
  1716fa:	2b00      	cmp	r3, #0
  1716fc:	d00d      	beq.n	17171a <gui_fselect_kbd_process+0x236>
  1716fe:	4b10      	ldr	r3, [pc, #64]	(171740 <gui_fselect_kbd_process+0x25c>)
  171700:	20ab      	movs	r0, #171
  171702:	21ac      	movs	r1, #172
  171704:	e002      	b.n	17170c <gui_fselect_kbd_process+0x228>
  171706:	4b0f      	ldr	r3, [pc, #60]	(171744 <gui_fselect_kbd_process+0x260>)
  171708:	20ad      	movs	r0, #173
  17170a:	21ae      	movs	r1, #174
  17170c:	4a0e      	ldr	r2, [pc, #56]	(171748 <gui_fselect_kbd_process+0x264>)
  17170e:	f7ff fc5b 	bl	170fc8 <gui_mbox_init>
  171712:	e002      	b.n	17171a <gui_fselect_kbd_process+0x236>
  171714:	2000      	movs	r0, #0
  171716:	f7ff febb 	bl	171490 <exit_fselect>
  17171a:	bc70      	pop	{r4, r5, r6}
  17171c:	bc01      	pop	{r0}
  17171e:	4700      	bx	r0
  171720:	001afab0 	.word	0x001afab0
  171724:	001afb04 	.word	0x001afb04
  171728:	001afac0 	.word	0x001afac0
  17172c:	00172211 	.word	0x00172211
  171730:	001af918 	.word	0x001af918
  171734:	001a834e 	.word	0x001a834e
  171738:	001af9e0 	.word	0x001af9e0
  17173c:	001a7a77 	.word	0x001a7a77
  171740:	001717a5 	.word	0x001717a5
  171744:	0017174d 	.word	0x0017174d
  171748:	00001106 	.word	0x00001106

0017174c <fselect_delete_file_cb>:
  17174c:	b530      	push	{r4, r5, lr}
  17174e:	2802      	cmp	r0, #2
  171750:	d117      	bne.n	171782 <fselect_delete_file_cb+0x36>
  171752:	2001      	movs	r0, #1
  171754:	f030 f83a 	bl	1a17cc <__debug_led_from_thumb>
  171758:	4b0d      	ldr	r3, [pc, #52]	(171790 <fselect_delete_file_cb+0x44>)
  17175a:	4c0e      	ldr	r4, [pc, #56]	(171794 <fselect_delete_file_cb+0x48>)
  17175c:	4d0e      	ldr	r5, [pc, #56]	(171798 <fselect_delete_file_cb+0x4c>)
  17175e:	681b      	ldr	r3, [r3, #0]
  171760:	490e      	ldr	r1, [pc, #56]	(17179c <fselect_delete_file_cb+0x50>)
  171762:	685b      	ldr	r3, [r3, #4]
  171764:	1c2a      	adds	r2, r5, #0
  171766:	1c20      	adds	r0, r4, #0
  171768:	f030 f84c 	bl	1a1804 <__sprintf_from_thumb>
  17176c:	1c20      	adds	r0, r4, #0
  17176e:	f030 f8b9 	bl	1a18e4 <__remove_from_thumb>
  171772:	2000      	movs	r0, #0
  171774:	f030 f82a 	bl	1a17cc <__debug_led_from_thumb>
  171778:	2300      	movs	r3, #0
  17177a:	7023      	strb	r3, [r4, #0]
  17177c:	1c28      	adds	r0, r5, #0
  17177e:	f7ff fd83 	bl	171288 <gui_fselect_read_dir>
  171782:	4a07      	ldr	r2, [pc, #28]	(1717a0 <fselect_delete_file_cb+0x54>)
  171784:	2302      	movs	r3, #2
  171786:	6013      	str	r3, [r2, #0]
  171788:	bc30      	pop	{r4, r5}
  17178a:	bc01      	pop	{r0}
  17178c:	4700      	bx	r0
  17178e:	46c0      	nop			(mov r8, r8)
  171790:	001afab0 	.word	0x001afab0
  171794:	001af9e0 	.word	0x001af9e0
  171798:	001af918 	.word	0x001af918
  17179c:	001a7a77 	.word	0x001a7a77
  1717a0:	001afb04 	.word	0x001afb04

001717a4 <fselect_delete_folder_cb>:
  1717a4:	b5f0      	push	{r4, r5, r6, r7, lr}
  1717a6:	b081      	sub	sp, #4
  1717a8:	2802      	cmp	r0, #2
  1717aa:	d156      	bne.n	17185a <fselect_delete_folder_cb+0xb6>
  1717ac:	4d2e      	ldr	r5, [pc, #184]	(171868 <fselect_delete_folder_cb+0xc4>)
  1717ae:	1c28      	adds	r0, r5, #0
  1717b0:	f030 f868 	bl	1a1884 <__strlen_from_thumb>
  1717b4:	4b2d      	ldr	r3, [pc, #180]	(17186c <fselect_delete_folder_cb+0xc8>)
  1717b6:	492e      	ldr	r1, [pc, #184]	(171870 <fselect_delete_folder_cb+0xcc>)
  1717b8:	681b      	ldr	r3, [r3, #0]
  1717ba:	1828      	adds	r0, r5, r0
  1717bc:	685a      	ldr	r2, [r3, #4]
  1717be:	f030 f821 	bl	1a1804 <__sprintf_from_thumb>
  1717c2:	1c28      	adds	r0, r5, #0
  1717c4:	f030 f86e 	bl	1a18a4 <__opendir_from_thumb>
  1717c8:	1c06      	adds	r6, r0, #0
  1717ca:	2800      	cmp	r0, #0
  1717cc:	d029      	beq.n	171822 <fselect_delete_folder_cb+0x7e>
  1717ce:	f030 f86d 	bl	1a18ac <__readdir_from_thumb>
  1717d2:	4b28      	ldr	r3, [pc, #160]	(171874 <fselect_delete_folder_cb+0xd0>)
  1717d4:	1c04      	adds	r4, r0, #0
  1717d6:	4f28      	ldr	r7, [pc, #160]	(171878 <fselect_delete_folder_cb+0xd4>)
  1717d8:	9300      	str	r3, [sp, #0]
  1717da:	e01d      	b.n	171818 <fselect_delete_folder_cb+0x74>
  1717dc:	7823      	ldrb	r3, [r4, #0]
  1717de:	2be5      	cmp	r3, #229
  1717e0:	d016      	beq.n	171810 <fselect_delete_folder_cb+0x6c>
  1717e2:	2b2e      	cmp	r3, #46
  1717e4:	d105      	bne.n	1717f2 <fselect_delete_folder_cb+0x4e>
  1717e6:	7863      	ldrb	r3, [r4, #1]
  1717e8:	2b2e      	cmp	r3, #46
  1717ea:	d100      	bne.n	1717ee <fselect_delete_folder_cb+0x4a>
  1717ec:	78a3      	ldrb	r3, [r4, #2]
  1717ee:	2b00      	cmp	r3, #0
  1717f0:	d00e      	beq.n	171810 <fselect_delete_folder_cb+0x6c>
  1717f2:	2001      	movs	r0, #1
  1717f4:	f02f ffea 	bl	1a17cc <__debug_led_from_thumb>
  1717f8:	9900      	ldr	r1, [sp, #0]
  1717fa:	1c2a      	adds	r2, r5, #0
  1717fc:	1c23      	adds	r3, r4, #0
  1717fe:	1c38      	adds	r0, r7, #0
  171800:	f030 f800 	bl	1a1804 <__sprintf_from_thumb>
  171804:	1c38      	adds	r0, r7, #0
  171806:	f030 f86d 	bl	1a18e4 <__remove_from_thumb>
  17180a:	2000      	movs	r0, #0
  17180c:	f02f ffde 	bl	1a17cc <__debug_led_from_thumb>
  171810:	1c30      	adds	r0, r6, #0
  171812:	f030 f84b 	bl	1a18ac <__readdir_from_thumb>
  171816:	1c04      	adds	r4, r0, #0
  171818:	2c00      	cmp	r4, #0
  17181a:	d1df      	bne.n	1717dc <fselect_delete_folder_cb+0x38>
  17181c:	1c30      	adds	r0, r6, #0
  17181e:	f030 f855 	bl	1a18cc <__closedir_from_thumb>
  171822:	2001      	movs	r0, #1
  171824:	f02f ffd2 	bl	1a17cc <__debug_led_from_thumb>
  171828:	4c0f      	ldr	r4, [pc, #60]	(171868 <fselect_delete_folder_cb+0xc4>)
  17182a:	1c20      	adds	r0, r4, #0
  17182c:	f030 f85a 	bl	1a18e4 <__remove_from_thumb>
  171830:	2000      	movs	r0, #0
  171832:	f02f ffcb 	bl	1a17cc <__debug_led_from_thumb>
  171836:	1c20      	adds	r0, r4, #0
  171838:	f030 f824 	bl	1a1884 <__strlen_from_thumb>
  17183c:	1e43      	subs	r3, r0, #1
  17183e:	1c01      	adds	r1, r0, #0
  171840:	18e4      	adds	r4, r4, r3
  171842:	7823      	ldrb	r3, [r4, #0]
  171844:	3901      	subs	r1, #1
  171846:	3c01      	subs	r4, #1
  171848:	2b2f      	cmp	r3, #47
  17184a:	d1fa      	bne.n	171842 <fselect_delete_folder_cb+0x9e>
  17184c:	4806      	ldr	r0, [pc, #24]	(171868 <fselect_delete_folder_cb+0xc4>)
  17184e:	4b0a      	ldr	r3, [pc, #40]	(171878 <fselect_delete_folder_cb+0xd4>)
  171850:	2200      	movs	r2, #0
  171852:	5442      	strb	r2, [r0, r1]
  171854:	701a      	strb	r2, [r3, #0]
  171856:	f7ff fd17 	bl	171288 <gui_fselect_read_dir>
  17185a:	4a08      	ldr	r2, [pc, #32]	(17187c <fselect_delete_folder_cb+0xd8>)
  17185c:	2302      	movs	r3, #2
  17185e:	b001      	add	sp, #4
  171860:	6013      	str	r3, [r2, #0]
  171862:	bcf0      	pop	{r4, r5, r6, r7}
  171864:	bc01      	pop	{r0}
  171866:	4700      	bx	r0
  171868:	001af918 	.word	0x001af918
  17186c:	001afab0 	.word	0x001afab0
  171870:	001a834e 	.word	0x001a834e
  171874:	001a7a77 	.word	0x001a7a77
  171878:	001af9e0 	.word	0x001af9e0
  17187c:	001afb04 	.word	0x001afb04

00171880 <fselect_purge_cb>:
  171880:	b5f0      	push	{r4, r5, r6, r7, lr}
  171882:	b0ce      	sub	sp, #312
  171884:	2802      	cmp	r0, #2
  171886:	d000      	beq.n	17188a <fselect_purge_cb+0xa>
  171888:	e142      	b.n	171b10 <fselect_purge_cb+0x290>
  17188a:	4ba5      	ldr	r3, [pc, #660]	(171b20 <fselect_purge_cb+0x2a0>)
  17188c:	681b      	ldr	r3, [r3, #0]
  17188e:	685d      	ldr	r5, [r3, #4]
  171890:	782b      	ldrb	r3, [r5, #0]
  171892:	2b44      	cmp	r3, #68
  171894:	d000      	beq.n	171898 <fselect_purge_cb+0x18>
  171896:	e097      	b.n	1719c8 <fselect_purge_cb+0x148>
  171898:	786b      	ldrb	r3, [r5, #1]
  17189a:	2b43      	cmp	r3, #67
  17189c:	d000      	beq.n	1718a0 <fselect_purge_cb+0x20>
  17189e:	e093      	b.n	1719c8 <fselect_purge_cb+0x148>
  1718a0:	78ab      	ldrb	r3, [r5, #2]
  1718a2:	2b49      	cmp	r3, #73
  1718a4:	d000      	beq.n	1718a8 <fselect_purge_cb+0x28>
  1718a6:	e08f      	b.n	1719c8 <fselect_purge_cb+0x148>
  1718a8:	78eb      	ldrb	r3, [r5, #3]
  1718aa:	2b4d      	cmp	r3, #77
  1718ac:	d000      	beq.n	1718b0 <fselect_purge_cb+0x30>
  1718ae:	e08b      	b.n	1719c8 <fselect_purge_cb+0x148>
  1718b0:	4c9c      	ldr	r4, [pc, #624]	(171b24 <fselect_purge_cb+0x2a4>)
  1718b2:	1c20      	adds	r0, r4, #0
  1718b4:	f02f ffe6 	bl	1a1884 <__strlen_from_thumb>
  1718b8:	499b      	ldr	r1, [pc, #620]	(171b28 <fselect_purge_cb+0x2a8>)
  1718ba:	1c2a      	adds	r2, r5, #0
  1718bc:	1820      	adds	r0, r4, r0
  1718be:	f02f ffa1 	bl	1a1804 <__sprintf_from_thumb>
  1718c2:	1c20      	adds	r0, r4, #0
  1718c4:	f02f ffee 	bl	1a18a4 <__opendir_from_thumb>
  1718c8:	9002      	str	r0, [sp, #8]
  1718ca:	e068      	b.n	17199e <fselect_purge_cb+0x11e>
  1718cc:	782b      	ldrb	r3, [r5, #0]
  1718ce:	2b2e      	cmp	r3, #46
  1718d0:	d065      	beq.n	17199e <fselect_purge_cb+0x11e>
  1718d2:	786b      	ldrb	r3, [r5, #1]
  1718d4:	2b2e      	cmp	r3, #46
  1718d6:	d062      	beq.n	17199e <fselect_purge_cb+0x11e>
  1718d8:	4c94      	ldr	r4, [pc, #592]	(171b2c <fselect_purge_cb+0x2ac>)
  1718da:	4a92      	ldr	r2, [pc, #584]	(171b24 <fselect_purge_cb+0x2a4>)
  1718dc:	1c21      	adds	r1, r4, #0
  1718de:	1c2b      	adds	r3, r5, #0
  1718e0:	a849      	add	r0, sp, #292
  1718e2:	f02f ff8f 	bl	1a1804 <__sprintf_from_thumb>
  1718e6:	a849      	add	r0, sp, #292
  1718e8:	f02f ffdc 	bl	1a18a4 <__opendir_from_thumb>
  1718ec:	9003      	str	r0, [sp, #12]
  1718ee:	e04d      	b.n	17198c <fselect_purge_cb+0x10c>
  1718f0:	782b      	ldrb	r3, [r5, #0]
  1718f2:	2b43      	cmp	r3, #67
  1718f4:	d002      	beq.n	1718fc <fselect_purge_cb+0x7c>
  1718f6:	7a6b      	ldrb	r3, [r5, #9]
  1718f8:	2b43      	cmp	r3, #67
  1718fa:	d147      	bne.n	17198c <fselect_purge_cb+0x10c>
  1718fc:	4c89      	ldr	r4, [pc, #548]	(171b24 <fselect_purge_cb+0x2a4>)
  1718fe:	2600      	movs	r6, #0
  171900:	1c20      	adds	r0, r4, #0
  171902:	f02f ffcf 	bl	1a18a4 <__opendir_from_thumb>
  171906:	1c07      	adds	r7, r0, #0
  171908:	e028      	b.n	17195c <fselect_purge_cb+0xdc>
  17190a:	7823      	ldrb	r3, [r4, #0]
  17190c:	2b2e      	cmp	r3, #46
  17190e:	d025      	beq.n	17195c <fselect_purge_cb+0xdc>
  171910:	7863      	ldrb	r3, [r4, #1]
  171912:	2b2e      	cmp	r3, #46
  171914:	d022      	beq.n	17195c <fselect_purge_cb+0xdc>
  171916:	1c23      	adds	r3, r4, #0
  171918:	4984      	ldr	r1, [pc, #528]	(171b2c <fselect_purge_cb+0x2ac>)
  17191a:	4a82      	ldr	r2, [pc, #520]	(171b24 <fselect_purge_cb+0x2a4>)
  17191c:	a844      	add	r0, sp, #272
  17191e:	f02f ff71 	bl	1a1804 <__sprintf_from_thumb>
  171922:	a844      	add	r0, sp, #272
  171924:	f02f ffbe 	bl	1a18a4 <__opendir_from_thumb>
  171928:	1c04      	adds	r4, r0, #0
  17192a:	e00f      	b.n	17194c <fselect_purge_cb+0xcc>
  17192c:	686a      	ldr	r2, [r5, #4]
  17192e:	6843      	ldr	r3, [r0, #4]
  171930:	429a      	cmp	r2, r3
  171932:	d10b      	bne.n	17194c <fselect_purge_cb+0xcc>
  171934:	7a43      	ldrb	r3, [r0, #9]
  171936:	2b4a      	cmp	r3, #74
  171938:	d108      	bne.n	17194c <fselect_purge_cb+0xcc>
  17193a:	7800      	ldrb	r0, [r0, #0]
  17193c:	2843      	cmp	r0, #67
  17193e:	d005      	beq.n	17194c <fselect_purge_cb+0xcc>
  171940:	28e5      	cmp	r0, #229
  171942:	d003      	beq.n	17194c <fselect_purge_cb+0xcc>
  171944:	2001      	movs	r0, #1
  171946:	f02f ff41 	bl	1a17cc <__debug_led_from_thumb>
  17194a:	2601      	movs	r6, #1
  17194c:	1c20      	adds	r0, r4, #0
  17194e:	f02f ffad 	bl	1a18ac <__readdir_from_thumb>
  171952:	2800      	cmp	r0, #0
  171954:	d1ea      	bne.n	17192c <fselect_purge_cb+0xac>
  171956:	1c20      	adds	r0, r4, #0
  171958:	f02f ffb8 	bl	1a18cc <__closedir_from_thumb>
  17195c:	1c38      	adds	r0, r7, #0
  17195e:	f02f ffa5 	bl	1a18ac <__readdir_from_thumb>
  171962:	1c04      	adds	r4, r0, #0
  171964:	2800      	cmp	r0, #0
  171966:	d1d0      	bne.n	17190a <fselect_purge_cb+0x8a>
  171968:	1c38      	adds	r0, r7, #0
  17196a:	f02f ffaf 	bl	1a18cc <__closedir_from_thumb>
  17196e:	2e00      	cmp	r6, #0
  171970:	d109      	bne.n	171986 <fselect_purge_cb+0x106>
  171972:	ac04      	add	r4, sp, #16
  171974:	496d      	ldr	r1, [pc, #436]	(171b2c <fselect_purge_cb+0x2ac>)
  171976:	1c20      	adds	r0, r4, #0
  171978:	aa49      	add	r2, sp, #292
  17197a:	1c2b      	adds	r3, r5, #0
  17197c:	f02f ff42 	bl	1a1804 <__sprintf_from_thumb>
  171980:	1c20      	adds	r0, r4, #0
  171982:	f02f ffaf 	bl	1a18e4 <__remove_from_thumb>
  171986:	2000      	movs	r0, #0
  171988:	f02f ff20 	bl	1a17cc <__debug_led_from_thumb>
  17198c:	9803      	ldr	r0, [sp, #12]
  17198e:	f02f ff8d 	bl	1a18ac <__readdir_from_thumb>
  171992:	1c05      	adds	r5, r0, #0
  171994:	2800      	cmp	r0, #0
  171996:	d1ab      	bne.n	1718f0 <fselect_purge_cb+0x70>
  171998:	9803      	ldr	r0, [sp, #12]
  17199a:	f02f ff97 	bl	1a18cc <__closedir_from_thumb>
  17199e:	9802      	ldr	r0, [sp, #8]
  1719a0:	f02f ff84 	bl	1a18ac <__readdir_from_thumb>
  1719a4:	1c05      	adds	r5, r0, #0
  1719a6:	2800      	cmp	r0, #0
  1719a8:	d190      	bne.n	1718cc <fselect_purge_cb+0x4c>
  1719aa:	9802      	ldr	r0, [sp, #8]
  1719ac:	f02f ff8e 	bl	1a18cc <__closedir_from_thumb>
  1719b0:	4c5c      	ldr	r4, [pc, #368]	(171b24 <fselect_purge_cb+0x2a4>)
  1719b2:	1c20      	adds	r0, r4, #0
  1719b4:	f02f ff66 	bl	1a1884 <__strlen_from_thumb>
  1719b8:	1e43      	subs	r3, r0, #1
  1719ba:	18e4      	adds	r4, r4, r3
  1719bc:	7823      	ldrb	r3, [r4, #0]
  1719be:	3801      	subs	r0, #1
  1719c0:	3c01      	subs	r4, #1
  1719c2:	2b2f      	cmp	r3, #47
  1719c4:	d1fa      	bne.n	1719bc <fselect_purge_cb+0x13c>
  1719c6:	e058      	b.n	171a7a <fselect_purge_cb+0x1fa>
  1719c8:	78eb      	ldrb	r3, [r5, #3]
  1719ca:	2b43      	cmp	r3, #67
  1719cc:	d159      	bne.n	171a82 <fselect_purge_cb+0x202>
  1719ce:	4c55      	ldr	r4, [pc, #340]	(171b24 <fselect_purge_cb+0x2a4>)
  1719d0:	1c20      	adds	r0, r4, #0
  1719d2:	f02f ff57 	bl	1a1884 <__strlen_from_thumb>
  1719d6:	4954      	ldr	r1, [pc, #336]	(171b28 <fselect_purge_cb+0x2a8>)
  1719d8:	1c2a      	adds	r2, r5, #0
  1719da:	1820      	adds	r0, r4, r0
  1719dc:	f02f ff12 	bl	1a1804 <__sprintf_from_thumb>
  1719e0:	1c20      	adds	r0, r4, #0
  1719e2:	f02f ff5f 	bl	1a18a4 <__opendir_from_thumb>
  1719e6:	4b51      	ldr	r3, [pc, #324]	(171b2c <fselect_purge_cb+0x2ac>)
  1719e8:	1c07      	adds	r7, r0, #0
  1719ea:	9301      	str	r3, [sp, #4]
  1719ec:	e031      	b.n	171a52 <fselect_purge_cb+0x1d2>
  1719ee:	782b      	ldrb	r3, [r5, #0]
  1719f0:	2b43      	cmp	r3, #67
  1719f2:	d002      	beq.n	1719fa <fselect_purge_cb+0x17a>
  1719f4:	7a6b      	ldrb	r3, [r5, #9]
  1719f6:	2b43      	cmp	r3, #67
  1719f8:	d12b      	bne.n	171a52 <fselect_purge_cb+0x1d2>
  1719fa:	484a      	ldr	r0, [pc, #296]	(171b24 <fselect_purge_cb+0x2a4>)
  1719fc:	f02f ff52 	bl	1a18a4 <__opendir_from_thumb>
  171a00:	2400      	movs	r4, #0
  171a02:	1c06      	adds	r6, r0, #0
  171a04:	e00f      	b.n	171a26 <fselect_purge_cb+0x1a6>
  171a06:	686a      	ldr	r2, [r5, #4]
  171a08:	6843      	ldr	r3, [r0, #4]
  171a0a:	429a      	cmp	r2, r3
  171a0c:	d10b      	bne.n	171a26 <fselect_purge_cb+0x1a6>
  171a0e:	7a43      	ldrb	r3, [r0, #9]
  171a10:	2b4a      	cmp	r3, #74
  171a12:	d108      	bne.n	171a26 <fselect_purge_cb+0x1a6>
  171a14:	7800      	ldrb	r0, [r0, #0]
  171a16:	2843      	cmp	r0, #67
  171a18:	d005      	beq.n	171a26 <fselect_purge_cb+0x1a6>
  171a1a:	28e5      	cmp	r0, #229
  171a1c:	d003      	beq.n	171a26 <fselect_purge_cb+0x1a6>
  171a1e:	2001      	movs	r0, #1
  171a20:	f02f fed4 	bl	1a17cc <__debug_led_from_thumb>
  171a24:	2401      	movs	r4, #1
  171a26:	1c30      	adds	r0, r6, #0
  171a28:	f02f ff40 	bl	1a18ac <__readdir_from_thumb>
  171a2c:	2800      	cmp	r0, #0
  171a2e:	d1ea      	bne.n	171a06 <fselect_purge_cb+0x186>
  171a30:	1c30      	adds	r0, r6, #0
  171a32:	f02f ff4b 	bl	1a18cc <__closedir_from_thumb>
  171a36:	2c00      	cmp	r4, #0
  171a38:	d108      	bne.n	171a4c <fselect_purge_cb+0x1cc>
  171a3a:	4a3a      	ldr	r2, [pc, #232]	(171b24 <fselect_purge_cb+0x2a4>)
  171a3c:	a804      	add	r0, sp, #16
  171a3e:	9901      	ldr	r1, [sp, #4]
  171a40:	1c2b      	adds	r3, r5, #0
  171a42:	f02f fedf 	bl	1a1804 <__sprintf_from_thumb>
  171a46:	a804      	add	r0, sp, #16
  171a48:	f02f ff4c 	bl	1a18e4 <__remove_from_thumb>
  171a4c:	2000      	movs	r0, #0
  171a4e:	f02f febd 	bl	1a17cc <__debug_led_from_thumb>
  171a52:	1c38      	adds	r0, r7, #0
  171a54:	f02f ff2a 	bl	1a18ac <__readdir_from_thumb>
  171a58:	1c05      	adds	r5, r0, #0
  171a5a:	2800      	cmp	r0, #0
  171a5c:	d1c7      	bne.n	1719ee <fselect_purge_cb+0x16e>
  171a5e:	1c38      	adds	r0, r7, #0
  171a60:	f02f ff34 	bl	1a18cc <__closedir_from_thumb>
  171a64:	4c2f      	ldr	r4, [pc, #188]	(171b24 <fselect_purge_cb+0x2a4>)
  171a66:	1c20      	adds	r0, r4, #0
  171a68:	f02f ff0c 	bl	1a1884 <__strlen_from_thumb>
  171a6c:	1e43      	subs	r3, r0, #1
  171a6e:	18e4      	adds	r4, r4, r3
  171a70:	7823      	ldrb	r3, [r4, #0]
  171a72:	3801      	subs	r0, #1
  171a74:	3c01      	subs	r4, #1
  171a76:	2b2f      	cmp	r3, #47
  171a78:	d1fa      	bne.n	171a70 <fselect_purge_cb+0x1f0>
  171a7a:	4a2a      	ldr	r2, [pc, #168]	(171b24 <fselect_purge_cb+0x2a4>)
  171a7c:	2300      	movs	r3, #0
  171a7e:	5413      	strb	r3, [r2, r0]
  171a80:	e043      	b.n	171b0a <fselect_purge_cb+0x28a>
  171a82:	4b2b      	ldr	r3, [pc, #172]	(171b30 <fselect_purge_cb+0x2b0>)
  171a84:	4f2b      	ldr	r7, [pc, #172]	(171b34 <fselect_purge_cb+0x2b4>)
  171a86:	681c      	ldr	r4, [r3, #0]
  171a88:	4b28      	ldr	r3, [pc, #160]	(171b2c <fselect_purge_cb+0x2ac>)
  171a8a:	9300      	str	r3, [sp, #0]
  171a8c:	e03b      	b.n	171b06 <fselect_purge_cb+0x286>
  171a8e:	6862      	ldr	r2, [r4, #4]
  171a90:	7813      	ldrb	r3, [r2, #0]
  171a92:	2b43      	cmp	r3, #67
  171a94:	d002      	beq.n	171a9c <fselect_purge_cb+0x21c>
  171a96:	7a53      	ldrb	r3, [r2, #9]
  171a98:	2b43      	cmp	r3, #67
  171a9a:	d133      	bne.n	171b04 <fselect_purge_cb+0x284>
  171a9c:	7d23      	ldrb	r3, [r4, #20]
