
main.elf:     file format elf32-littlearm

Disassembly of section .text:

00001900 <_start>:
    1900:	e59f3020 	ldr	r3, [pc, #32]	; 1928 <_start+0x28>
    1904:	e3a02044 	mov	r2, #68	; 0x44
    1908:	e5832000 	str	r2, [r3]
    190c:	e3a0380f 	mov	r3, #983040	; 0xf0000
    1910:	e2433001 	sub	r3, r3, #1	; 0x1
    1914:	e3530000 	cmp	r3, #0	; 0x0
    1918:	1afffffc 	bne	1910 <_start+0x10>
    191c:	e3a0dc19 	mov	sp, #6400	; 0x1900
    1920:	e3a0b000 	mov	fp, #0	; 0x0
    1924:	ea000000 	b	192c <my_restart>
    1928:	c0220018 	.word	0xc0220018

0000192c <my_restart>:
    192c:	e3a02000 	mov	r2, #0	; 0x0
    1930:	e3a01805 	mov	r1, #327680	; 0x50000
    1934:	e59fc044 	ldr	ip, [pc, #68]	; 1980 <my_restart+0x54>
    1938:	e59f0044 	ldr	r0, [pc, #68]	; 1984 <my_restart+0x58>
    193c:	ea000003 	b	1950 <my_restart+0x24>
    1940:	e5903000 	ldr	r3, [r0]
    1944:	e7933102 	ldr	r3, [r3, r2, lsl #2]
    1948:	e2822001 	add	r2, r2, #1	; 0x1
    194c:	e5013004 	str	r3, [r1, #-4]
    1950:	e59c3000 	ldr	r3, [ip]
    1954:	e2811004 	add	r1, r1, #4	; 0x4
    1958:	e1520123 	cmp	r2, r3, lsr #2
    195c:	3afffff7 	bcc	1940 <my_restart+0x14>
    1960:	e59f3020 	ldr	r3, [pc, #32]	; 1988 <my_restart+0x5c>
    1964:	e59f0020 	ldr	r0, [pc, #32]	; 198c <my_restart+0x60>
    1968:	e5931000 	ldr	r1, [r3]
    196c:	e59f301c 	ldr	r3, [pc, #28]	; 1990 <my_restart+0x64>
    1970:	e5932000 	ldr	r2, [r3]
    1974:	e3a03805 	mov	r3, #327680	; 0x50000
    1978:	e1a0e00f 	mov	lr, pc
    197c:	e12fff13 	bx	r3
    1980:	0000199c 	.word	0x0000199c
    1984:	000019a0 	.word	0x000019a0
    1988:	00001998 	.word	0x00001998
    198c:	0016e820 	.word	0x0016e820
    1990:	00001994 	.word	0x00001994

00001994 <blob_chdk_core_size>:
    1994:	00040f0c 	.word	0x00040f0c

00001998 <blob_chdk_core>:
    1998:	00001ac4 	.word	0x00001ac4

0000199c <blob_copy_and_reset_size>:
    199c:	00000120 	.word	0x00000120

000019a0 <blob_copy_and_reset>:
    19a0:	000019a4 	.word	0x000019a4

000019a4 <blob_copy_and_reset_start>:
    19a4:	e3a0dc19 	.word	0xe3a0dc19
    19a8:	e3a0b000 	.word	0xe3a0b000
    19ac:	eaffffff 	.word	0xeaffffff
    19b0:	e1510000 	.word	0xe1510000
    19b4:	e1a0c000 	.word	0xe1a0c000
    19b8:	2a000010 	.word	0x2a000010
    19bc:	e0810002 	.word	0xe0810002
    19c0:	e15c0000 	.word	0xe15c0000
    19c4:	308ce002 	.word	0x308ce002
    19c8:	33a01000 	.word	0x33a01000
    19cc:	3a000002 	.word	0x3a000002
    19d0:	ea00000a 	.word	0xea00000a
    19d4:	e7d03001 	.word	0xe7d03001
    19d8:	e7ce3001 	.word	0xe7ce3001
    19dc:	e2422001 	.word	0xe2422001
    19e0:	e3720001 	.word	0xe3720001
    19e4:	e2411001 	.word	0xe2411001
    19e8:	1afffff9 	.word	0x1afffff9
    19ec:	ea000006 	.word	0xea000006
    19f0:	e7d13000 	.word	0xe7d13000
    19f4:	e7cc3000 	.word	0xe7cc3000
    19f8:	e2800001 	.word	0xe2800001
    19fc:	ea000000 	.word	0xea000000
    1a00:	e3a00000 	.word	0xe3a00000
    1a04:	e2522001 	.word	0xe2522001
    1a08:	2afffff8 	.word	0x2afffff8
    1a0c:	e10f0000 	.word	0xe10f0000
    1a10:	e3c0003f 	.word	0xe3c0003f
    1a14:	e38000d3 	.word	0xe38000d3
    1a18:	e129f000 	.word	0xe129f000
    1a1c:	e59f1098 	.word	0xe59f1098
    1a20:	e3e00000 	.word	0xe3e00000
    1a24:	e581010c 	.word	0xe581010c
    1a28:	e581000c 	.word	0xe581000c
    1a2c:	e581001c 	.word	0xe581001c
    1a30:	e581002c 	.word	0xe581002c
    1a34:	e581003c 	.word	0xe581003c
    1a38:	e581004c 	.word	0xe581004c
    1a3c:	e581005c 	.word	0xe581005c
    1a40:	e581006c 	.word	0xe581006c
    1a44:	e581007c 	.word	0xe581007c
    1a48:	e581008c 	.word	0xe581008c
    1a4c:	e581009c 	.word	0xe581009c
    1a50:	e58100ac 	.word	0xe58100ac
    1a54:	e58100bc 	.word	0xe58100bc
    1a58:	e58100cc 	.word	0xe58100cc
    1a5c:	e58100dc 	.word	0xe58100dc
    1a60:	e58100ec 	.word	0xe58100ec
    1a64:	e3540007 	.word	0xe3540007
    1a68:	e58100fc 	.word	0xe58100fc
    1a6c:	08bd8010 	.word	0x08bd8010
    1a70:	e3a00078 	.word	0xe3a00078
    1a74:	ee010f10 	.word	0xee010f10
    1a78:	e3a00000 	.word	0xe3a00000
    1a7c:	ee070f9a 	.word	0xee070f9a
    1a80:	ee070f15 	.word	0xee070f15
    1a84:	ee070f16 	.word	0xee070f16
    1a88:	e3a0011a 	.word	0xe3a0011a
    1a8c:	ee090f11 	.word	0xee090f11
    1a90:	ee090f31 	.word	0xee090f31
    1a94:	ee110f10 	.word	0xee110f10
    1a98:	e3800805 	.word	0xe3800805
    1a9c:	ee010f10 	.word	0xee010f10
    1aa0:	e59f0018 	.word	0xe59f0018
    1aa4:	e3a01102 	.word	0xe3a01102
    1aa8:	e5810ffc 	.word	0xe5810ffc
    1aac:	e1a0000c 	.word	0xe1a0000c
    1ab0:	e8bd4010 	.word	0xe8bd4010
    1ab4:	e12fff10 	.word	0xe12fff10
    1ab8:	eafffffe 	.word	0xeafffffe
    1abc:	c0200000 	.word	0xc0200000
    1ac0:	12345678 	.word	0x12345678

00001ac4 <blob_chdk_core_start>:
    1ac4:	e3a00002 	.word	0xe3a00002
    1ac8:	e3300002 	.word	0xe3300002
    1acc:	e3a0dc19 	.word	0xe3a0dc19
    1ad0:	e3a0b000 	.word	0xe3a0b000
    1ad4:	ea0066f1 	.word	0xea0066f1
    1ad8:	e52de004 	.word	0xe52de004
    1adc:	eb00cdc3 	.word	0xeb00cdc3
    1ae0:	e49de004 	.word	0xe49de004
    1ae4:	e12fff1e 	.word	0xe12fff1e
    1ae8:	46c04770 	.word	0x46c04770
    1aec:	6b584b01 	.word	0x6b584b01
    1af0:	46c04770 	.word	0x46c04770
    1af4:	001ba558 	.word	0x001ba558
    1af8:	23014a01 	.word	0x23014a01
    1afc:	47706013 	.word	0x47706013
    1b00:	001af754 	.word	0x001af754
    1b04:	23014a01 	.word	0x23014a01
    1b08:	47706013 	.word	0x47706013
    1b0c:	001af750 	.word	0x001af750
    1b10:	d1022800 	.word	0xd1022800
    1b14:	42402001 	.word	0x42402001
    1b18:	68c0e000 	.word	0x68c0e000
    1b1c:	46c04770 	.word	0x46c04770
    1b20:	4b4bb5f0 	.word	0x4b4bb5f0
    1b24:	22004c4b 	.word	0x22004c4b
    1b28:	601ab081 	.word	0x601ab081
    1b2c:	f0326022 	.word	0xf0326022
    1b30:	2500ff97 	.word	0x2500ff97
    1b34:	e0024e48 	.word	0xe0024e48
    1b38:	f032200a 	.word	0xf032200a
    1b3c:	3501ff95 	.word	0x3501ff95
    1b40:	d00242b5 	.word	0xd00242b5
    1b44:	2b006823 	.word	0x2b006823
    1b48:	2001d0f6 	.word	0x2001d0f6
    1b4c:	ff90f032 	.word	0xff90f032
    1b50:	f0322032 	.word	0xf0322032
    1b54:	2000ff89 	.word	0x2000ff89
    1b58:	ff8af032 	.word	0xff8af032
    1b5c:	ff8cf032 	.word	0xff8cf032
    1b60:	ffc2f007 	.word	0xffc2f007
    1b64:	f84af006 	.word	0xf84af006
    1b68:	f032483c 	.word	0xf032483c
    1b6c:	483cff89 	.word	0x483cff89
    1b70:	ff86f032 	.word	0xff86f032
    1b74:	f032483b 	.word	0xf032483b
    1b78:	483bff83 	.word	0x483bff83
    1b7c:	ff80f032 	.word	0xff80f032
    1b80:	f032483a 	.word	0xf032483a
    1b84:	483aff7d 	.word	0x483aff7d
    1b88:	ff7af032 	.word	0xff7af032
    1b8c:	f0324839 	.word	0xf0324839
    1b90:	4839ff77 	.word	0x4839ff77
    1b94:	ff74f032 	.word	0xff74f032
    1b98:	f0324838 	.word	0xf0324838
    1b9c:	4838ff71 	.word	0x4838ff71
    1ba0:	ff6ef032 	.word	0xff6ef032
    1ba4:	23004a37 	.word	0x23004a37
    1ba8:	4a376013 	.word	0x4a376013
    1bac:	58d34b37 	.word	0x58d34b37
    1bb0:	d1012b01 	.word	0xd1012b01
    1bb4:	f956f007 	.word	0xf956f007
    1bb8:	49344a33 	.word	0x49344a33
    1bbc:	2b025853 	.word	0x2b025853
    1bc0:	2300d105 	.word	0x2300d105
    1bc4:	f0075053 	.word	0xf0075053
    1bc8:	f007fd17 	.word	0xf007fd17
    1bcc:	4b20f94b 	.word	0x4b20f94b
    1bd0:	4f304e2f 	.word	0x4f304e2f
    1bd4:	93002501 	.word	0x93002501
    1bd8:	ff56f032 	.word	0xff56f032
    1bdc:	2b006833 	.word	0x2b006833
    1be0:	f00bd008 	.word	0xf00bd008
    1be4:	9b00ff19 	.word	0x9b00ff19
    1be8:	f0326018 	.word	0xf0326018
    1bec:	2300ff51 	.word	0x2300ff51
    1bf0:	e7f16033 	.word	0xe7f16033
    1bf4:	2b02683b 	.word	0x2b02683b
    1bf8:	2303d015 	.word	0x2303d015
    1bfc:	3501402b 	.word	0x3501402b
    1c00:	d1012b00 	.word	0xd1012b00
    1c04:	fe7cf005 	.word	0xfe7cf005
    1c08:	f80ef008 	.word	0xf80ef008
    1c0c:	23db4a1e 	.word	0x23db4a1e
    1c10:	58d300db 	.word	0x58d300db
    1c14:	d0062b00 	.word	0xd0062b00
    1c18:	00db23da 	.word	0x00db23da
    1c1c:	2b0058d3 	.word	0x2b0058d3
    1c20:	f015d001 	.word	0xf015d001
    1c24:	4c1bfee9 	.word	0x4c1bfee9
    1c28:	2b026823 	.word	0x2b026823
    1c2c:	f032d10b 	.word	0xf032d10b
    1c30:	2800ff33 	.word	0x2800ff33
    1c34:	2303d107 	.word	0x2303d107
    1c38:	4b056023 	.word	0x4b056023
    1c3c:	2b00681b 	.word	0x2b00681b
    1c40:	f00bd001 	.word	0xf00bd001
    1c44:	2014fb43 	.word	0x2014fb43
    1c48:	ff0ef032 	.word	0xff0ef032
    1c4c:	46c0e7c4 	.word	0x46c0e7c4
    1c50:	001af74c 	.word	0x001af74c
    1c54:	001af750 	.word	0x001af750
    1c58:	00000191 	.word	0x00000191
    1c5c:	001a7968 	.word	0x001a7968
    1c60:	001a796f 	.word	0x001a796f
    1c64:	001a797c 	.word	0x001a797c
    1c68:	001a798b 	.word	0x001a798b
    1c6c:	001a799a 	.word	0x001a799a
    1c70:	001a79a6 	.word	0x001a79a6
    1c74:	001a79b3 	.word	0x001a79b3
    1c78:	001a79c0 	.word	0x001a79c0
    1c7c:	001a79cc 	.word	0x001a79cc
    1c80:	001a79d8 	.word	0x001a79d8
    1c84:	001bac98 	.word	0x001bac98
    1c88:	001ba558 	.word	0x001ba558
    1c8c:	0000060c 	.word	0x0000060c
    1c90:	001af754 	.word	0x001af754
    1c94:	001b071c 	.word	0x001b071c
    1c98:	b089b510 	.word	0xb089b510
    1c9c:	f0324668 	.word	0xf0324668
    1ca0:	9807feff 	.word	0x9807feff
    1ca4:	bc10b009 	.word	0xbc10b009
    1ca8:	4708bc02 	.word	0x4708bc02
    1cac:	2001b510 	.word	0x2001b510
    1cb0:	fedef032 	.word	0xfedef032
    1cb4:	f0324816 	.word	0xf0324816
    1cb8:	4816fee3 	.word	0x4816fee3
    1cbc:	fee0f032 	.word	0xfee0f032
    1cc0:	4c164915 	.word	0x4c164915
    1cc4:	1c20680a 	.word	0x1c20680a
    1cc8:	600b1c53 	.word	0x600b1c53
    1ccc:	f0324914 	.word	0xf0324914
    1cd0:	1c20feeb 	.word	0x1c20feeb
    1cd4:	4a144913 	.word	0x4a144913
    1cd8:	feeaf032 	.word	0xfeeaf032
    1cdc:	28001c04 	.word	0x28001c04
    1ce0:	22c8d00d 	.word	0x22c8d00d
    1ce4:	01522100 	.word	0x01522100
    1ce8:	fee6f032 	.word	0xfee6f032
    1cec:	1c2021c8 	.word	0x1c2021c8
    1cf0:	4a0e0149 	.word	0x4a0e0149
    1cf4:	fee0f032 	.word	0xfee0f032
    1cf8:	f0321c20 	.word	0xf0321c20
    1cfc:	f032fee1 	.word	0xf032fee1
    1d00:	2000fee3 	.word	0x2000fee3
    1d04:	feb4f032 	.word	0xfeb4f032
    1d08:	bc01bc10 	.word	0xbc01bc10
    1d0c:	46c04700 	.word	0x46c04700
    1d10:	001a79e4 	.word	0x001a79e4
    1d14:	001a79eb 	.word	0x001a79eb
    1d18:	001aaec4 	.word	0x001aaec4
    1d1c:	001af72c 	.word	0x001af72c
    1d20:	001a79fb 	.word	0x001a79fb
    1d24:	00000101 	.word	0x00000101
    1d28:	000001ff 	.word	0x000001ff
    1d2c:	01ffe700 	.word	0x01ffe700
    1d30:	6b40b500 	.word	0x6b40b500
    1d34:	f0324904 	.word	0xf0324904
    1d38:	2800fecb 	.word	0x2800fecb
    1d3c:	f7ffd101 	.word	0xf7ffd101
    1d40:	bc01fee1 	.word	0xbc01fee1
    1d44:	46c04700 	.word	0x46c04700
    1d48:	001a7a18 	.word	0x001a7a18
    1d4c:	06094b03 	.word	0x06094b03
    1d50:	685b681a 	.word	0x685b681a
    1d54:	54190e09 	.word	0x54190e09
    1d58:	47705411 	.word	0x47705411
    1d5c:	001af770 	.word	0x001af770
    1d60:	d1002800 	.word	0xd1002800
    1d64:	4b024801 	.word	0x4b024801
    1d68:	47706018 	.word	0x47706018
    1d6c:	0016eaa9 	.word	0x0016eaa9
    1d70:	001ba544 	.word	0x001ba544
    1d74:	221d4903 	.word	0x221d4903
    1d78:	701a680b 	.word	0x701a680b
    1d7c:	701a684b 	.word	0x701a684b
    1d80:	46c04770 	.word	0x46c04770
    1d84:	001af770 	.word	0x001af770
    1d88:	68134a06 	.word	0x68134a06
    1d8c:	2b1d781b 	.word	0x2b1d781b
    1d90:	2000d001 	.word	0x2000d001
    1d94:	6853e004 	.word	0x6853e004
    1d98:	3b1d781b 	.word	0x3b1d781b
    1d9c:	41584258 	.word	0x41584258
    1da0:	46c04770 	.word	0x46c04770
    1da4:	001af770 	.word	0x001af770
    1da8:	4b11b510 	.word	0x4b11b510
    1dac:	681b0412 	.word	0x681b0412
    1db0:	42980c14 	.word	0x42980c14
    1db4:	4b0fd218 	.word	0x4b0fd218
    1db8:	4299681b 	.word	0x4299681b
    1dbc:	4b0ed214 	.word	0x4b0ed214
    1dc0:	1c1a681b 	.word	0x1c1a681b
    1dc4:	490d434a 	.word	0x490d434a
    1dc8:	18d20043 	.word	0x18d20043
    1dcc:	5c98680b 	.word	0x5c98680b
    1dd0:	d10942a0 	.word	0xd10942a0
    1dd4:	5c9b684b 	.word	0x5c9b684b
    1dd8:	1e5a1a1b 	.word	0x1e5a1a1b
    1ddc:	22014193 	.word	0x22014193
    1de0:	061b4053 	.word	0x061b4053
    1de4:	e0000e18 	.word	0xe0000e18
    1de8:	bc102000 	.word	0xbc102000
    1dec:	4708bc02 	.word	0x4708bc02
    1df0:	001af758 	.word	0x001af758
    1df4:	001af75c 	.word	0x001af75c
    1df8:	001af764 	.word	0x001af764
    1dfc:	001af770 	.word	0x001af770
    1e00:	4b0fb570 	.word	0x4b0fb570
    1e04:	681b0412 	.word	0x681b0412
    1e08:	42980c16 	.word	0x42980c16
    1e0c:	4b0dd215 	.word	0x4b0dd215
    1e10:	4299681b 	.word	0x4299681b
    1e14:	4b0cd211 	.word	0x4b0cd211
    1e18:	681b4d0c 	.word	0x681b4d0c
    1e1c:	434c1c1c 	.word	0x434c1c1c
    1e20:	18e40043 	.word	0x18e40043
    1e24:	682b1c20 	.word	0x682b1c20
    1e28:	34011c31 	.word	0x34011c31
    1e2c:	fd96f000 	.word	0xfd96f000
    1e30:	1c20682b 	.word	0x1c20682b
    1e34:	f0001c31 	.word	0xf0001c31
    1e38:	bc70fd91 	.word	0xbc70fd91
    1e3c:	4700bc01 	.word	0x4700bc01
    1e40:	001af758 	.word	0x001af758
    1e44:	001af75c 	.word	0x001af75c
    1e48:	001af764 	.word	0x001af764
    1e4c:	001ba544 	.word	0x001ba544
    1e50:	4b0bb510 	.word	0x4b0bb510
    1e54:	681b1c04 	.word	0x681b1c04
    1e58:	d20d4298 	.word	0xd20d4298
    1e5c:	681b4b09 	.word	0x681b4b09
    1e60:	d2094299 	.word	0xd2094299
    1e64:	48094b08 	.word	0x48094b08
    1e68:	1c1a681b 	.word	0x1c1a681b
    1e6c:	6803434a 	.word	0x6803434a
    1e70:	189b0061 	.word	0x189b0061
    1e74:	e0005c58 	.word	0xe0005c58
    1e78:	bc102000 	.word	0xbc102000
    1e7c:	4708bc02 	.word	0x4708bc02
    1e80:	001af758 	.word	0x001af758
    1e84:	001af75c 	.word	0x001af75c
    1e88:	001af764 	.word	0x001af764
    1e8c:	001af770 	.word	0x001af770
    1e90:	b085b5f0 	.word	0xb085b5f0
    1e94:	1c081c04 	.word	0x1c081c04
    1e98:	9b0a1c19 	.word	0x9b0a1c19
    1e9c:	041b1c15 	.word	0x041b1c15
    1ea0:	1a0a0c1b 	.word	0x1a0a0c1b
    1ea4:	17d39300 	.word	0x17d39300
    1ea8:	405a18d2 	.word	0x405a18d2
    1eac:	17de1b2b 	.word	0x17de1b2b
    1eb0:	4073199b 	.word	0x4073199b
    1eb4:	96012601 	.word	0x96012601
    1eb8:	dc02429a 	.word	0xdc02429a
    1ebc:	92012200 	.word	0x92012200
    1ec0:	1c03e009 	.word	0x1c03e009
    1ec4:	40584063 	.word	0x40584063
    1ec8:	405c1c04 	.word	0x405c1c04
    1ecc:	406b1c0b 	.word	0x406b1c0b
    1ed0:	1c0d4059 	.word	0x1c0d4059
    1ed4:	42ac405d 	.word	0x42ac405d
    1ed8:	1c2bd909 	.word	0x1c2bd909
    1edc:	405d4063 	.word	0x405d4063
    1ee0:	405c1c2c 	.word	0x405c1c2c
    1ee4:	40431c0b 	.word	0x40431c0b
    1ee8:	1c084059 	.word	0x1c084059
    1eec:	1b2b4058 	.word	0x1b2b4058
    1ef0:	1a0b9302 	.word	0x1a0b9302
    1ef4:	189e17da 	.word	0x189e17da
    1ef8:	96034056 	.word	0x96034056
    1efc:	d2024288 	.word	0xd2024288
    1f00:	93042301 	.word	0x93042301
    1f04:	2601e002 	.word	0x2601e002
    1f08:	96044276 	.word	0x96044276
    1f0c:	26001c07 	.word	0x26001c07
    1f10:	9a01e014 	.word	0x9a01e014
    1f14:	d0022a00 	.word	0xd0022a00
    1f18:	1c211c38 	.word	0x1c211c38
    1f1c:	1c20e001 	.word	0x1c20e001
    1f20:	9a001c39 	.word	0x9a001c39
    1f24:	ff6cf7ff 	.word	0xff6cf7ff
    1f28:	9a029b03 	.word	0x9a029b03
    1f2c:	007318f6 	.word	0x007318f6
    1f30:	db024293 	.word	0xdb024293
    1f34:	1ab69b04 	.word	0x1ab69b04
    1f38:	340118ff 	.word	0x340118ff
    1f3c:	d9e842ac 	.word	0xd9e842ac
    1f40:	bcf0b005 	.word	0xbcf0b005
    1f44:	4700bc01 	.word	0x4700bc01
    1f48:	041bb5f0 	.word	0x041bb5f0
    1f4c:	4b110c1f 	.word	0x4b110c1f
    1f50:	681a1c14 	.word	0x681a1c14
    1f54:	d2194290 	.word	0xd2194290
    1f58:	681b4b0f 	.word	0x681b4b0f
    1f5c:	d2154299 	.word	0xd2154299
    1f60:	42931823 	.word	0x42931823
    1f64:	1a14d900 	.word	0x1a14d900
    1f68:	00644b0c 	.word	0x00644b0c
    1f6c:	4e0c681b 	.word	0x4e0c681b
    1f70:	434a1c1a 	.word	0x434a1c1a
    1f74:	18d50043 	.word	0x18d50043
    1f78:	1c28e006 	.word	0x1c28e006
    1f7c:	1c396833 	.word	0x1c396833
    1f80:	fcecf000 	.word	0xfcecf000
    1f84:	35013c01 	.word	0x35013c01
    1f88:	daf62c00 	.word	0xdaf62c00
    1f8c:	bc01bcf0 	.word	0xbc01bcf0
    1f90:	46c04700 	.word	0x46c04700
    1f94:	001af758 	.word	0x001af758
    1f98:	001af75c 	.word	0x001af75c
    1f9c:	001af764 	.word	0x001af764
    1fa0:	001ba544 	.word	0x001ba544
    1fa4:	041bb5f0 	.word	0x041bb5f0
    1fa8:	4b0e0c1f 	.word	0x4b0e0c1f
    1fac:	681b1c06 	.word	0x681b1c06
    1fb0:	1c151c0c 	.word	0x1c151c0c
    1fb4:	d2114298 	.word	0xd2114298
    1fb8:	681a4b0b 	.word	0x681a4b0b
    1fbc:	d20d4291 	.word	0xd20d4291
    1fc0:	4293186b 	.word	0x4293186b
    1fc4:	1a55d908 	.word	0x1a55d908
    1fc8:	1c21e006 	.word	0x1c21e006
    1fcc:	1c3a1c30 	.word	0x1c3a1c30
    1fd0:	ff16f7ff 	.word	0xff16f7ff
    1fd4:	34013d01 	.word	0x34013d01
    1fd8:	daf62d00 	.word	0xdaf62d00
    1fdc:	bc01bcf0 	.word	0xbc01bcf0
    1fe0:	46c04700 	.word	0x46c04700
    1fe4:	001af758 	.word	0x001af758
    1fe8:	001af75c 	.word	0x001af75c
    1fec:	b082b5f0 	.word	0xb082b5f0
    1ff0:	9b071c1d 	.word	0x9b071c1d
    1ff4:	041b4c34 	.word	0x041b4c34
    1ff8:	93010c1b 	.word	0x93010c1b
    1ffc:	42904b33 	.word	0x42904b33
    2000:	6020d902 	.word	0x6020d902
    2004:	e001601a 	.word	0xe001601a
    2008:	60226018 	.word	0x60226018
    200c:	4b314a30 	.word	0x4b314a30
    2010:	d90242a9 	.word	0xd90242a9
    2014:	601d6011 	.word	0x601d6011
    2018:	6019e001 	.word	0x6019e001
    201c:	4b2e6015 	.word	0x4b2e6015
    2020:	681a4929 	.word	0x681a4929
    2024:	4293680b 	.word	0x4293680b
    2028:	1e53d301 	.word	0x1e53d301
    202c:	4927600b 	.word	0x4927600b
    2030:	4293680b 	.word	0x4293680b
    2034:	1e53d301 	.word	0x1e53d301
    2038:	4b28600b 	.word	0x4b28600b
    203c:	681a4924 	.word	0x681a4924
    2040:	4293680b 	.word	0x4293680b
    2044:	1e53d301 	.word	0x1e53d301
    2048:	4922600b 	.word	0x4922600b
    204c:	4293680b 	.word	0x4293680b
    2050:	1e53d301 	.word	0x1e53d301
    2054:	4b1f600b 	.word	0x4b1f600b
    2058:	681b9a08 	.word	0x681b9a08
    205c:	18fc0057 	.word	0x18fc0057
    2060:	4e194b1b 	.word	0x4e194b1b
    2064:	4d199300 	.word	0x4d199300
    2068:	1c21e00a 	.word	0x1c21e00a
    206c:	9a016828 	.word	0x9a016828
    2070:	fec6f7ff 	.word	0xfec6f7ff
    2074:	68301c21 	.word	0x68301c21
    2078:	f7ff9a01 	.word	0xf7ff9a01
    207c:	3401fec1 	.word	0x3401fec1
    2080:	68139a00 	.word	0x68139a00
    2084:	429c1bdb 	.word	0x429c1bdb
    2088:	682cd9ef 	.word	0x682cd9ef
    208c:	68329b08 	.word	0x68329b08
    2090:	4b10191c 	.word	0x4b10191c
    2094:	68191c60 	.word	0x68191c60
    2098:	43e49b08 	.word	0x43e49b08
    209c:	19121ad2 	.word	0x19121ad2
    20a0:	f7ff9b01 	.word	0xf7ff9b01
    20a4:	9a00ff51 	.word	0x9a00ff51
    20a8:	682b9c08 	.word	0x682b9c08
    20ac:	68326811 	.word	0x68326811
    20b0:	1c5818e3 	.word	0x1c5818e3
    20b4:	43db1b12 	.word	0x43db1b12
    20b8:	9b0118d2 	.word	0x9b0118d2
    20bc:	ff44f7ff 	.word	0xff44f7ff
    20c0:	bcf0b002 	.word	0xbcf0b002
    20c4:	4700bc01 	.word	0x4700bc01
    20c8:	001af780 	.word	0x001af780
    20cc:	001af778 	.word	0x001af778
    20d0:	001af784 	.word	0x001af784
    20d4:	001af77c 	.word	0x001af77c
    20d8:	001af758 	.word	0x001af758
    20dc:	001af75c 	.word	0x001af75c
    20e0:	b082b530 	.word	0xb082b530
    20e4:	25ff9c05 	.word	0x25ff9c05
    20e8:	9400402c 	.word	0x9400402c
    20ec:	94012400 	.word	0x94012400
    20f0:	ff7cf7ff 	.word	0xff7cf7ff
    20f4:	bc30b002 	.word	0xbc30b002
    20f8:	4700bc01 	.word	0x4700bc01
    20fc:	b084b5f0 	.word	0xb084b5f0
    2100:	9a091c17 	.word	0x9a091c17
    2104:	1c151c1e 	.word	0x1c151c1e
    2108:	900323ff 	.word	0x900323ff
    210c:	401d9102 	.word	0x401d9102
    2110:	e00d2400 	.word	0xe00d2400
    2114:	1b3a9b03 	.word	0x1b3a9b03
    2118:	9b0218e0 	.word	0x9b0218e0
    211c:	18e19500 	.word	0x18e19500
    2120:	469c1b33 	.word	0x469c1b33
    2124:	93012300 	.word	0x93012300
    2128:	f7ff4663 	.word	0xf7ff4663
    212c:	3401ff5f 	.word	0x3401ff5f
    2130:	429c9b0a 	.word	0x429c9b0a
    2134:	b004dbee 	.word	0xb004dbee
    2138:	bc01bcf0 	.word	0xbc01bcf0
    213c:	46c04700 	.word	0x46c04700
    2140:	b084b5f0 	.word	0xb084b5f0
    2144:	9a091c17 	.word	0x9a091c17
    2148:	1c151c1e 	.word	0x1c151c1e
    214c:	900323ff 	.word	0x900323ff
    2150:	401d9102 	.word	0x401d9102
    2154:	e00d2400 	.word	0xe00d2400
    2158:	19e29b03 	.word	0x19e29b03
    215c:	9b0218e0 	.word	0x9b0218e0
    2160:	18e19500 	.word	0x18e19500
    2164:	469c19a3 	.word	0x469c19a3
    2168:	93012300 	.word	0x93012300
    216c:	f7ff4663 	.word	0xf7ff4663
    2170:	3401ff3d 	.word	0x3401ff3d
    2174:	429c9b0a 	.word	0x429c9b0a
    2178:	b004dbee 	.word	0xb004dbee
    217c:	bc01bcf0 	.word	0xbc01bcf0
    2180:	46c04700 	.word	0x46c04700
    2184:	b082b530 	.word	0xb082b530
    2188:	25ff9c05 	.word	0x25ff9c05
    218c:	9400402c 	.word	0x9400402c
    2190:	94012401 	.word	0x94012401
    2194:	ff2af7ff 	.word	0xff2af7ff
    2198:	bc30b002 	.word	0xbc30b002
    219c:	4700bc01 	.word	0x4700bc01
    21a0:	b084b5f0 	.word	0xb084b5f0
    21a4:	9b091c1e 	.word	0x9b091c1e
    21a8:	1c1d1c17 	.word	0x1c1d1c17
    21ac:	230122ff 	.word	0x230122ff
    21b0:	93014015 	.word	0x93014015
    21b4:	1c331c3a 	.word	0x1c331c3a
    21b8:	91029003 	.word	0x91029003
    21bc:	24019500 	.word	0x24019500
    21c0:	ff14f7ff 	.word	0xff14f7ff
    21c4:	9b02e00d 	.word	0x9b02e00d
    21c8:	18e19a03 	.word	0x18e19a03
    21cc:	469c1b33 	.word	0x469c1b33
    21d0:	18a02300 	.word	0x18a02300
    21d4:	1b3a9301 	.word	0x1b3a9301
    21d8:	95004663 	.word	0x95004663
    21dc:	ff06f7ff 	.word	0xff06f7ff
    21e0:	9a0a3401 	.word	0x9a0a3401
    21e4:	dbee4294 	.word	0xdbee4294
    21e8:	bcf0b004 	.word	0xbcf0b004
    21ec:	4700bc01 	.word	0x4700bc01
    21f0:	4b0eb5f0 	.word	0x4b0eb5f0
    21f4:	681b0400 	.word	0x681b0400
    21f8:	0e00b081 	.word	0x0e00b081
    21fc:	1c5c9000 	.word	0x1c5c9000
    2200:	4e0c4f0b 	.word	0x4e0c4f0b
    2204:	e0094d0c 	.word	0xe0094d0c
    2208:	682b6832 	.word	0x682b6832
    220c:	43d21c50 	.word	0x43d21c50
    2210:	1c2118d2 	.word	0x1c2118d2
    2214:	f7ff9b00 	.word	0xf7ff9b00
    2218:	3401fe97 	.word	0x3401fe97
    221c:	3b01683b 	.word	0x3b01683b
    2220:	d9f1429c 	.word	0xd9f1429c
    2224:	bcf0b001 	.word	0xbcf0b001
    2228:	4700bc01 	.word	0x4700bc01
    222c:	001af77c 	.word	0x001af77c
    2230:	001af784 	.word	0x001af784
    2234:	001af778 	.word	0x001af778
    2238:	001af780 	.word	0x001af780
    223c:	b081b510 	.word	0xb081b510
    2240:	04249c03 	.word	0x04249c03
    2244:	94000c24 	.word	0x94000c24
    2248:	ff4af7ff 	.word	0xff4af7ff
    224c:	f7ff1c20 	.word	0xf7ff1c20
    2250:	b001ffcf 	.word	0xb001ffcf
    2254:	bc01bc10 	.word	0xbc01bc10
    2258:	46c04700 	.word	0x46c04700
    225c:	b082b530 	.word	0xb082b530
    2260:	9d069c05 	.word	0x9d069c05
    2264:	0c240424 	.word	0x0c240424
    2268:	94009501 	.word	0x94009501
    226c:	ff46f7ff 	.word	0xff46f7ff
    2270:	f7ff1c20 	.word	0xf7ff1c20
    2274:	b002ffbd 	.word	0xb002ffbd
    2278:	bc01bc30 	.word	0xbc01bc30
    227c:	46c04700 	.word	0x46c04700
    2280:	b081b510 	.word	0xb081b510
    2284:	04249c03 	.word	0x04249c03
    2288:	94000c24 	.word	0x94000c24
    228c:	ff7af7ff 	.word	0xff7af7ff
    2290:	f7ff1c20 	.word	0xf7ff1c20
    2294:	b001ffad 	.word	0xb001ffad
    2298:	bc01bc10 	.word	0xbc01bc10
    229c:	46c04700 	.word	0x46c04700
    22a0:	b082b530 	.word	0xb082b530
    22a4:	9d069c05 	.word	0x9d069c05
    22a8:	0c240424 	.word	0x0c240424
    22ac:	94009501 	.word	0x94009501
    22b0:	ff76f7ff 	.word	0xff76f7ff
    22b4:	f7ff1c20 	.word	0xf7ff1c20
    22b8:	b002ff9b 	.word	0xb002ff9b
    22bc:	bc01bc30 	.word	0xbc01bc30
    22c0:	46c04700 	.word	0x46c04700
    22c4:	b083b5f0 	.word	0xb083b5f0
    22c8:	06129100 	.word	0x06129100
    22cc:	041b4912 	.word	0x041b4912
    22d0:	18890d12 	.word	0x18890d12
    22d4:	021b0e1f 	.word	0x021b0e1f
    22d8:	91029001 	.word	0x91029001
    22dc:	0e1e2500 	.word	0x0e1e2500
    22e0:	9902e014 	.word	0x9902e014
    22e4:	5d4b2280 	.word	0x5d4b2280
    22e8:	421a4122 	.word	0x421a4122
    22ec:	1c3ad101 	.word	0x1c3ad101
    22f0:	1c32e000 	.word	0x1c32e000
    22f4:	18e09b01 	.word	0x18e09b01
    22f8:	34019b00 	.word	0x34019b00
    22fc:	f7ff18e9 	.word	0xf7ff18e9
    2300:	2c08fd7f 	.word	0x2c08fd7f
    2304:	3501d1ed 	.word	0x3501d1ed
    2308:	d0012d10 	.word	0xd0012d10
    230c:	e7e82400 	.word	0xe7e82400
    2310:	bcf0b003 	.word	0xbcf0b003
    2314:	4700bc01 	.word	0x4700bc01
    2318:	001bc7f4 	.word	0x001bc7f4
    231c:	1c0fb5f0 	.word	0x1c0fb5f0
    2320:	b0814912 	.word	0xb0814912
    2324:	1c05041b 	.word	0x1c05041b
    2328:	0c1e1c14 	.word	0x0c1e1c14
    232c:	e0169100 	.word	0xe0169100
    2330:	1c331c39 	.word	0x1c331c39
    2334:	f7ff1c28 	.word	0xf7ff1c28
    2338:	9900ffc5 	.word	0x9900ffc5
    233c:	680b1c2a 	.word	0x680b1c2a
    2340:	34013208 	.word	0x34013208
    2344:	d309429a 	.word	0xd309429a
    2348:	2b007823 	.word	0x2b007823
    234c:	1c28d006 	.word	0x1c28d006
    2350:	223e1c39 	.word	0x223e1c39
    2354:	f7ff1c33 	.word	0xf7ff1c33
    2358:	e003ffb5 	.word	0xe003ffb5
    235c:	78221c15 	.word	0x78221c15
    2360:	d1e52a00 	.word	0xd1e52a00
    2364:	bcf0b001 	.word	0xbcf0b001
    2368:	4700bc01 	.word	0x4700bc01
    236c:	001af758 	.word	0x001af758
    2370:	b081b570 	.word	0xb081b570
    2374:	18129c05 	.word	0x18129c05
    2378:	00c5185b 	.word	0x00c5185b
    237c:	0424010e 	.word	0x0424010e
    2380:	011b00d2 	.word	0x011b00d2
    2384:	1c311c28 	.word	0x1c311c28
    2388:	3a010c24 	.word	0x3a010c24
    238c:	94003b01 	.word	0x94003b01
    2390:	fea6f7ff 	.word	0xfea6f7ff
    2394:	bc70b001 	.word	0xbc70b001
    2398:	4700bc01 	.word	0x4700bc01
    239c:	b081b5f0 	.word	0xb081b5f0
    23a0:	468c1c06 	.word	0x468c1c06
    23a4:	19929c07 	.word	0x19929c07
    23a8:	9b061c1d 	.word	0x9b061c1d
    23ac:	00c04465 	.word	0x00c04465
    23b0:	00d20109 	.word	0x00d20109
    23b4:	1ac91ac0 	.word	0x1ac91ac0
    23b8:	189a012d 	.word	0x189a012d
    23bc:	3b010424 	.word	0x3b010424
    23c0:	0c24195b 	.word	0x0c24195b
    23c4:	94003a01 	.word	0x94003a01
    23c8:	fe8af7ff 	.word	0xfe8af7ff
    23cc:	bcf0b001 	.word	0xbcf0b001
    23d0:	4700bc01 	.word	0x4700bc01
    23d4:	b081b570 	.word	0xb081b570
    23d8:	18129c05 	.word	0x18129c05
    23dc:	00c5185b 	.word	0x00c5185b
    23e0:	0424010e 	.word	0x0424010e
    23e4:	011b00d2 	.word	0x011b00d2
    23e8:	1c311c28 	.word	0x1c311c28
    23ec:	3a010c24 	.word	0x3a010c24
    23f0:	94003b01 	.word	0x94003b01
    23f4:	ff22f7ff 	.word	0xff22f7ff
    23f8:	bc70b001 	.word	0xbc70b001
    23fc:	4700bc01 	.word	0x4700bc01
    2400:	b081b5f0 	.word	0xb081b5f0
    2404:	468c1c06 	.word	0x468c1c06
    2408:	19929c07 	.word	0x19929c07
    240c:	9b061c1d 	.word	0x9b061c1d
    2410:	00c04465 	.word	0x00c04465
    2414:	00d20109 	.word	0x00d20109
    2418:	1ac91ac0 	.word	0x1ac91ac0
    241c:	189a012d 	.word	0x189a012d
    2420:	3b010424 	.word	0x3b010424
    2424:	0c24195b 	.word	0x0c24195b
    2428:	94003a01 	.word	0x94003a01
    242c:	ff06f7ff 	.word	0xff06f7ff
    2430:	bcf0b001 	.word	0xbcf0b001
    2434:	4700bc01 	.word	0x4700bc01
    2438:	041bb500 	.word	0x041bb500
    243c:	00c00c1b 	.word	0x00c00c1b
    2440:	f7ff0109 	.word	0xf7ff0109
    2444:	bc01ff6b 	.word	0xbc01ff6b
    2448:	46c04700 	.word	0x46c04700
    244c:	0612b500 	.word	0x0612b500
    2450:	0e12041b 	.word	0x0e12041b
    2454:	00c00c1b 	.word	0x00c00c1b
    2458:	f7ff0109 	.word	0xf7ff0109
    245c:	bc01ff33 	.word	0xbc01ff33
    2460:	46c04700 	.word	0x46c04700
    2464:	041bb5f0 	.word	0x041bb5f0
    2468:	1c160c1d 	.word	0x1c160c1d
    246c:	00522303 	.word	0x00522303
    2470:	1a9bb088 	.word	0x1a9bb088
    2474:	91009001 	.word	0x91009001
    2478:	27009307 	.word	0x27009307
    247c:	1c2a9b01 	.word	0x1c2a9b01
    2480:	930218fb 	.word	0x930218fb
    2484:	98029b00 	.word	0x98029b00
    2488:	1c1918f3 	.word	0x1c1918f3
    248c:	f7ff9303 	.word	0xf7ff9303
    2490:	9b01fcb7 	.word	0x9b01fcb7
    2494:	18f41c2a 	.word	0x18f41c2a
    2498:	1c209b00 	.word	0x1c209b00
    249c:	1c1918fb 	.word	0x1c1918fb
    24a0:	f7ff9304 	.word	0xf7ff9304
    24a4:	9b00fcad 	.word	0x9b00fcad
    24a8:	1bdb1c20 	.word	0x1bdb1c20
    24ac:	1c2a1c19 	.word	0x1c2a1c19
    24b0:	f7ff9305 	.word	0xf7ff9305
    24b4:	9b00fca5 	.word	0x9b00fca5
    24b8:	1b9c9802 	.word	0x1b9c9802
    24bc:	1c2a1c21 	.word	0x1c2a1c21
    24c0:	fc9ef7ff 	.word	0xfc9ef7ff
    24c4:	1c219b01 	.word	0x1c219b01
    24c8:	1c181bdb 	.word	0x1c181bdb
    24cc:	93061c2a 	.word	0x93061c2a
    24d0:	fc96f7ff 	.word	0xfc96f7ff
    24d4:	99059b01 	.word	0x99059b01
    24d8:	1c201b9c 	.word	0x1c201b9c
    24dc:	f7ff1c2a 	.word	0xf7ff1c2a
    24e0:	1c20fc8f 	.word	0x1c20fc8f
    24e4:	1c2a9904 	.word	0x1c2a9904
    24e8:	fc8af7ff 	.word	0xfc8af7ff
    24ec:	99039806 	.word	0x99039806
    24f0:	f7ff1c2a 	.word	0xf7ff1c2a
    24f4:	9b07fc85 	.word	0x9b07fc85
    24f8:	2b003701 	.word	0x2b003701
    24fc:	1c1ada03 	.word	0x1c1ada03
    2500:	00bb3206 	.word	0x00bb3206
    2504:	3e01e004 	.word	0x3e01e004
    2508:	1bbb9a07 	.word	0x1bbb9a07
    250c:	009b320a 	.word	0x009b320a
    2510:	930718d3 	.word	0x930718d3
    2514:	ddb142b7 	.word	0xddb142b7
    2518:	bcf0b008 	.word	0xbcf0b008
    251c:	4700bc01 	.word	0x4700bc01
    2520:	b08eb5f0 	.word	0xb08eb5f0
    2524:	9a139201 	.word	0x9a139201
    2528:	04129102 	.word	0x04129102
    252c:	0c129901 	.word	0x0c129901
    2530:	92009003 	.word	0x92009003
    2534:	43481c08 	.word	0x43481c08
    2538:	435a1c1a 	.word	0x435a1c1a
    253c:	9b011c1c 	.word	0x9b011c1c
    2540:	400b2101 	.word	0x400b2101
    2544:	18d39207 	.word	0x18d39207
    2548:	90061082 	.word	0x90061082
    254c:	9807189b 	.word	0x9807189b
    2550:	1c22425b 	.word	0x1c22425b
    2554:	9308400a 	.word	0x9308400a
    2558:	10839906 	.word	0x10839906
    255c:	185a189b 	.word	0x185a189b
    2560:	930a425b 	.word	0x930a425b
    2564:	1c26424b 	.word	0x1c26424b
    2568:	1c0b435e 	.word	0x1c0b435e
    256c:	005b4363 	.word	0x005b4363
    2570:	425b4252 	.word	0x425b4252
    2574:	930b9209 	.word	0x930b9209
    2578:	004b0042 	.word	0x004b0042
    257c:	930d920c 	.word	0x930d920c
    2580:	27002500 	.word	0x27002500
    2584:	9803e048 	.word	0x9803e048
    2588:	18289902 	.word	0x18289902
    258c:	9a001861 	.word	0x9a001861
    2590:	91059004 	.word	0x91059004
    2594:	fc34f7ff 	.word	0xfc34f7ff
    2598:	432a1c22 	.word	0x432a1c22
    259c:	9a02d006 	.word	0x9a02d006
    25a0:	1b119b03 	.word	0x1b119b03
    25a4:	9a001b58 	.word	0x9a001b58
    25a8:	fc2af7ff 	.word	0xfc2af7ff
    25ac:	d00d2d00 	.word	0xd00d2d00
    25b0:	d00b2c00 	.word	0xd00b2c00
    25b4:	98049b02 	.word	0x98049b02
    25b8:	9a001b19 	.word	0x9a001b19
    25bc:	fc20f7ff 	.word	0xfc20f7ff
    25c0:	9a009903 	.word	0x9a009903
    25c4:	99051b48 	.word	0x99051b48
    25c8:	fc1af7ff 	.word	0xfc1af7ff
    25cc:	98089a07 	.word	0x98089a07
    25d0:	436b1c13 	.word	0x436b1c13
    25d4:	4283199b 	.word	0x4283199b
    25d8:	9906dd06 	.word	0x9906dd06
    25dc:	1c0a980a 	.word	0x1c0a980a
    25e0:	19934362 	.word	0x19934362
    25e4:	dc044283 	.word	0xdc044283
    25e8:	3501990c 	.word	0x3501990c
    25ec:	19f6187f 	.word	0x19f6187f
    25f0:	1ab3e012 	.word	0x1ab3e012
    25f4:	1e62980d 	.word	0x1e62980d
    25f8:	18219c0b 	.word	0x18219c0b
    25fc:	42a39c09 	.word	0x42a39c09
    2600:	1c14dd03 	.word	0x1c14dd03
    2604:	1876910b 	.word	0x1876910b
    2608:	980ce006 	.word	0x980ce006
    260c:	183f3501 	.word	0x183f3501
    2610:	1c14187b 	.word	0x1c14187b
    2614:	18f6910b 	.word	0x18f6910b
    2618:	db022c00 	.word	0xdb022c00
    261c:	428d9901 	.word	0x428d9901
    2620:	b00ed9b1 	.word	0xb00ed9b1
    2624:	bc01bcf0 	.word	0xbc01bcf0
    2628:	46c04700 	.word	0x46c04700
    262c:	b093b5f0 	.word	0xb093b5f0
    2630:	1c109003 	.word	0x1c109003
    2634:	92014350 	.word	0x92014350
    2638:	435a1c1a 	.word	0x435a1c1a
    263c:	90081c1d 	.word	0x90081c1d
    2640:	9e089b01 	.word	0x9e089b01
    2644:	40032001 	.word	0x40032001
    2648:	18d39209 	.word	0x18d39209
    264c:	189b10b2 	.word	0x189b10b2
    2650:	425b9a09 	.word	0x425b9a09
    2654:	1093930a 	.word	0x1093930a
    2658:	40021c2a 	.word	0x40021c2a
    265c:	199a189b 	.word	0x199a189b
    2660:	9102425b 	.word	0x9102425b
    2664:	9918930c 	.word	0x9918930c
    2668:	04099b09 	.word	0x04099b09
    266c:	0c0c005b 	.word	0x0c0c005b
    2670:	23ff9310 	.word	0x23ff9310
    2674:	0e09439c 	.word	0x0e09439c
    2678:	00764252 	.word	0x00764252
    267c:	920b430c 	.word	0x920b430c
    2680:	94129611 	.word	0x94129611
    2684:	d0132d00 	.word	0xd0132d00
    2688:	22009808 	.word	0x22009808
    268c:	1c294243 	.word	0x1c294243
    2690:	1c034359 	.word	0x1c034359
    2694:	005b436b 	.word	0x005b436b
    2698:	930f425b 	.word	0x930f425b
    269c:	95052301 	.word	0x95052301
    26a0:	1c2f910d 	.word	0x1c2f910d
    26a4:	92069204 	.word	0x92069204
    26a8:	26019307 	.word	0x26019307
    26ac:	e0ac920e 	.word	0xe0ac920e
    26b0:	99129e01 	.word	0x99129e01
    26b4:	00729c03 	.word	0x00729c03
    26b8:	1ba09100 	.word	0x1ba09100
    26bc:	99023201 	.word	0x99023201
    26c0:	e0cb2301 	.word	0xe0cb2301
    26c4:	9c049a09 	.word	0x9c049a09
    26c8:	1c13980d 	.word	0x1c13980d
    26cc:	990a4363 	.word	0x990a4363
    26d0:	428b181b 	.word	0x428b181b
    26d4:	9b08dd07 	.word	0x9b08dd07
    26d8:	1c1a9c05 	.word	0x1c1a9c05
    26dc:	18134362 	.word	0x18134362
    26e0:	4283980c 	.word	0x4283980c
    26e4:	2e01dc41 	.word	0x2e01dc41
    26e8:	495fd02e 	.word	0x495fd02e
    26ec:	18739c06 	.word	0x18739c06
    26f0:	469c005b 	.word	0x469c005b
    26f4:	00789b03 	.word	0x00789b03
    26f8:	9c071b1d 	.word	0x9c071b1d
    26fc:	1c429b02 	.word	0x1c429b02
    2700:	1bd93c01 	.word	0x1bd93c01
    2704:	d9174562 	.word	0xd9174562
    2708:	19649812 	.word	0x19649812
    270c:	185b1eb3 	.word	0x185b1eb3
    2710:	1c229000 	.word	0x1c229000
    2714:	f7ff1c28 	.word	0xf7ff1c28
    2718:	9902fd91 	.word	0x9902fd91
    271c:	187a2001 	.word	0x187a2001
    2720:	189b1b83 	.word	0x189b1b83
    2724:	9a121c51 	.word	0x9a121c51
    2728:	92001c28 	.word	0x92001c28
    272c:	f7ff1c22 	.word	0xf7ff1c22
    2730:	1bbbfd85 	.word	0x1bbbfd85
    2734:	e0071c5f 	.word	0xe0071c5f
    2738:	9c121962 	.word	0x9c121962
    273c:	1c281843 	.word	0x1c281843
    2740:	f7ff9400 	.word	0xf7ff9400
    2744:	2700fd7b 	.word	0x2700fd7b
    2748:	9910980e 	.word	0x9910980e
    274c:	9a0d9e04 	.word	0x9a0d9e04
    2750:	9c079b06 	.word	0x9c079b06
    2754:	36011840 	.word	0x36011840
    2758:	33011812 	.word	0x33011812
    275c:	96043402 	.word	0x96043402
    2760:	920d900e 	.word	0x920d900e
    2764:	94079306 	.word	0x94079306
    2768:	980de04e 	.word	0x980de04e
    276c:	1a83990b 	.word	0x1a83990b
    2770:	dd0a428b 	.word	0xdd0a428b
    2774:	9c119b0f 	.word	0x9c119b0f
    2778:	191b9a05 	.word	0x191b9a05
    277c:	18c03a01 	.word	0x18c03a01
    2780:	930f9205 	.word	0x930f9205
    2784:	3601900d 	.word	0x3601900d
    2788:	9b03e03f 	.word	0x9b03e03f
    278c:	00719c06 	.word	0x00719c06
    2790:	00781b1d 	.word	0x00781b1d
    2794:	9b029c07 	.word	0x9b029c07
    2798:	1c42468c 	.word	0x1c42468c
    279c:	1bd93c01 	.word	0x1bd93c01
    27a0:	d9114562 	.word	0xd9114562
    27a4:	19649812 	.word	0x19649812
    27a8:	185b1e73 	.word	0x185b1e73
    27ac:	1c229000 	.word	0x1c229000
    27b0:	f7ff1c28 	.word	0xf7ff1c28
    27b4:	9902fd43 	.word	0x9902fd43
    27b8:	187b9a12 	.word	0x187b9a12
    27bc:	92001c59 	.word	0x92001c59
    27c0:	1c281b9b 	.word	0x1c281b9b
    27c4:	e0041c22 	.word	0xe0041c22
    27c8:	9c121962 	.word	0x9c121962
    27cc:	94001843 	.word	0x94001843
    27d0:	f7ff1c28 	.word	0xf7ff1c28
    27d4:	9804fd33 	.word	0x9804fd33
    27d8:	3001990e 	.word	0x3001990e
    27dc:	9b059a10 	.word	0x9b059a10
    27e0:	90049c0f 	.word	0x90049c0f
    27e4:	18899811 	.word	0x18899811
    27e8:	18243b01 	.word	0x18243b01
    27ec:	9305910e 	.word	0x9305910e
    27f0:	990d190b 	.word	0x990d190b
    27f4:	18c99a06 	.word	0x18c99a06
    27f8:	32019b07 	.word	0x32019b07
    27fc:	940f3302 	.word	0x940f3302
    2800:	9206910d 	.word	0x9206910d
    2804:	1bbf9307 	.word	0x1bbf9307
    2808:	9c052601 	.word	0x9c052601
    280c:	db042c00 	.word	0xdb042c00
    2810:	99019804 	.word	0x99019804
    2814:	d8004288 	.word	0xd8004288
    2818:	9a03e754 	.word	0x9a03e754
    281c:	9c079b06 	.word	0x9c079b06
    2820:	1ad59802 	.word	0x1ad59802
    2824:	1bc13c01 	.word	0x1bc13c01
    2828:	d91142b7 	.word	0xd91142b7
    282c:	19649a12 	.word	0x19649a12
    2830:	185b1e73 	.word	0x185b1e73
    2834:	1c289200 	.word	0x1c289200
    2838:	f7ff1c22 	.word	0xf7ff1c22
    283c:	9802fcff 	.word	0x9802fcff
    2840:	183b9a12 	.word	0x183b9a12
    2844:	92001c59 	.word	0x92001c59
    2848:	1c281b9b 	.word	0x1c281b9b
    284c:	e0051c22 	.word	0xe0051c22
    2850:	9c121962 	.word	0x9c121962
    2854:	185b007b 	.word	0x185b007b
    2858:	1c289400 	.word	0x1c289400
    285c:	fceef7ff 	.word	0xfceef7ff
    2860:	bcf0b013 	.word	0xbcf0b013
    2864:	4700bc01 	.word	0x4700bc01
    2868:	7fffffff 	.word	0x7fffffff
    286c:	f032b530 	.word	0xf032b530
    2870:	4a0ff933 	.word	0x4a0ff933
    2874:	801323b7 	.word	0x801323b7
    2878:	490e23b6 	.word	0x490e23b6
    287c:	23b88053 	.word	0x23b88053
    2880:	23be8093 	.word	0x23be8093
    2884:	23bd800b 	.word	0x23bd800b
    2888:	804b4c0b 	.word	0x804b4c0b
    288c:	808b23bf 	.word	0x808b23bf
    2890:	802323b4 	.word	0x802323b4
    2894:	4d0923b3 	.word	0x4d0923b3
    2898:	23b58063 	.word	0x23b58063
    289c:	231a80a3 	.word	0x231a80a3
    28a0:	2316802b 	.word	0x2316802b
    28a4:	230e806b 	.word	0x230e806b
    28a8:	bc3080ab 	.word	0xbc3080ab
    28ac:	4700bc01 	.word	0x4700bc01
    28b0:	001ba538 	.word	0x001ba538
    28b4:	001ba53e 	.word	0x001ba53e
    28b8:	001ba52c 	.word	0x001ba52c
    28bc:	001ba532 	.word	0x001ba532
    28c0:	f032b500 	.word	0xf032b500
    28c4:	f7fff901 	.word	0xf7fff901
    28c8:	bc01fa55 	.word	0xbc01fa55
    28cc:	46c04700 	.word	0x46c04700
    28d0:	4b05b500 	.word	0x4b05b500
    28d4:	681a2100 	.word	0x681a2100
    28d8:	00524b04 	.word	0x00524b04
    28dc:	f0326818 	.word	0xf0326818
    28e0:	bc01f8ff 	.word	0xbc01f8ff
    28e4:	46c04700 	.word	0x46c04700
    28e8:	001af76c 	.word	0x001af76c
    28ec:	001af770 	.word	0x001af770
    28f0:	f032b530 	.word	0xf032b530
    28f4:	4c12f8f9 	.word	0x4c12f8f9
    28f8:	f0326020 	.word	0xf0326020
    28fc:	4b11f8f9 	.word	0x4b11f8f9
    2900:	60184a11 	.word	0x60184a11
    2904:	43436823 	.word	0x43436823
    2908:	f0326013 	.word	0xf0326013
    290c:	4c0ff8f5 	.word	0x4c0ff8f5
    2910:	f0326020 	.word	0xf0326020
    2914:	4b0ef8f5 	.word	0x4b0ef8f5
    2918:	60184d0e 	.word	0x60184d0e
    291c:	43436823 	.word	0x43436823
    2920:	f032602b 	.word	0xf032602b
    2924:	4a0cf8f1 	.word	0x4a0cf8f1
    2928:	6010682b 	.word	0x6010682b
    292c:	605018c0 	.word	0x605018c0
    2930:	f7ff2000 	.word	0xf7ff2000
    2934:	f7fffa15 	.word	0xf7fffa15
    2938:	bc30fa1d 	.word	0xbc30fa1d
    293c:	4700bc01 	.word	0x4700bc01
    2940:	001af758 	.word	0x001af758
    2944:	001af75c 	.word	0x001af75c
    2948:	001af760 	.word	0x001af760
    294c:	001af764 	.word	0x001af764
    2950:	001af768 	.word	0x001af768
    2954:	001af76c 	.word	0x001af76c
    2958:	001af770 	.word	0x001af770
    295c:	46c04718 	.word	0x46c04718
    2960:	60184b03 	.word	0x60184b03
    2964:	60194b03 	.word	0x60194b03
    2968:	601a4b03 	.word	0x601a4b03
    296c:	46c04770 	.word	0x46c04770
    2970:	001af7d0 	.word	0x001af7d0
    2974:	001af80c 	.word	0x001af80c
    2978:	001af808 	.word	0x001af808
    297c:	20004b05 	.word	0x20004b05
    2980:	689a681b 	.word	0x689a681b
    2984:	3001e000 	.word	0x3001e000
    2988:	32106853 	.word	0x32106853
    298c:	d1fa2b00 	.word	0xd1fa2b00
    2990:	46c04770 	.word	0x46c04770
    2994:	001af7d0 	.word	0x001af7d0
    2998:	4b0fb500 	.word	0x4b0fb500
    299c:	4b0f681a 	.word	0x4b0f681a
    29a0:	681b6892 	.word	0x681b6892
    29a4:	18d1011b 	.word	0x18d1011b
    29a8:	23f0884a 	.word	0x23f0884a
    29ac:	401a011b 	.word	0x401a011b
    29b0:	009b23c0 	.word	0x009b23c0
    29b4:	d104429a 	.word	0xd104429a
    29b8:	2a0068ca 	.word	0x2a0068ca
    29bc:	f001d001 	.word	0xf001d001
    29c0:	4b05f99b 	.word	0x4b05f99b
    29c4:	685a681b 	.word	0x685a681b
    29c8:	d0032a00 	.word	0xd0032a00
    29cc:	68184b03 	.word	0x68184b03
    29d0:	f992f001 	.word	0xf992f001
    29d4:	4700bc01 	.word	0x4700bc01
    29d8:	001af7d0 	.word	0x001af7d0
    29dc:	001af808 	.word	0x001af808
    29e0:	4b09b500 	.word	0x4b09b500
    29e4:	4b09681a 	.word	0x4b09681a
    29e8:	681b6892 	.word	0x681b6892
    29ec:	18d2011b 	.word	0x18d2011b
    29f0:	68136892 	.word	0x68136892
    29f4:	414b4259 	.word	0x414b4259
    29f8:	f7ff6013 	.word	0xf7ff6013
    29fc:	4a04ffcd 	.word	0x4a04ffcd
    2a00:	60132301 	.word	0x60132301
    2a04:	4700bc01 	.word	0x4700bc01
    2a08:	001af7d0 	.word	0x001af7d0
    2a0c:	001af808 	.word	0x001af808
    2a10:	001af810 	.word	0x001af810
    2a14:	1c03b500 	.word	0x1c03b500
    2a18:	1c426840 	.word	0x1c426840
    2a1c:	f022d002 	.word	0xf022d002
    2a20:	e000fa61 	.word	0xe000fa61
    2a24:	bc026898 	.word	0xbc026898
    2a28:	46c04708 	.word	0x46c04708
    2a2c:	4a20b5f0 	.word	0x4a20b5f0
    2a30:	b0832394 	.word	0xb0832394
    2a34:	9002009b 	.word	0x9002009b
    2a38:	481e58d3 	.word	0x481e58d3
    2a3c:	2b009000 	.word	0x2b009000
    2a40:	4e1dd024 	.word	0x4e1dd024
    2a44:	4f1e4a1d 	.word	0x4f1e4a1d
    2a48:	68396835 	.word	0x68396835
    2a4c:	88139201 	.word	0x88139201
    2a50:	22201c28 	.word	0x22201c28
    2a54:	ff10f01f 	.word	0xff10f01f
    2a58:	19444b1a 	.word	0x19444b1a
    2a5c:	4b1a681a 	.word	0x4b1a681a
    2a60:	681b6034 	.word	0x681b6034
    2a64:	68929801 	.word	0x68929801
    2a68:	5c9a011b 	.word	0x5c9a011b
    2a6c:	88036839 	.word	0x88036839
    2a70:	f01f1c20 	.word	0xf01f1c20
    2a74:	9a02fe9b 	.word	0x9a02fe9b
    2a78:	1c131824 	.word	0x1c131824
    2a7c:	4a134343 	.word	0x4a134343
    2a80:	68126034 	.word	0x68126034
    2a84:	189b9800 	.word	0x189b9800
    2a88:	e0016003 	.word	0xe0016003
    2a8c:	60139a00 	.word	0x60139a00
    2a90:	4b0b4d09 	.word	0x4b0b4d09
    2a94:	6819682c 	.word	0x6819682c
    2a98:	1c204b0d 	.word	0x1c204b0d
    2a9c:	2220881b 	.word	0x2220881b
    2aa0:	feeaf01f 	.word	0xfeeaf01f
    2aa4:	1900b003 	.word	0x1900b003
    2aa8:	bcf06028 	.word	0xbcf06028
    2aac:	4700bc01 	.word	0x4700bc01
    2ab0:	001ba558 	.word	0x001ba558
    2ab4:	001af85c 	.word	0x001af85c
    2ab8:	001af858 	.word	0x001af858
    2abc:	001af862 	.word	0x001af862
    2ac0:	001af854 	.word	0x001af854
    2ac4:	001af7d0 	.word	0x001af7d0
    2ac8:	001af850 	.word	0x001af850
    2acc:	001af834 	.word	0x001af834
    2ad0:	001af860 	.word	0x001af860
    2ad4:	b082b5f0 	.word	0xb082b5f0
    2ad8:	1c089001 	.word	0x1c089001
    2adc:	f7ff1c0d 	.word	0xf7ff1c0d
    2ae0:	4b1affa5 	.word	0x4b1affa5
    2ae4:	68184f1a 	.word	0x68184f1a
    2ae8:	683c4b1a 	.word	0x683c4b1a
    2aec:	4b1a681a 	.word	0x4b1a681a
    2af0:	681b1a12 	.word	0x681b1a12
    2af4:	1ad21a12 	.word	0x1ad21a12
    2af8:	4e194b18 	.word	0x4e194b18
    2afc:	6831881b 	.word	0x6831881b
    2b00:	93001c20 	.word	0x93001c20
    2b04:	f01f9b01 	.word	0xf01f9b01
    2b08:	1904ff41 	.word	0x1904ff41
    2b0c:	2d02603c 	.word	0x2d02603c
    2b10:	4b14d10e 	.word	0x4b14d10e
    2b14:	00922294 	.word	0x00922294
    2b18:	2b00589b 	.word	0x2b00589b
    2b1c:	4b12d008 	.word	0x4b12d008
    2b20:	881b6831 	.word	0x881b6831
    2b24:	22521c20 	.word	0x22521c20
    2b28:	fe40f01f 	.word	0xfe40f01f
    2b2c:	60381900 	.word	0x60381900
    2b30:	22204b07 	.word	0x22204b07
    2b34:	4b0a6818 	.word	0x4b0a6818
    2b38:	4b086819 	.word	0x4b086819
    2b3c:	f01f881b 	.word	0xf01f881b
    2b40:	b002fe9b 	.word	0xb002fe9b
    2b44:	bc01bcf0 	.word	0xbc01bcf0
    2b48:	46c04700 	.word	0x46c04700
    2b4c:	001af834 	.word	0x001af834
    2b50:	001af858 	.word	0x001af858
    2b54:	001af820 	.word	0x001af820
    2b58:	001af85c 	.word	0x001af85c
    2b5c:	001af860 	.word	0x001af860
    2b60:	001af854 	.word	0x001af854
    2b64:	001ba558 	.word	0x001ba558
    2b68:	001af862 	.word	0x001af862
    2b6c:	b085b5f0 	.word	0xb085b5f0
    2b70:	20019002 	.word	0x20019002
    2b74:	f7ff9101 	.word	0xf7ff9101
    2b78:	4f25ff59 	.word	0x4f25ff59
    2b7c:	683b4e25 	.word	0x683b4e25
    2b80:	68339303 	.word	0x68339303
    2b84:	4b249304 	.word	0x4b249304
    2b88:	4b24681a 	.word	0x4b24681a
    2b8c:	4b24681c 	.word	0x4b24681c
    2b90:	681b1aa4 	.word	0x681b1aa4
    2b94:	1ae41aa4 	.word	0x1ae41aa4
    2b98:	1ae49b01 	.word	0x1ae49b01
    2b9c:	681b4b21 	.word	0x681b4b21
    2ba0:	4b211ae4 	.word	0x4b211ae4
    2ba4:	681b1aa4 	.word	0x681b1aa4
    2ba8:	4b201ae4 	.word	0x4b201ae4
    2bac:	4b20681a 	.word	0x4b20681a
    2bb0:	681b6892 	.word	0x681b6892
    2bb4:	18d2011b 	.word	0x18d2011b
    2bb8:	f0226850 	.word	0xf0226850
    2bbc:	4d1df993 	.word	0x4d1df993
    2bc0:	882a1c03 	.word	0x882a1c03
    2bc4:	92009904 	.word	0x92009904
    2bc8:	1c229803 	.word	0x1c229803
    2bcc:	fedef01f 	.word	0xfedef01f
    2bd0:	68319b03 	.word	0x68319b03
    2bd4:	603c18c4 	.word	0x603c18c4
    2bd8:	4a17882b 	.word	0x4a17882b
    2bdc:	f01f1c20 	.word	0xf01f1c20
    2be0:	882bffc3 	.word	0x882bffc3
    2be4:	603c1824 	.word	0x603c1824
    2be8:	9a016831 	.word	0x9a016831
    2bec:	1c209300 	.word	0x1c209300
    2bf0:	f01f9b02 	.word	0xf01f9b02
    2bf4:	1824fe9b 	.word	0x1824fe9b
    2bf8:	6831603c 	.word	0x6831603c
    2bfc:	4a0f882b 	.word	0x4a0f882b
    2c00:	f01f1c20 	.word	0xf01f1c20
    2c04:	b005ffb1 	.word	0xb005ffb1
    2c08:	bc01bcf0 	.word	0xbc01bcf0
    2c0c:	46c04700 	.word	0x46c04700
    2c10:	001af858 	.word	0x001af858
    2c14:	001af854 	.word	0x001af854
    2c18:	001af834 	.word	0x001af834
    2c1c:	001af820 	.word	0x001af820
    2c20:	001af838 	.word	0x001af838
    2c24:	001af83c 	.word	0x001af83c
    2c28:	001af85c 	.word	0x001af85c
    2c2c:	001af7d0 	.word	0x001af7d0
    2c30:	001af850 	.word	0x001af850
    2c34:	001af860 	.word	0x001af860
    2c38:	001a7a23 	.word	0x001a7a23
    2c3c:	001a7a26 	.word	0x001a7a26
    2c40:	b085b5f0 	.word	0xb085b5f0
    2c44:	fe9af7ff 	.word	0xfe9af7ff
    2c48:	4b3b4f3a 	.word	0x4b3b4f3a
    2c4c:	4a3b683e 	.word	0x4a3b683e
    2c50:	1c056018 	.word	0x1c056018
    2c54:	42b09202 	.word	0x42b09202
    2c58:	4b39dd27 	.word	0x4b39dd27
    2c5c:	f01f681c 	.word	0xf01f681c
    2c60:	2301fd27 	.word	0x2301fd27
    2c64:	1c1d1b9b 	.word	0x1c1d1b9b
    2c68:	4b364345 	.word	0x4b364345
    2c6c:	086d192d 	.word	0x086d192d
    2c70:	601d4a35 	.word	0x601d4a35
    2c74:	683f4b35 	.word	0x683f4b35
    2c78:	6813681e 	.word	0x6813681e
    2c7c:	f01f18f6 	.word	0xf01f18f6
    2c80:	9a02fd17 	.word	0x9a02fd17
    2c84:	009b2390 	.word	0x009b2390
    2c88:	1c3b5ad4 	.word	0x1c3b5ad4
    2c8c:	0a244343 	.word	0x0a244343
    2c90:	43210221 	.word	0x43210221
    2c94:	3b011c32 	.word	0x3b011c32
    2c98:	32089100 	.word	0x32089100
    2c9c:	1c30195b 	.word	0x1c30195b
    2ca0:	f7ff1c29 	.word	0xf7ff1c29
    2ca4:	2408facb 	.word	0x2408facb
    2ca8:	2392e017 	.word	0x2392e017
    2cac:	009b9a02 	.word	0x009b9a02
    2cb0:	4c2358d3 	.word	0x4c2358d3
    2cb4:	2b004f23 	.word	0x2b004f23
    2cb8:	6824d005 	.word	0x6824d005
    2cbc:	fcf8f01f 	.word	0xfcf8f01f
    2cc0:	1b5b2301 	.word	0x1b5b2301
    2cc4:	6824e004 	.word	0x6824e004
    2cc8:	fcf2f01f 	.word	0xfcf2f01f
    2ccc:	1b9b2301 	.word	0x1b9b2301
    2cd0:	191b4343 	.word	0x191b4343
    2cd4:	603b085b 	.word	0x603b085b
    2cd8:	4b1b2400 	.word	0x4b1b2400
    2cdc:	9304681b 	.word	0x9304681b
    2ce0:	681b4b18 	.word	0x681b4b18
    2ce4:	f01f9303 	.word	0xf01f9303
    2ce8:	4b18fce3 	.word	0x4b18fce3
    2cec:	681e4a13 	.word	0x681e4a13
    2cf0:	009b2394 	.word	0x009b2394
    2cf4:	1c0758d3 	.word	0x1c0758d3
    2cf8:	d1012b00 	.word	0xd1012b00
    2cfc:	e0022500 	.word	0xe0022500
    2d00:	681b4b13 	.word	0x681b4b13
    2d04:	4b12781d 	.word	0x4b12781d
    2d08:	2202681b 	.word	0x2202681b
    2d0c:	f0225e98 	.word	0xf0225e98
    2d10:	9b03f8e9 	.word	0x9b03f8e9
    2d14:	1bd99000 	.word	0x1bd99000
    2d18:	4b0e4808 	.word	0x4b0e4808
    2d1c:	5ac319a2 	.word	0x5ac319a2
    2d20:	93019804 	.word	0x93019804
    2d24:	f01f1c2b 	.word	0xf01f1c2b
    2d28:	b005fe59 	.word	0xb005fe59
    2d2c:	bc01bcf0 	.word	0xbc01bcf0
    2d30:	46c04700 	.word	0x46c04700
    2d34:	001af824 	.word	0x001af824
    2d38:	001af814 	.word	0x001af814
    2d3c:	001ba558 	.word	0x001ba558
    2d40:	001af75c 	.word	0x001af75c
    2d44:	001af81c 	.word	0x001af81c
    2d48:	001af818 	.word	0x001af818
    2d4c:	001af820 	.word	0x001af820
    2d50:	001af7d0 	.word	0x001af7d0
    2d54:	00000242 	.word	0x00000242
    2d58:	4be2b5f0 	.word	0x4be2b5f0
    2d5c:	681bb0a0 	.word	0x681bb0a0
    2d60:	d1002b00 	.word	0xd1002b00
    2d64:	2b02e2e6 	.word	0x2b02e2e6
    2d68:	f7ffd101 	.word	0xf7ffd101
    2d6c:	4addff69 	.word	0x4addff69
    2d70:	60132300 	.word	0x60132300
    2d74:	49dd4bdc 	.word	0x49dd4bdc
    2d78:	4add681b 	.word	0x4add681b
    2d7c:	4bdd600b 	.word	0x4bdd600b
    2d80:	681b48dd 	.word	0x681b48dd
    2d84:	60139015 	.word	0x60139015
    2d88:	22004bdc 	.word	0x22004bdc
    2d8c:	93029213 	.word	0x93029213
    2d90:	4bdbe259 	.word	0x4bdbe259
    2d94:	681b49db 	.word	0x681b49db
    2d98:	d10142a3 	.word	0xd10142a3
    2d9c:	e0002391 	.word	0xe0002391
    2da0:	009b2390 	.word	0x009b2390
    2da4:	4bd85aca 	.word	0x4bd85aca
    2da8:	801a49d6 	.word	0x801a49d6
    2dac:	681b4bd4 	.word	0x681b4bd4
    2db0:	d10542a3 	.word	0xd10542a3
    2db4:	4ad50a13 	.word	0x4ad50a13
    2db8:	5c8a021b 	.word	0x5c8a021b
    2dbc:	e001431a 	.word	0xe001431a
    2dc0:	5aca4bd2 	.word	0x5aca4bd2
    2dc4:	801a4bd2 	.word	0x801a4bd2
    2dc8:	4ad34bd2 	.word	0x4ad34bd2
    2dcc:	6013681b 	.word	0x6013681b
    2dd0:	220f4bca 	.word	0x220f4bca
    2dd4:	689b681b 	.word	0x689b681b
    2dd8:	88431818 	.word	0x88431818
    2ddc:	3b014013 	.word	0x3b014013
    2de0:	d9002b0b 	.word	0xd9002b0b
    2de4:	4acde222 	.word	0x4acde222
    2de8:	58d3009b 	.word	0x58d3009b
    2dec:	469f4fc0 	.word	0x469f4fc0
    2df0:	681b6883 	.word	0x681b6883
    2df4:	d1012b00 	.word	0xd1012b00
    2df8:	e00048bf 	.word	0xe00048bf
    2dfc:	4bc948c8 	.word	0x4bc948c8
    2e00:	e2116819 	.word	0xe2116819
    2e04:	4cc86883 	.word	0x4cc86883
    2e08:	681a49c8 	.word	0x681a49c8
    2e0c:	f0311c20 	.word	0xf0311c20
    2e10:	4bc7fe4b 	.word	0x4bc7fe4b
    2e14:	68191c20 	.word	0x68191c20
    2e18:	6840e206 	.word	0x6840e206
    2e1c:	f862f022 	.word	0xf862f022
    2e20:	23944ab8 	.word	0x23944ab8
    2e24:	58d3009b 	.word	0x58d3009b
    2e28:	2b001c05 	.word	0x2b001c05
    2e2c:	4bc1d101 	.word	0x4bc1d101
    2e30:	4bb1e000 	.word	0x4bb1e000
    2e34:	49c04cbc 	.word	0x49c04cbc
    2e38:	1c2a1c20 	.word	0x1c2a1c20
    2e3c:	fe34f031 	.word	0xfe34f031
    2e40:	21021c20 	.word	0x21021c20
    2e44:	4bafe014 	.word	0x4bafe014
    2e48:	00922294 	.word	0x00922294
    2e4c:	2b00589b 	.word	0x2b00589b
    2e50:	4dbad101 	.word	0x4dbad101
    2e54:	4da8e000 	.word	0x4da8e000
    2e58:	f0226840 	.word	0xf0226840
    2e5c:	4cb2f843 	.word	0x4cb2f843
    2e60:	49b51c03 	.word	0x49b51c03
    2e64:	1c2a1c20 	.word	0x1c2a1c20
    2e68:	fe1ef031 	.word	0xfe1ef031
    2e6c:	21011c20 	.word	0x21011c20
    2e70:	fe30f7ff 	.word	0xfe30f7ff
    2e74:	6840e1da 	.word	0x6840e1da
    2e78:	f834f022 	.word	0xf834f022
    2e7c:	4ba5e7f7 	.word	0x4ba5e7f7
    2e80:	68186839 	.word	0x68186839
    2e84:	22204ba0 	.word	0x22204ba0
    2e88:	f01f881b 	.word	0xf01f881b
    2e8c:	9c02fcf5 	.word	0x9c02fcf5
    2e90:	68224f96 	.word	0x68224f96
    2e94:	6892683b 	.word	0x6892683b
    2e98:	18d2011b 	.word	0x18d2011b
    2e9c:	f0226850 	.word	0xf0226850
    2ea0:	7803f821 	.word	0x7803f821
    2ea4:	2b004ca0 	.word	0x2b004ca0
    2ea8:	9802d00e 	.word	0x9802d00e
    2eac:	6802683b 	.word	0x6802683b
    2eb0:	6892011b 	.word	0x6892011b
    2eb4:	685018d2 	.word	0x685018d2
    2eb8:	f814f022 	.word	0xf814f022
    2ebc:	1c0249a0 	.word	0x1c0249a0
    2ec0:	f0311c20 	.word	0xf0311c20
    2ec4:	e000fdf1 	.word	0xe000fdf1
    2ec8:	48977023 	.word	0x48977023
    2ecc:	fc10f01f 	.word	0xfc10f01f
    2ed0:	49914b9c 	.word	0x49914b9c
    2ed4:	9111681b 	.word	0x9111681b
    2ed8:	1a1b680a 	.word	0x1a1b680a
    2edc:	189e105b 	.word	0x189e105b
    2ee0:	4b994a8c 	.word	0x4b994a8c
    2ee4:	9210600e 	.word	0x9210600e
    2ee8:	930f6812 	.word	0x930f6812
    2eec:	9016681b 	.word	0x9016681b
    2ef0:	42be18d7 	.word	0x42be18d7
    2ef4:	4c7edd5d 	.word	0x4c7edd5d
    2ef8:	6825940e 	.word	0x6825940e
    2efc:	fbd8f01f 	.word	0xfbd8f01f
    2f00:	1e6b4981 	.word	0x1e6b4981
    2f04:	880c910d 	.word	0x880c910d
    2f08:	18090fc1 	.word	0x18090fc1
    2f0c:	10490a24 	.word	0x10490a24
    2f10:	0221185b 	.word	0x0221185b
    2f14:	1e724321 	.word	0x1e724321
    2f18:	1c389100 	.word	0x1c389100
    2f1c:	f7ff1c29 	.word	0xf7ff1c29
    2f20:	9a0ff98d 	.word	0x9a0ff98d
    2f24:	9f0e9c10 	.word	0x9f0e9c10
    2f28:	68166823 	.word	0x68166823
    2f2c:	18f6683f 	.word	0x18f6683f
    2f30:	f01f9717 	.word	0xf01f9717
    2f34:	990efbbd 	.word	0x990efbbd
    2f38:	98111c05 	.word	0x98111c05
    2f3c:	6804680f 	.word	0x6804680f
    2f40:	fbb6f01f 	.word	0xfbb6f01f
    2f44:	181b0fc3 	.word	0x181b0fc3
    2f48:	105b0fe9 	.word	0x105b0fe9
    2f4c:	19db9a17 	.word	0x19db9a17
    2f50:	9f0d1949 	.word	0x9f0d1949
    2f54:	18891049 	.word	0x18891049
    2f58:	3c01883a 	.word	0x3c01883a
    2f5c:	1c309200 	.word	0x1c309200
    2f60:	f7fe1c22 	.word	0xf7fe1c22
    2f64:	990fff95 	.word	0x990fff95
    2f68:	68089a10 	.word	0x68089a10
    2f6c:	18c36813 	.word	0x18c36813
    2f70:	9b0e9318 	.word	0x9b0e9318
    2f74:	f01f681d 	.word	0xf01f681d
    2f78:	9c11fb9b 	.word	0x9c11fb9b
    2f7c:	980e1c07 	.word	0x980e1c07
    2f80:	68046826 	.word	0x68046826
    2f84:	fb94f01f 	.word	0xfb94f01f
    2f88:	0ffb990d 	.word	0x0ffb990d
    2f8c:	19db880a 	.word	0x19db880a
    2f90:	105b0a12 	.word	0x105b0a12
    2f94:	18ed3501 	.word	0x18ed3501
    2f98:	02133c01 	.word	0x02133c01
    2f9c:	43131824 	.word	0x43131824
    2fa0:	93003e01 	.word	0x93003e01
    2fa4:	1c299818 	.word	0x1c299818
    2fa8:	1c231c32 	.word	0x1c231c32
    2fac:	f946f7ff 	.word	0xf946f7ff
    2fb0:	9b11e001 	.word	0x9b11e001
    2fb4:	9c16601a 	.word	0x9c16601a
    2fb8:	d0102c00 	.word	0xd0102c00
    2fbc:	4d564b4c 	.word	0x4d564b4c
    2fc0:	4b516819 	.word	0x4b516819
    2fc4:	682c2000 	.word	0x682c2000
    2fc8:	9000881b 	.word	0x9000881b
    2fcc:	4a56485d 	.word	0x4a56485d
    2fd0:	90016800 	.word	0x90016800
    2fd4:	f01f1c20 	.word	0xf01f1c20
    2fd8:	1900fc87 	.word	0x1900fc87
    2fdc:	49596028 	.word	0x49596028
    2fe0:	4f4d4a4c 	.word	0x4f4d4a4c
    2fe4:	68384c58 	.word	0x68384c58
    2fe8:	920b910c 	.word	0x920b910c
    2fec:	680b6812 	.word	0x680b6812
    2ff0:	189b940a 	.word	0x189b940a
    2ff4:	90196822 	.word	0x90196822
    2ff8:	42b01a9e 	.word	0x42b01a9e
    2ffc:	483cda61 	.word	0x483cda61
    3000:	68059009 	.word	0x68059009
    3004:	fb54f01f 	.word	0xfb54f01f
    3008:	1e6b493f 	.word	0x1e6b493f
    300c:	880c9108 	.word	0x880c9108
    3010:	18090fc1 	.word	0x18090fc1
    3014:	10490a24 	.word	0x10490a24
    3018:	0221185b 	.word	0x0221185b
    301c:	1e724321 	.word	0x1e724321
    3020:	98199100 	.word	0x98199100
    3024:	f7ff1c29 	.word	0xf7ff1c29
    3028:	9b09f909 	.word	0x9b09f909
    302c:	681b683a 	.word	0x681b683a
    3030:	931b921a 	.word	0x931b921a
    3034:	fb3cf01f 	.word	0xfb3cf01f
    3038:	1c05990c 	.word	0x1c05990c
    303c:	680b980b 	.word	0x680b980b
    3040:	68049a0a 	.word	0x68049a0a
    3044:	681318e4 	.word	0x681318e4
    3048:	1ae43c01 	.word	0x1ae43c01
    304c:	681e9b09 	.word	0x681e9b09
    3050:	fb2ef01f 	.word	0xfb2ef01f
    3054:	0fc30fe9 	.word	0x0fc30fe9
    3058:	19499a1b 	.word	0x19499a1b
    305c:	9808181b 	.word	0x9808181b
    3060:	18891049 	.word	0x18891049
    3064:	105b8802 	.word	0x105b8802
    3068:	9200199b 	.word	0x9200199b
    306c:	1c22981a 	.word	0x1c22981a
    3070:	ff0ef7fe 	.word	0xff0ef7fe
    3074:	9909683f 	.word	0x9909683f
    3078:	680e971c 	.word	0x680e971c
    307c:	fb18f01f 	.word	0xfb18f01f
    3080:	1c079a0b 	.word	0x1c079a0b
    3084:	6814980c 	.word	0x6814980c
    3088:	990a6803 	.word	0x990a6803
    308c:	18e49a09 	.word	0x18e49a09
    3090:	3c01680b 	.word	0x3c01680b
    3094:	68151ae4 	.word	0x68151ae4
    3098:	fb0af01f 	.word	0xfb0af01f
    309c:	36019b08 	.word	0x36019b08
    30a0:	0ffb881a 	.word	0x0ffb881a
    30a4:	0a1219db 	.word	0x0a1219db
    30a8:	18f6105b 	.word	0x18f6105b
    30ac:	02133d01 	.word	0x02133d01
    30b0:	182d4313 	.word	0x182d4313
    30b4:	981c9300 	.word	0x981c9300
    30b8:	1c221c31 	.word	0x1c221c31
    30bc:	f7ff1c2b 	.word	0xf7ff1c2b
    30c0:	4b20f8bd 	.word	0x4b20f8bd
    30c4:	68184a13 	.word	0x68184a13
    30c8:	22206813 	.word	0x22206813
    30cc:	4b1e18c0 	.word	0x4b1e18c0
    30d0:	1ac0681b 	.word	0x1ac0681b
    30d4:	68194b06 	.word	0x68194b06
    30d8:	881b4b0b 	.word	0x881b4b0b
    30dc:	fbccf01f 	.word	0xfbccf01f
    30e0:	46c0e0a4 	.word	0x46c0e0a4
    30e4:	001af810 	.word	0x001af810
    30e8:	001af80c 	.word	0x001af80c
    30ec:	001af850 	.word	0x001af850
    30f0:	001af854 	.word	0x001af854
    30f4:	001af81c 	.word	0x001af81c
    30f8:	001aa787 	.word	0x001aa787
    30fc:	001af7d0 	.word	0x001af7d0
    3100:	001af808 	.word	0x001af808
    3104:	001ba558 	.word	0x001ba558
    3108:	001af860 	.word	0x001af860
    310c:	00000246 	.word	0x00000246
    3110:	001af862 	.word	0x001af862
    3114:	001af818 	.word	0x001af818
    3118:	001af858 	.word	0x001af858
    311c:	001a2078 	.word	0x001a2078
    3120:	001a7a29 	.word	0x001a7a29
    3124:	001af828 	.word	0x001af828
    3128:	001af788 	.word	0x001af788
    312c:	001a81c1 	.word	0x001a81c1
    3130:	001af82c 	.word	0x001af82c
    3134:	001a7a2b 	.word	0x001a7a2b
    3138:	001a7a87 	.word	0x001a7a87
    313c:	001a7a2f 	.word	0x001a7a2f
    3140:	001a7bed 	.word	0x001a7bed
    3144:	001af820 	.word	0x001af820
    3148:	001af834 	.word	0x001af834
    314c:	f7ff2001 	.word	0xf7ff2001
    3150:	4c7afc6d 	.word	0x4c7afc6d
    3154:	9407497a 	.word	0x9407497a
    3158:	68254e7a 	.word	0x68254e7a
    315c:	91066838 	.word	0x91066838
    3160:	6834680b 	.word	0x6834680b
    3164:	1ae4901d 	.word	0x1ae4901d
    3168:	48784b77 	.word	0x48784b77
    316c:	1ae4681b 	.word	0x1ae4681b
    3170:	681a9b02 	.word	0x681a9b02
    3174:	68926803 	.word	0x68926803
    3178:	18d2011b 	.word	0x18d2011b
    317c:	f0216850 	.word	0xf0216850
    3180:	4a73feb1 	.word	0x4a73feb1
    3184:	88121c03 	.word	0x88121c03
    3188:	9200991d 	.word	0x9200991d
    318c:	1c221c28 	.word	0x1c221c28
    3190:	fbfcf01f 	.word	0xfbfcf01f
    3194:	68324b6f 	.word	0x68324b6f
    3198:	681b9907 	.word	0x681b9907
    319c:	18d31940 	.word	0x18d31940
    31a0:	931e6008 	.word	0x931e6008
    31a4:	4b6c9a06 	.word	0x4b6c9a06
    31a8:	681b6812 	.word	0x681b6812
    31ac:	9312921f 	.word	0x9312921f
    31b0:	f01f683f 	.word	0xf01f683f
    31b4:	9b02fa7d 	.word	0x9b02fa7d
    31b8:	681a4c64 	.word	0x681a4c64
    31bc:	68926823 	.word	0x68926823
    31c0:	18d2011b 	.word	0x18d2011b
    31c4:	46846893 	.word	0x46846893
    31c8:	8853681c 	.word	0x8853681c
    31cc:	4013220f 	.word	0x4013220f
    31d0:	d1002b09 	.word	0xd1002b09
    31d4:	2500e0ab 	.word	0x2500e0ab
    31d8:	981e2600 	.word	0x981e2600
    31dc:	9b12991f 	.word	0x9b12991f
    31e0:	3a031a42 	.word	0x3a031a42
    31e4:	1cb91ad0 	.word	0x1cb91ad0
    31e8:	1c271efb 	.word	0x1c271efb
    31ec:	4134412f 	.word	0x4134412f
    31f0:	0624063d 	.word	0x0624063d
    31f4:	0e2d0c24 	.word	0x0e2d0c24
    31f8:	44634325 	.word	0x44634325
    31fc:	f7ff9500 	.word	0xf7ff9500
    3200:	e013f83f 	.word	0xe013f83f
    3204:	2b006883 	.word	0x2b006883
    3208:	68c1d00b 	.word	0x68c1d00b
    320c:	f0002000 	.word	0xf0002000
    3210:	e005fd74 	.word	0xe005fd74
    3214:	2b006883 	.word	0x2b006883
    3218:	2100d003 	.word	0x2100d003
    321c:	ff8ef002 	.word	0xff8ef002
    3220:	4b4e9015 	.word	0x4b4e9015
    3224:	68199815 	.word	0x68199815
    3228:	fca0f7ff 	.word	0xfca0f7ff
    322c:	98134a47 	.word	0x98134a47
    3230:	4d4b6813 	.word	0x4d4b6813
    3234:	30013301 	.word	0x30013301
    3238:	682c6013 	.word	0x682c6013
    323c:	f01f9013 	.word	0xf01f9013
    3240:	1900fa37 	.word	0x1900fa37
    3244:	4b416028 	.word	0x4b416028
    3248:	4b46681c 	.word	0x4b46681c
    324c:	681b0120 	.word	0x681b0120
    3250:	181b689b 	.word	0x181b689b
    3254:	2b00685b 	.word	0x2b00685b
    3258:	4b43d005 	.word	0x4b43d005
    325c:	681b9913 	.word	0x681b9913
    3260:	da004299 	.word	0xda004299
    3264:	4e40e595 	.word	0x4e40e595
    3268:	68344d40 	.word	0x68344d40
    326c:	42a3682b 	.word	0x42a3682b
    3270:	f01fdd60 	.word	0xf01fdd60
    3274:	1c23fa1d 	.word	0x1c23fa1d
    3278:	682d4343 	.word	0x682d4343
    327c:	68331e9c 	.word	0x68331e9c
    3280:	1c181c29 	.word	0x1c181c29
    3284:	f0304360 	.word	0xf0304360
    3288:	9014f9bf 	.word	0x9014f9bf
    328c:	dc012813 	.word	0xdc012813
    3290:	92142214 	.word	0x92142214
    3294:	1ae29b14 	.word	0x1ae29b14
    3298:	681b4b35 	.word	0x681b4b35
    329c:	da002b00 	.word	0xda002b00
    32a0:	1c182300 	.word	0x1c182300
    32a4:	1e694350 	.word	0x1e694350
    32a8:	f9aef030 	.word	0xf9aef030
    32ac:	4f294c25 	.word	0x4f294c25
    32b0:	94049005 	.word	0x94049005
    32b4:	683b9703 	.word	0x683b9703
    32b8:	68224f2e 	.word	0x68224f2e
    32bc:	9c056839 	.word	0x9c056839
    32c0:	18d23101 	.word	0x18d23101
    32c4:	4c2c1863 	.word	0x4c2c1863
    32c8:	32061c90 	.word	0x32061c90
    32cc:	f7fe9400 	.word	0xf7fe9400
    32d0:	9903ffd7 	.word	0x9903ffd7
    32d4:	680b9804 	.word	0x680b9804
    32d8:	683c6805 	.word	0x683c6805
    32dc:	4b2218ed 	.word	0x4b2218ed
    32e0:	f01f681e 	.word	0xf01f681e
    32e4:	9b14f9e5 	.word	0x9b14f9e5
    32e8:	19191caa 	.word	0x19191caa
    32ec:	3c029b05 	.word	0x3c029b05
    32f0:	1c3318c9 	.word	0x1c3318c9
    32f4:	48204343 	.word	0x48204343
    32f8:	18e43506 	.word	0x18e43506
    32fc:	1c239000 	.word	0x1c239000
    3300:	1c2a1c10 	.word	0x1c2a1c10
    3304:	ffbcf7fe 	.word	0xffbcf7fe
    3308:	9c039904 	.word	0x9c039904
    330c:	6823680a 	.word	0x6823680a
    3310:	18d29c14 	.word	0x18d29c14
    3314:	9f05683b 	.word	0x9f05683b
    3318:	18e31c59 	.word	0x18e31c59
    331c:	1c904c17 	.word	0x1c904c17
    3320:	320619c9 	.word	0x320619c9
    3324:	940019db 	.word	0x940019db
    3328:	ffaaf7fe 	.word	0xffaaf7fe
    332c:	2508e002 	.word	0x2508e002
    3330:	e7522608 	.word	0xe7522608
    3334:	bcf0b020 	.word	0xbcf0b020
    3338:	4700bc01 	.word	0x4700bc01
    333c:	001af858 	.word	0x001af858
    3340:	001af834 	.word	0x001af834
    3344:	001af820 	.word	0x001af820
    3348:	001af85c 	.word	0x001af85c
    334c:	001af850 	.word	0x001af850
    3350:	001af860 	.word	0x001af860
    3354:	001af818 	.word	0x001af818
    3358:	001af840 	.word	0x001af840
    335c:	001af830 	.word	0x001af830
    3360:	001af854 	.word	0x001af854
    3364:	001af7d0 	.word	0x001af7d0
    3368:	001af824 	.word	0x001af824
    336c:	001af814 	.word	0x001af814
    3370:	001af808 	.word	0x001af808
    3374:	001af81c 	.word	0x001af81c
    3378:	0000ffff 	.word	0x0000ffff
    337c:	00000101 	.word	0x00000101
    3380:	b084b5f0 	.word	0xb084b5f0
    3384:	20069001 	.word	0x20069001
    3388:	fbc2f031 	.word	0xfbc2f031
    338c:	d10c2800 	.word	0xd10c2800
    3390:	f0312008 	.word	0xf0312008
    3394:	2800fbbd 	.word	0x2800fbbd
    3398:	2009d107 	.word	0x2009d107
    339c:	fbb8f031 	.word	0xfbb8f031
    33a0:	d1022800 	.word	0xd1022800
    33a4:	91022101 	.word	0x91022101
    33a8:	2204e001 	.word	0x2204e001
    33ac:	49349202 	.word	0x49349202
    33b0:	4f342300 	.word	0x4f342300
    33b4:	91009303 	.word	0x91009303
    33b8:	9a01683b 	.word	0x9a01683b
    33bc:	603c18d4 	.word	0x603c18d4
    33c0:	da0a2c00 	.word	0xda0a2c00
    33c4:	fadaf7ff 	.word	0xfadaf7ff
    33c8:	38014b2f 	.word	0x38014b2f
    33cc:	6038681b 	.word	0x6038681b
    33d0:	9b001ac0 	.word	0x9b001ac0
    33d4:	60183001 	.word	0x60183001
    33d8:	f7ffe02b 	.word	0xf7ffe02b
    33dc:	4284facf 	.word	0x4284facf
    33e0:	4a27db04 	.word	0x4a27db04
    33e4:	60132300 	.word	0x60132300
    33e8:	e022603b 	.word	0xe022603b
    33ec:	29019901 	.word	0x29019901
    33f0:	4a23d118 	.word	0x4a23d118
    33f4:	68134e24 	.word	0x68134e24
    33f8:	6835683c 	.word	0x6835683c
    33fc:	1e6a1ae3 	.word	0x1e6a1ae3
    3400:	db164293 	.word	0xdb164293
    3404:	34024b1e 	.word	0x34024b1e
    3408:	601c1b64 	.word	0x601c1b64
    340c:	fab6f7ff 	.word	0xfab6f7ff
    3410:	42841964 	.word	0x42841964
    3414:	f7ffdd0d 	.word	0xf7ffdd0d
    3418:	6833fab1 	.word	0x6833fab1
    341c:	1ac04918 	.word	0x1ac04918
    3420:	e0066008 	.word	0xe0066008
    3424:	683a4916 	.word	0x683a4916
    3428:	429a680b 	.word	0x429a680b
    342c:	1e53d101 	.word	0x1e53d101
    3430:	4a13600b 	.word	0x4a13600b
    3434:	2b006813 	.word	0x2b006813
    3438:	2300da01 	.word	0x2300da01
    343c:	4b136013 	.word	0x4b136013
    3440:	4b10681a 	.word	0x4b10681a
    3444:	681b6892 	.word	0x681b6892
    3448:	18d2011b 	.word	0x18d2011b
    344c:	220f8853 	.word	0x220f8853
    3450:	3b064013 	.word	0x3b064013
    3454:	d9af2b01 	.word	0xd9af2b01
    3458:	68134a0d 	.word	0x68134a0d
    345c:	d1012b00 	.word	0xd1012b00
    3460:	60132301 	.word	0x60132301
    3464:	9b029a03 	.word	0x9b029a03
    3468:	92033201 	.word	0x92033201
    346c:	dba3429a 	.word	0xdba3429a
    3470:	23014a08 	.word	0x23014a08
    3474:	6013b004 	.word	0x6013b004
    3478:	bc01bcf0 	.word	0xbc01bcf0
    347c:	46c04700 	.word	0x46c04700
    3480:	001af80c 	.word	0x001af80c
    3484:	001af808 	.word	0x001af808
    3488:	001af824 	.word	0x001af824
    348c:	001af7d0 	.word	0x001af7d0
    3490:	001af810 	.word	0x001af810
    3494:	001af844 	.word	0x001af844
    3498:	2009b500 	.word	0x2009b500
    349c:	fb38f031 	.word	0xfb38f031
    34a0:	d0052800 	.word	0xd0052800
    34a4:	230a4a0f 	.word	0x230a4a0f
    34a8:	4a0f6013 	.word	0x4a0f6013
    34ac:	60132301 	.word	0x60132301
    34b0:	f0312008 	.word	0xf0312008
    34b4:	2800fb2d 	.word	0x2800fb2d
    34b8:	4a0ad005 	.word	0x4a0ad005
    34bc:	60132364 	.word	0x60132364
    34c0:	23014a09 	.word	0x23014a09
    34c4:	20066013 	.word	0x20066013
    34c8:	fb22f031 	.word	0xfb22f031
    34cc:	d0062800 	.word	0xd0062800
    34d0:	23fa4a04 	.word	0x23fa4a04
    34d4:	6013009b 	.word	0x6013009b
    34d8:	23014a03 	.word	0x23014a03
    34dc:	bc016013 	.word	0xbc016013
    34e0:	46c04700 	.word	0x46c04700
    34e4:	001af844 	.word	0x001af844
    34e8:	001af848 	.word	0x001af848
    34ec:	4b1eb510 	.word	0x4b1eb510
    34f0:	681a1c04 	.word	0x681a1c04
    34f4:	68924b1d 	.word	0x68924b1d
    34f8:	011b681b 	.word	0x011b681b
    34fc:	689318d2 	.word	0x689318d2
    3500:	d02a2b00 	.word	0xd02a2b00
    3504:	f0312006 	.word	0xf0312006
    3508:	2800fb03 	.word	0x2800fb03
    350c:	2008d10d 	.word	0x2008d10d
    3510:	fafef031 	.word	0xfafef031
    3514:	d0012800 	.word	0xd0012800
    3518:	e0072106 	.word	0xe0072106
    351c:	f0312009 	.word	0xf0312009
    3520:	2800faf7 	.word	0x2800faf7
    3524:	2101d101 	.word	0x2101d101
    3528:	2103e000 	.word	0x2103e000
    352c:	681a4b0e 	.word	0x681a4b0e
    3530:	68924b0e 	.word	0x68924b0e
    3534:	011b681b 	.word	0x011b681b
    3538:	884318d0 	.word	0x884318d0
    353c:	4013220f 	.word	0x4013220f
    3540:	434a1c22 	.word	0x434a1c22
    3544:	d1052b08 	.word	0xd1052b08
    3548:	688368c1 	.word	0x688368c1
    354c:	f0001c10 	.word	0xf0001c10
    3550:	e002fbd4 	.word	0xe002fbd4
    3554:	f0021c11 	.word	0xf0021c11
    3558:	4a05fdf1 	.word	0x4a05fdf1
    355c:	60132301 	.word	0x60132301
    3560:	bc01bc10 	.word	0xbc01bc10
    3564:	46c04700 	.word	0x46c04700
    3568:	001af7d0 	.word	0x001af7d0
    356c:	001af808 	.word	0x001af808
    3570:	001af810 	.word	0x001af810
    3574:	1c04b510 	.word	0x1c04b510
    3578:	ff8ef7ff 	.word	0xff8ef7ff
    357c:	681a4b48 	.word	0x681a4b48
    3580:	68924b48 	.word	0x68924b48
    3584:	011b681b 	.word	0x011b681b
    3588:	884218d0 	.word	0x884218d0
    358c:	011b23f0 	.word	0x011b23f0
    3590:	2380401a 	.word	0x2380401a
    3594:	429a005b 	.word	0x429a005b
    3598:	2380d005 	.word	0x2380d005
    359c:	6881009b 	.word	0x6881009b
    35a0:	d105429a 	.word	0xd105429a
    35a4:	6881e002 	.word	0x6881e002
    35a8:	e00368c3 	.word	0xe00368c3
    35ac:	e00068c3 	.word	0xe00068c3
    35b0:	681b4b3d 	.word	0x681b4b3d
    35b4:	43621c1a 	.word	0x43621c1a
    35b8:	189b680b 	.word	0x189b680b
    35bc:	4b38600b 	.word	0x4b38600b
    35c0:	4b386819 	.word	0x4b386819
    35c4:	688b681a 	.word	0x688b681a
    35c8:	189b0112 	.word	0x189b0112
    35cc:	6899885a 	.word	0x6899885a
    35d0:	d51106d3 	.word	0xd51106d3
    35d4:	2b00680b 	.word	0x2b00680b
    35d8:	2300da01 	.word	0x2300da01
    35dc:	4b30600b 	.word	0x4b30600b
    35e0:	4b30681a 	.word	0x4b30681a
    35e4:	681b6892 	.word	0x681b6892
    35e8:	18d2011b 	.word	0x18d2011b
    35ec:	06998853 	.word	0x06998853
    35f0:	6891d519 	.word	0x6891d519
    35f4:	e0128992 	.word	0xe0128992
    35f8:	680b4a2c 	.word	0x680b4a2c
    35fc:	da004293 	.word	0xda004293
    3600:	4b27600a 	.word	0x4b27600a
    3604:	4b27681a 	.word	0x4b27681a
    3608:	681b6892 	.word	0x681b6892
    360c:	18d2011b 	.word	0x18d2011b
    3610:	06998853 	.word	0x06998853
    3614:	68d3d507 	.word	0x68d3d507
    3618:	041b6891 	.word	0x041b6891
    361c:	680b141a 	.word	0x680b141a
    3620:	da004293 	.word	0xda004293
    3624:	4b1e600a 	.word	0x4b1e600a
    3628:	681a4921 	.word	0x681a4921
    362c:	68924b1d 	.word	0x68924b1d
    3630:	011b681b 	.word	0x011b681b
    3634:	689218d2 	.word	0x689218d2
    3638:	428b6813 	.word	0x428b6813
    363c:	6011dd00 	.word	0x6011dd00
    3640:	681a4b17 	.word	0x681a4b17
    3644:	68924b17 	.word	0x68924b17
    3648:	011b681b 	.word	0x011b681b
    364c:	885318d2 	.word	0x885318d2
    3650:	d50406d9 	.word	0xd50406d9
    3654:	d50c0659 	.word	0xd50c0659
    3658:	89d26891 	.word	0x89d26891
    365c:	0659e005 	.word	0x0659e005
    3660:	89d3d507 	.word	0x89d3d507
    3664:	041b6891 	.word	0x041b6891
    3668:	680b141a 	.word	0x680b141a
    366c:	dd004293 	.word	0xdd004293
    3670:	f7ff600a 	.word	0xf7ff600a
    3674:	490ff991 	.word	0x490ff991
    3678:	2b00680b 	.word	0x2b00680b
    367c:	4a0ad009 	.word	0x4a0ad009
    3680:	60132301 	.word	0x60132301
    3684:	600b2300 	.word	0x600b2300
    3688:	20104a0b 	.word	0x20104a0b
    368c:	f7fe2100 	.word	0xf7fe2100
    3690:	4a0afe45 	.word	0x4a0afe45
    3694:	60132301 	.word	0x60132301
    3698:	bc01bc10 	.word	0xbc01bc10
    369c:	46c04700 	.word	0x46c04700
    36a0:	001af7d0 	.word	0x001af7d0
    36a4:	001af808 	.word	0x001af808
    36a8:	001af844 	.word	0x001af844
    36ac:	ffffd8f1 	.word	0xffffd8f1
    36b0:	0001869f 	.word	0x0001869f
    36b4:	001af848 	.word	0x001af848
    36b8:	001a88ed 	.word	0x001a88ed
    36bc:	001af810 	.word	0x001af810
    36c0:	4a04b500 	.word	0x4a04b500
    36c4:	60132302 	.word	0x60132302
    36c8:	f8faf7ff 	.word	0xf8faf7ff
    36cc:	fe06f002 	.word	0xfe06f002
    36d0:	4700bc01 	.word	0x4700bc01
    36d4:	001af810 	.word	0x001af810
    36d8:	4b23b5f0 	.word	0x4b23b5f0
    36dc:	681e4f23 	.word	0x681e4f23
    36e0:	0073683c 	.word	0x0073683c
    36e4:	199b4a22 	.word	0x199b4a22
    36e8:	4d220099 	.word	0x4d220099
    36ec:	6828508c 	.word	0x6828508c
    36f0:	009b3301 	.word	0x009b3301
    36f4:	4b205098 	.word	0x4b205098
    36f8:	681b1852 	.word	0x681b1852
    36fc:	60930100 	.word	0x60930100
    3700:	23934a1e 	.word	0x23934a1e
    3704:	58d3009b 	.word	0x58d3009b
    3708:	2b0068a2 	.word	0x2b0068a2
    370c:	1813d013 	.word	0x1813d013
    3710:	21006898 	.word	0x21006898
    3714:	f7ff2200 	.word	0xf7ff2200
    3718:	683bf923 	.word	0x683bf923
    371c:	689b6829 	.word	0x689b6829
    3720:	189b010a 	.word	0x189b010a
    3724:	220f885b 	.word	0x220f885b
    3728:	3b064013 	.word	0x3b064013
    372c:	d8092b01 	.word	0xd8092b01
    3730:	602b1c4b 	.word	0x602b1c4b
    3734:	1813e006 	.word	0x1813e006
    3738:	68982201 	.word	0x68982201
    373c:	42522100 	.word	0x42522100
    3740:	f90ef7ff 	.word	0xf90ef7ff
    3744:	1c734c08 	.word	0x1c734c08
    3748:	2b046023 	.word	0x2b046023
    374c:	4b0cd907 	.word	0x4b0cd907
    3750:	20004a0c 	.word	0x20004a0c
    3754:	f7fe2100 	.word	0xf7fe2100
    3758:	2300fe6f 	.word	0x2300fe6f
    375c:	f7ff6023 	.word	0xf7ff6023
    3760:	bcf0ffaf 	.word	0xbcf0ffaf
    3764:	4700bc01 	.word	0x4700bc01
    3768:	001af804 	.word	0x001af804
    376c:	001af7d0 	.word	0x001af7d0
    3770:	001af7d4 	.word	0x001af7d4
    3774:	001af808 	.word	0x001af808
    3778:	001af80c 	.word	0x001af80c
    377c:	001ba558 	.word	0x001ba558
    3780:	0000b3bd 	.word	0x0000b3bd
    3784:	001a7a33 	.word	0x001a7a33
    3788:	4b0bb510 	.word	0x4b0bb510
    378c:	2a00681a 	.word	0x2a00681a
    3790:	3a01d00f 	.word	0x3a01d00f
    3794:	0053601a 	.word	0x0053601a
    3798:	189b4c08 	.word	0x189b4c08
    379c:	3301009a 	.word	0x3301009a
    37a0:	009b5910 	.word	0x009b5910
    37a4:	689118a2 	.word	0x689118a2
    37a8:	f7ff591a 	.word	0xf7ff591a
    37ac:	f7fff8d9 	.word	0xf7fff8d9
    37b0:	bc10ff87 	.word	0xbc10ff87
    37b4:	4700bc01 	.word	0x4700bc01
    37b8:	001af804 	.word	0x001af804
    37bc:	001af7d4 	.word	0x001af7d4
    37c0:	b082b530 	.word	0xb082b530
    37c4:	f9a8f031 	.word	0xf9a8f031
    37c8:	f0311c04 	.word	0xf0311c04
    37cc:	4320f9a9 	.word	0x4320f9a9
    37d0:	d1002809 	.word	0xd1002809
    37d4:	2809e149 	.word	0x2809e149
    37d8:	2803dc13 	.word	0x2803dc13
    37dc:	2803d073 	.word	0x2803d073
    37e0:	2801dc05 	.word	0x2801dc05
    37e4:	2802d068 	.word	0x2802d068
    37e8:	e18bd000 	.word	0xe18bd000
    37ec:	2805e067 	.word	0x2805e067
    37f0:	e0a0d100 	.word	0xe0a0d100
    37f4:	da002805 	.word	0xda002805
    37f8:	2808e080 	.word	0x2808e080
    37fc:	e181d000 	.word	0xe181d000
    3800:	2864e0f7 	.word	0x2864e0f7
    3804:	2864d058 	.word	0x2864d058
    3808:	280bdc06 	.word	0x280bdc06
    380c:	e177d100 	.word	0xe177d100
    3810:	d000280d 	.word	0xd000280d
    3814:	e007e176 	.word	0xe007e176
    3818:	d0542866 	.word	0xd0542866
    381c:	db4e2866 	.word	0xdb4e2866
    3820:	d0002867 	.word	0xd0002867
    3824:	e069e16e 	.word	0xe069e16e
    3828:	4ab94bb8 	.word	0x4ab94bb8
    382c:	2b03589b 	.word	0x2b03589b
    3830:	e167d000 	.word	0xe167d000
    3834:	22964db7 	.word	0x22964db7
    3838:	0052682b 	.word	0x0052682b
    383c:	5e192002 	.word	0x5e192002
    3840:	48b5689c 	.word	0x48b5689c
    3844:	d00c4291 	.word	0xd00c4291
    3848:	22016803 	.word	0x22016803
    384c:	92019000 	.word	0x92019000
    3850:	58e0011b 	.word	0x58e0011b
    3854:	685918e3 	.word	0x685918e3
    3858:	68db689a 	.word	0x68db689a
    385c:	fb48f002 	.word	0xfb48f002
    3860:	6803e150 	.word	0x6803e150
    3864:	90002200 	.word	0x90002200
    3868:	011b9201 	.word	0x011b9201
    386c:	18e358e0 	.word	0x18e358e0
    3870:	689a6859 	.word	0x689a6859
    3874:	f00268db 	.word	0xf00268db
    3878:	4ba8fb3b 	.word	0x4ba8fb3b
    387c:	29006819 	.word	0x29006819
    3880:	4ba7d00d 	.word	0x4ba7d00d
    3884:	681b682a 	.word	0x681b682a
    3888:	18cb6892 	.word	0x18cb6892
    388c:	011b3b01 	.word	0x011b3b01
    3890:	685318d2 	.word	0x685318d2
    3894:	d1022b00 	.word	0xd1022b00
    3898:	1e4b4aa0 	.word	0x1e4b4aa0
    389c:	4aa16013 	.word	0x4aa16013
    38a0:	60132302 	.word	0x60132302
    38a4:	f86af7ff 	.word	0xf86af7ff
    38a8:	681b4b9d 	.word	0x681b4b9d
    38ac:	db004298 	.word	0xdb004298
    38b0:	f7ffe128 	.word	0xf7ffe128
    38b4:	e125f805 	.word	0xe125f805
    38b8:	42402001 	.word	0x42402001
    38bc:	2001e000 	.word	0x2001e000
    38c0:	fd5ef7ff 	.word	0xfd5ef7ff
    38c4:	4b94e11e 	.word	0x4b94e11e
    38c8:	2a00681a 	.word	0x2a00681a
    38cc:	e117da00 	.word	0xe117da00
    38d0:	01124b90 	.word	0x01124b90
    38d4:	689b681b 	.word	0x689b681b
    38d8:	885b189b 	.word	0x885b189b
    38dc:	4013220f 	.word	0x4013220f
    38e0:	2a0a1e5a 	.word	0x2a0a1e5a
    38e4:	e10dd900 	.word	0xe10dd900
    38e8:	4a8f0093 	.word	0x4a8f0093
    38ec:	469f58d3 	.word	0x469f58d3
    38f0:	42402001 	.word	0x42402001
    38f4:	2001e018 	.word	0x2001e018
    38f8:	e0194240 	.word	0xe0194240
    38fc:	681a4b86 	.word	0x681a4b86
    3900:	da002a00 	.word	0xda002a00
    3904:	4b83e0fe 	.word	0x4b83e0fe
    3908:	681b0112 	.word	0x681b0112
    390c:	189b689b 	.word	0x189b689b
    3910:	220f885b 	.word	0x220f885b
    3914:	1e5a4013 	.word	0x1e5a4013
    3918:	d9002a0a 	.word	0xd9002a0a
    391c:	0093e0f2 	.word	0x0093e0f2
    3920:	58d34a82 	.word	0x58d34a82
    3924:	2001469f 	.word	0x2001469f
    3928:	fe24f7ff 	.word	0xfe24f7ff
    392c:	2001e0ea 	.word	0x2001e0ea
    3930:	fddcf7ff 	.word	0xfddcf7ff
    3934:	4b78e0e6 	.word	0x4b78e0e6
    3938:	2a00681a 	.word	0x2a00681a
    393c:	e0e1da00 	.word	0xe0e1da00
    3940:	01124b74 	.word	0x01124b74
    3944:	689b681b 	.word	0x689b681b
    3948:	884b1899 	.word	0x884b1899
    394c:	4013220f 	.word	0x4013220f
    3950:	2b0a3b01 	.word	0x2b0a3b01
    3954:	e0d5d900 	.word	0xe0d5d900
    3958:	009b4a75 	.word	0x009b4a75
    395c:	469f58d3 	.word	0x469f58d3
    3960:	f0312006 	.word	0xf0312006
    3964:	2800f8d5 	.word	0x2800f8d5
    3968:	e0cbd100 	.word	0xe0cbd100
    396c:	681a4b69 	.word	0x681a4b69
    3970:	68924b69 	.word	0x68924b69
    3974:	011b681b 	.word	0x011b681b
    3978:	689218d2 	.word	0x689218d2
    397c:	e05c2300 	.word	0xe05c2300
    3980:	f82ef7ff 	.word	0xf82ef7ff
    3984:	688be0be 	.word	0x688be0be
    3988:	d1002b00 	.word	0xd1002b00
    398c:	68c8e0ba 	.word	0x68c8e0ba
    3990:	f9b3f000 	.word	0xf9b3f000
    3994:	681b4b5f 	.word	0x681b4b5f
    3998:	2a00685a 	.word	0x2a00685a
    399c:	4b5ed022 	.word	0x4b5ed022
    39a0:	f0006818 	.word	0xf0006818
    39a4:	e01df9a9 	.word	0xe01df9a9
    39a8:	fe96f7ff 	.word	0xfe96f7ff
    39ac:	f7fee0aa 	.word	0xf7fee0aa
    39b0:	4b58ff87 	.word	0x4b58ff87
    39b4:	4b58681a 	.word	0x4b58681a
    39b8:	681b6891 	.word	0x681b6891
    39bc:	011b220f 	.word	0x011b220f
    39c0:	884b18c9 	.word	0x884b18c9
    39c4:	3b094013 	.word	0x3b094013
    39c8:	415a425a 	.word	0x415a425a
    39cc:	2001688b 	.word	0x2001688b
    39d0:	4a58189b 	.word	0x4a58189b
    39d4:	78196013 	.word	0x78196013
    39d8:	f0004a57 	.word	0xf0004a57
    39dc:	2003f98f 	.word	0x2003f98f
    39e0:	fc76f002 	.word	0xfc76f002
    39e4:	23024a4f 	.word	0x23024a4f
    39e8:	2001e070 	.word	0x2001e070
    39ec:	fd7ef7ff 	.word	0xfd7ef7ff
    39f0:	4b46e06a 	.word	0x4b46e06a
    39f4:	589b4a46 	.word	0x589b4a46
    39f8:	d1202b03 	.word	0xd1202b03
    39fc:	68194b45 	.word	0x68194b45
    3a00:	24022396 	.word	0x24022396
    3a04:	005b5f0a 	.word	0x005b5f0a
    3a08:	d118429a 	.word	0xd118429a
    3a0c:	688c4d42 	.word	0x688c4d42
    3a10:	2302682a 	.word	0x2302682a
    3a14:	93019500 	.word	0x93019500
    3a18:	59100112 	.word	0x59100112
    3a1c:	68e318a4 	.word	0x68e318a4
    3a20:	68a26861 	.word	0x68a26861
    3a24:	fa64f002 	.word	0xfa64f002
    3a28:	682d4b3c 	.word	0x682d4b3c
    3a2c:	42ab681b 	.word	0x42ab681b
    3a30:	2d00db4a 	.word	0x2d00db4a
    3a34:	4a39d048 	.word	0x4a39d048
    3a38:	60131e6b 	.word	0x60131e6b
    3a3c:	4c3fe044 	.word	0x4c3fe044
    3a40:	28096820 	.word	0x28096820
    3a44:	210add03 	.word	0x210add03
    3a48:	fddef02f 	.word	0xfddef02f
    3a4c:	4c3c6020 	.word	0x4c3c6020
    3a50:	493c4b3a 	.word	0x493c4b3a
    3a54:	1c20681a 	.word	0x1c20681a
    3a58:	f826f031 	.word	0xf826f031
    3a5c:	20104a3a 	.word	0x20104a3a
    3a60:	23002100 	.word	0x23002100
    3a64:	fc5af7fe 	.word	0xfc5af7fe
    3a68:	4a28e043 	.word	0x4a28e043
    3a6c:	58d04b28 	.word	0x58d04b28
    3a70:	d12d2803 	.word	0xd12d2803
    3a74:	23964d27 	.word	0x23964d27
    3a78:	005b6829 	.word	0x005b6829
    3a7c:	5f0a2402 	.word	0x5f0a2402
    3a80:	d125429a 	.word	0xd125429a
    3a84:	688b4c24 	.word	0x688b4c24
    3a88:	94006822 	.word	0x94006822
    3a8c:	01129001 	.word	0x01129001
    3a90:	189b58d0 	.word	0x189b58d0
    3a94:	689a6859 	.word	0x689a6859
    3a98:	f00268db 	.word	0xf00268db
    3a9c:	481ffa29 	.word	0x481ffa29
    3aa0:	68014b1f 	.word	0x68014b1f
    3aa4:	6824681b 	.word	0x6824681b
    3aa8:	3b0118cb 	.word	0x3b0118cb
    3aac:	dc0b42a3 	.word	0xdc0b42a3
    3ab0:	dc092c0d 	.word	0xdc092c0d
    3ab4:	1c63682a 	.word	0x1c63682a
    3ab8:	011b6892 	.word	0x011b6892
    3abc:	685318d2 	.word	0x685318d2
    3ac0:	d0012b00 	.word	0xd0012b00
    3ac4:	60031c4b 	.word	0x60031c4b
    3ac8:	23014a16 	.word	0x23014a16
    3acc:	e0196013 	.word	0xe0196013
    3ad0:	23fa491a 	.word	0x23fa491a
    3ad4:	009b680a 	.word	0x009b680a
    3ad8:	dc03429a 	.word	0xdc03429a
    3adc:	189b0093 	.word	0x189b0093
    3ae0:	600b005b 	.word	0x600b005b
    3ae4:	4b154c16 	.word	0x4b154c16
    3ae8:	681a4916 	.word	0x681a4916
    3aec:	f0301c20 	.word	0xf0301c20
    3af0:	2000ffdb 	.word	0x2000ffdb
    3af4:	1c222100 	.word	0x1c222100
    3af8:	f7fe4b14 	.word	0xf7fe4b14
    3afc:	e001fc0f 	.word	0xe001fc0f
    3b00:	fe42f7ff 	.word	0xfe42f7ff
    3b04:	bc30b002 	.word	0xbc30b002
    3b08:	4700bc01 	.word	0x4700bc01
    3b0c:	001ba558 	.word	0x001ba558
    3b10:	00000614 	.word	0x00000614
    3b14:	001af7d0 	.word	0x001af7d0
    3b18:	001af808 	.word	0x001af808
    3b1c:	001af80c 	.word	0x001af80c
    3b20:	001af824 	.word	0x001af824
    3b24:	001af810 	.word	0x001af810
    3b28:	001a20a8 	.word	0x001a20a8
    3b2c:	001a20d4 	.word	0x001a20d4
    3b30:	001a2100 	.word	0x001a2100
    3b34:	001af84c 	.word	0x001af84c
    3b38:	001708ad 	.word	0x001708ad
    3b3c:	001af844 	.word	0x001af844
    3b40:	001af7c8 	.word	0x001af7c8
    3b44:	001a7a36 	.word	0x001a7a36
    3b48:	001a88ed 	.word	0x001a88ed
    3b4c:	00000eff 	.word	0x00000eff
    3b50:	4b03b500 	.word	0x4b03b500
    3b54:	7018681b 	.word	0x7018681b
    3b58:	fdb2f7ff 	.word	0xfdb2f7ff
    3b5c:	4700bc01 	.word	0x4700bc01
    3b60:	001af84c 	.word	0x001af84c
    3b64:	4d19b530 	.word	0x4d19b530
    3b68:	682a4b19 	.word	0x682a4b19
    3b6c:	0053681c 	.word	0x0053681c
    3b70:	189b4918 	.word	0x189b4918
    3b74:	4a180098 	.word	0x4a180098
    3b78:	68125044 	.word	0x68125044
    3b7c:	009b3301 	.word	0x009b3301
    3b80:	4b16505a 	.word	0x4b16505a
    3b84:	681b1809 	.word	0x681b1809
    3b88:	608b0112 	.word	0x608b0112
    3b8c:	210068a3 	.word	0x210068a3
    3b90:	2201189b 	.word	0x2201189b
    3b94:	42526898 	.word	0x42526898
    3b98:	fee2f7fe 	.word	0xfee2f7fe
    3b9c:	3301682b 	.word	0x3301682b
    3ba0:	2b04602b 	.word	0x2b04602b
    3ba4:	4b0ed907 	.word	0x4b0ed907
    3ba8:	20004a0e 	.word	0x20004a0e
    3bac:	f7fe2100 	.word	0xf7fe2100
    3bb0:	2300fc43 	.word	0x2300fc43
    3bb4:	4a0c602b 	.word	0x4a0c602b
    3bb8:	60132302 	.word	0x60132302
    3bbc:	fe80f7fe 	.word	0xfe80f7fe
    3bc0:	fb8cf002 	.word	0xfb8cf002
    3bc4:	bc01bc30 	.word	0xbc01bc30
    3bc8:	46c04700 	.word	0x46c04700
    3bcc:	001af804 	.word	0x001af804
    3bd0:	001af7d0 	.word	0x001af7d0
    3bd4:	001af7d4 	.word	0x001af7d4
    3bd8:	001af808 	.word	0x001af808
    3bdc:	001af80c 	.word	0x001af80c
    3be0:	0000b3bd 	.word	0x0000b3bd
    3be4:	001a7a33 	.word	0x001a7a33
    3be8:	001af810 	.word	0x001af810
    3bec:	f002b500 	.word	0xf002b500
    3bf0:	2802fb69 	.word	0x2802fb69
    3bf4:	4b02d101 	.word	0x4b02d101
    3bf8:	bc016018 	.word	0xbc016018
    3bfc:	46c04700 	.word	0x46c04700
    3c00:	001af810 	.word	0x001af810
    3c04:	2800b530 	.word	0x2800b530
    3c08:	4b28d010 	.word	0x4b28d010
    3c0c:	00922293 	.word	0x00922293
    3c10:	2b00589b 	.word	0x2b00589b
    3c14:	2100d002 	.word	0x2100d002
    3c18:	e0022200 	.word	0xe0022200
    3c1c:	21002201 	.word	0x21002201
    3c20:	f7fe4252 	.word	0xf7fe4252
    3c24:	4a22fe9d 	.word	0x4a22fe9d
    3c28:	60132300 	.word	0x60132300
    3c2c:	681c4b21 	.word	0x681c4b21
    3c30:	fd3ef01e 	.word	0xfd3ef01e
    3c34:	1c201c01 	.word	0x1c201c01
    3c38:	fca0f02f 	.word	0xfca0f02f
    3c3c:	230a4a1e 	.word	0x230a4a1e
    3c40:	4b1e6013 	.word	0x4b1e6013
    3c44:	681b4a1e 	.word	0x681b4a1e
    3c48:	3b144d1e 	.word	0x3b144d1e
    3c4c:	60133801 	.word	0x60133801
    3c50:	481d6028 	.word	0x481d6028
    3c54:	fd4cf01e 	.word	0xfd4cf01e
    3c58:	60184b1c 	.word	0x60184b1c
    3c5c:	f01e481c 	.word	0xf01e481c
    3c60:	4b1cfd47 	.word	0x4b1cfd47
    3c64:	481c6018 	.word	0x481c6018
    3c68:	fd42f01e 	.word	0xfd42f01e
    3c6c:	60184b1b 	.word	0x60184b1b
    3c70:	f01e2020 	.word	0xf01e2020
    3c74:	4b1afd29 	.word	0x4b1afd29
    3c78:	205b6018 	.word	0x205b6018
    3c7c:	fd24f01e 	.word	0xfd24f01e
    3c80:	60184b18 	.word	0x60184b18
    3c84:	f01e205d 	.word	0xf01e205d
    3c88:	4b17fd1f 	.word	0x4b17fd1f
    3c8c:	f01e6018 	.word	0xf01e6018
    3c90:	4b16fd0f 	.word	0x4b16fd0f
    3c94:	38044a16 	.word	0x38044a16
    3c98:	23016018 	.word	0x23016018
    3c9c:	4a156013 	.word	0x4a156013
    3ca0:	60132302 	.word	0x60132302
    3ca4:	bc01bc30 	.word	0xbc01bc30
    3ca8:	46c04700 	.word	0x46c04700
    3cac:	001ba558 	.word	0x001ba558
    3cb0:	001af804 	.word	0x001af804
    3cb4:	001af75c 	.word	0x001af75c
    3cb8:	001af818 	.word	0x001af818
    3cbc:	001af758 	.word	0x001af758
    3cc0:	001af820 	.word	0x001af820
    3cc4:	001af824 	.word	0x001af824
    3cc8:	001a7a29 	.word	0x001a7a29
    3ccc:	001af828 	.word	0x001af828
    3cd0:	001a7a3a 	.word	0x001a7a3a
    3cd4:	001af82c 	.word	0x001af82c
    3cd8:	001a7a40 	.word	0x001a7a40
    3cdc:	001af830 	.word	0x001af830
    3ce0:	001af834 	.word	0x001af834
    3ce4:	001af838 	.word	0x001af838
    3ce8:	001af83c 	.word	0x001af83c
    3cec:	001af840 	.word	0x001af840
    3cf0:	001af844 	.word	0x001af844
    3cf4:	001af810 	.word	0x001af810
    3cf8:	47184710 	.word	0x47184710
    3cfc:	80194b04 	.word	0x80194b04
    3d00:	60184b04 	.word	0x60184b04
    3d04:	601a4b04 	.word	0x601a4b04
    3d08:	23014a04 	.word	0x23014a04
    3d0c:	47706013 	.word	0x47706013
    3d10:	001af8a4 	.word	0x001af8a4
    3d14:	001af8a8 	.word	0x001af8a8
    3d18:	001af8ac 	.word	0x001af8ac
    3d1c:	001af8b0 	.word	0x001af8b0
    3d20:	4b45b5f0 	.word	0x4b45b5f0
    3d24:	681bb084 	.word	0x681bb084
    3d28:	4b449302 	.word	0x4b449302
    3d2c:	2b00681b 	.word	0x2b00681b
    3d30:	9802d07e 	.word	0x9802d07e
    3d34:	21004a42 	.word	0x21004a42
    3d38:	38e84b42 	.word	0x38e84b42
    3d3c:	faeef7fe 	.word	0xfaeef7fe
    3d40:	f0212096 	.word	0xf0212096
    3d44:	4c40f8cf 	.word	0x4c40f8cf
    3d48:	1c024b40 	.word	0x1c024b40
    3d4c:	781b4940 	.word	0x781b4940
    3d50:	f0301c20 	.word	0xf0301c20
    3d54:	2100fea9 	.word	0x2100fea9
    3d58:	1c222000 	.word	0x1c222000
    3d5c:	f7fe4b39 	.word	0xf7fe4b39
    3d60:	21fffadd 	.word	0x21fffadd
    3d64:	26189103 	.word	0x26189103
    3d68:	1c20e019 	.word	0x1c20e019
    3d6c:	340d1c04 	.word	0x340d1c04
    3d70:	1c3b1c22 	.word	0x1c3b1c22
    3d74:	95001c31 	.word	0x95001c31
    3d78:	fa60f7fe 	.word	0xfa60f7fe
    3d7c:	00522280 	.word	0x00522280
    3d80:	041b18ab 	.word	0x041b18ab
    3d84:	2cd80c1d 	.word	0x2cd80c1d
    3d88:	9903d1ef 	.word	0x9903d1ef
    3d8c:	01522280 	.word	0x01522280
    3d90:	041b188b 	.word	0x041b188b
    3d94:	93030c1b 	.word	0x93030c1b
    3d98:	d0052fe8 	.word	0xd0052fe8
    3d9c:	1c371c3e 	.word	0x1c371c3e
    3da0:	20089d03 	.word	0x20089d03
    3da4:	e7e1370d 	.word	0xe7e1370d
    3da8:	9a024b2a 	.word	0x9a024b2a
    3dac:	2116681b 	.word	0x2116681b
    3db0:	21089100 	.word	0x21089100
    3db4:	3b013a01 	.word	0x3b013a01
    3db8:	20009101 	.word	0x20009101
    3dbc:	f7fe2110 	.word	0xf7fe2110
    3dc0:	4b25f99d 	.word	0x4b25f99d
    3dc4:	930020d9 	.word	0x930020d9
    3dc8:	22e02118 	.word	0x22e02118
    3dcc:	f7fe23e8 	.word	0xf7fe23e8
    3dd0:	4e1efa35 	.word	0x4e1efa35
    3dd4:	8835210f 	.word	0x8835210f
    3dd8:	092a24b3 	.word	0x092a24b3
    3ddc:	0053400a 	.word	0x0053400a
    3de0:	4029189b 	.word	0x4029189b
    3de4:	189b009b 	.word	0x189b009b
    3de8:	004a062d 	.word	0x004a062d
    3dec:	0c2d1852 	.word	0x0c2d1852
    3df0:	00924325 	.word	0x00924325
    3df4:	042d1852 	.word	0x042d1852
    3df8:	1c901c19 	.word	0x1c901c19
    3dfc:	321b3112 	.word	0x321b3112
    3e00:	0c2d332b 	.word	0x0c2d332b
    3e04:	95002402 	.word	0x95002402
    3e08:	f7fe9401 	.word	0xf7fe9401
    3e0c:	7833fa27 	.word	0x7833fa27
    3e10:	021b2101 	.word	0x021b2101
    3e14:	9a02430b 	.word	0x9a02430b
    3e18:	0c1b041b 	.word	0x0c1b041b
    3e1c:	93003a09 	.word	0x93003a09
    3e20:	23e820e1 	.word	0x23e820e1
    3e24:	f7fe2118 	.word	0xf7fe2118
    3e28:	4a04fa09 	.word	0x4a04fa09
    3e2c:	60132300 	.word	0x60132300
    3e30:	bcf0b004 	.word	0xbcf0b004
    3e34:	4700bc01 	.word	0x4700bc01
    3e38:	001af758 	.word	0x001af758
    3e3c:	001af8b0 	.word	0x001af8b0
    3e40:	001a7a48 	.word	0x001a7a48
    3e44:	0000ff01 	.word	0x0000ff01
    3e48:	001af864 	.word	0x001af864
    3e4c:	001af8a4 	.word	0x001af8a4
    3e50:	001a7a66 	.word	0x001a7a66
    3e54:	001af75c 	.word	0x001af75c
    3e58:	00001616 	.word	0x00001616
    3e5c:	f030b500 	.word	0xf030b500
    3e60:	3801fe5b 	.word	0x3801fe5b
    3e64:	d8302804 	.word	0xd8302804
    3e68:	00834a19 	.word	0x00834a19
    3e6c:	469f58d3 	.word	0x469f58d3
    3e70:	88014818 	.word	0x88014818
    3e74:	33101c0b 	.word	0x33101c0b
    3e78:	4816e003 	.word	0x4816e003
    3e7c:	1c0b8801 	.word	0x1c0b8801
    3e80:	22f03b10 	.word	0x22f03b10
    3e84:	220f4013 	.word	0x220f4013
    3e88:	430b4011 	.word	0x430b4011
    3e8c:	80034a12 	.word	0x80034a12
    3e90:	60132301 	.word	0x60132301
    3e94:	480fe019 	.word	0x480fe019
    3e98:	1e4b8801 	.word	0x1e4b8801
    3e9c:	480de002 	.word	0x480de002
    3ea0:	1c4b8801 	.word	0x1c4b8801
    3ea4:	4013220f 	.word	0x4013220f
    3ea8:	e7ed22f0 	.word	0xe7ed22f0
    3eac:	681b4b0b 	.word	0x681b4b0b
    3eb0:	d10a2b01 	.word	0xd10a2b01
    3eb4:	681a4b0a 	.word	0x681a4b0a
    3eb8:	d0032a00 	.word	0xd0032a00
    3ebc:	88184b05 	.word	0x88184b05
    3ec0:	f810f000 	.word	0xf810f000
    3ec4:	f0022002 	.word	0xf0022002
    3ec8:	bc01fa03 	.word	0xbc01fa03
    3ecc:	46c04700 	.word	0x46c04700
    3ed0:	001a212c 	.word	0x001a212c
    3ed4:	001af8a4 	.word	0x001af8a4
    3ed8:	001af8b0 	.word	0x001af8b0
    3edc:	001af8a8 	.word	0x001af8a8
    3ee0:	001af8ac 	.word	0x001af8ac
    3ee4:	46c04710 	.word	0x46c04710
    3ee8:	4a054b04 	.word	0x4a054b04
    3eec:	4905681b 	.word	0x4905681b
    3ef0:	589b009b 	.word	0x589b009b
    3ef4:	585800db 	.word	0x585800db
    3ef8:	46c04770 	.word	0x46c04770
    3efc:	001af8d8 	.word	0x001af8d8
    3f00:	001af8c8 	.word	0x001af8c8
    3f04:	001a2140 	.word	0x001a2140
    3f08:	4b29b5f0 	.word	0x4b29b5f0
    3f0c:	681f4a29 	.word	0x681f4a29
    3f10:	4b2a4c29 	.word	0x4b2a4c29
    3f14:	9205b086 	.word	0x9205b086
    3f18:	93022600 	.word	0x93022600
    3f1c:	e03e9401 	.word	0xe03e9401
    3f20:	68139a01 	.word	0x68139a01
    3f24:	d00242b3 	.word	0xd00242b3
    3f28:	93044b25 	.word	0x93044b25
    3f2c:	4c25e001 	.word	0x4c25e001
    3f30:	4d259404 	.word	0x4d259404
    3f34:	682b1c3a 	.word	0x682b1c3a
    3f38:	1e591e78 	.word	0x1e591e78
    3f3c:	33133233 	.word	0x33133233
    3f40:	940024ff 	.word	0x940024ff
    3f44:	f8ccf7fe 	.word	0xf8ccf7fe
    3f48:	9c04682b 	.word	0x9c04682b
    3f4c:	1e991c3a 	.word	0x1e991c3a
    3f50:	32321eb8 	.word	0x32321eb8
    3f54:	94003312 	.word	0x94003312
    3f58:	f970f7fe 	.word	0xf970f7fe
    3f5c:	4c1b9a05 	.word	0x4c1b9a05
    3f60:	36016813 	.word	0x36016813
    3f64:	330400db 	.word	0x330400db
    3f68:	f0205918 	.word	0xf0205918
    3f6c:	f030ffbb 	.word	0xf030ffbb
    3f70:	9a05fddb 	.word	0x9a05fddb
    3f74:	ca089003 	.word	0xca089003
    3f78:	00db682d 	.word	0x00db682d
    3f7c:	59183304 	.word	0x59183304
    3f80:	f0209205 	.word	0xf0209205
    3f84:	9b03ffaf 	.word	0x9b03ffaf
    3f88:	20061c02 	.word	0x20061c02
    3f8c:	00c01ac0 	.word	0x00c01ac0
    3f90:	18381040 	.word	0x18381040
    3f94:	9b041c29 	.word	0x9b041c29
    3f98:	f9c0f7fe 	.word	0xf9c0f7fe
    3f9c:	9c023742 	.word	0x9c023742
    3fa0:	429e6823 	.word	0x429e6823
    3fa4:	b006dbbc 	.word	0xb006dbbc
    3fa8:	bc01bcf0 	.word	0xbc01bcf0
    3fac:	46c04700 	.word	0x46c04700
    3fb0:	001af8dc 	.word	0x001af8dc
    3fb4:	001af8c8 	.word	0x001af8c8
    3fb8:	001af8d8 	.word	0x001af8d8
    3fbc:	001af8d4 	.word	0x001af8d4
    3fc0:	0000ff01 	.word	0x0000ff01
    3fc4:	0000b301 	.word	0x0000b301
    3fc8:	001af8e0 	.word	0x001af8e0
    3fcc:	001a2140 	.word	0x001a2140
    3fd0:	f030b510 	.word	0xf030b510
    3fd4:	1c04fdad 	.word	0x1c04fdad
    3fd8:	fda2f030 	.word	0xfda2f030
    3fdc:	28054320 	.word	0x28054320
    3fe0:	2805d021 	.word	0x2805d021
    3fe4:	2803dc04 	.word	0x2803dc04
    3fe8:	2804d007 	.word	0x2804d007
    3fec:	e00cd135 	.word	0xe00cd135
    3ff0:	d0022864 	.word	0xd0022864
    3ff4:	d1302865 	.word	0xd1302865
    3ff8:	4a19e007 	.word	0x4a19e007
    3ffc:	2b006813 	.word	0x2b006813
    4000:	4b18dc01 	.word	0x4b18dc01
    4004:	3b01681b 	.word	0x3b01681b
    4008:	4b16e009 	.word	0x4b16e009
    400c:	681b4a14 	.word	0x681b4a14
    4010:	3b016811 	.word	0x3b016811
    4014:	da014299 	.word	0xda014299
    4018:	e0001c4b 	.word	0xe0001c4b
    401c:	60132300 	.word	0x60132300
    4020:	ff72f7ff 	.word	0xff72f7ff
    4024:	f030e019 	.word	0xf030e019
    4028:	4b0ffd87 	.word	0x4b0ffd87
    402c:	f0026818 	.word	0xf0026818
    4030:	4b0ef94f 	.word	0x4b0ef94f
    4034:	055a681b 	.word	0x055a681b
    4038:	f7fed501 	.word	0xf7fed501
    403c:	4b0cfc41 	.word	0x4b0cfc41
    4040:	2c00681c 	.word	0x2c00681c
    4044:	4b06d009 	.word	0x4b06d009
    4048:	681b4a0a 	.word	0x681b4a0a
    404c:	009b490a 	.word	0x009b490a
    4050:	00db589b 	.word	0x00db589b
    4054:	f0005858 	.word	0xf0005858
    4058:	bc10f977 	.word	0xbc10f977
    405c:	4700bc01 	.word	0x4700bc01
    4060:	001af8d8 	.word	0x001af8d8
    4064:	001af8d4 	.word	0x001af8d4
    4068:	001af8b4 	.word	0x001af8b4
    406c:	001af8c4 	.word	0x001af8c4
    4070:	001af8e4 	.word	0x001af8e4
    4074:	001af8c8 	.word	0x001af8c8
    4078:	001a2140 	.word	0x001a2140
    407c:	4b70b5f0 	.word	0x4b70b5f0
    4080:	781bb0d1 	.word	0x781bb0d1
    4084:	d1002b00 	.word	0xd1002b00
    4088:	4b6ee0d5 	.word	0x4b6ee0d5
    408c:	4b6e681c 	.word	0x4b6e681c
    4090:	0153681a 	.word	0x0153681a
    4094:	005b189b 	.word	0x005b189b
    4098:	93053b12 	.word	0x93053b12
    409c:	fd1cf030 	.word	0xfd1cf030
    40a0:	68184b6a 	.word	0x68184b6a
    40a4:	fd40f030 	.word	0xfd40f030
    40a8:	d9002823 	.word	0xd9002823
    40ac:	27002023 	.word	0x27002023
    40b0:	ad092200 	.word	0xad092200
    40b4:	e0192600 	.word	0xe0192600
    40b8:	d10b290a 	.word	0xd10b290a
    40bc:	19db00fb 	.word	0x19db00fb
    40c0:	189b009b 	.word	0x189b009b
    40c4:	555e3701 	.word	0x555e3701
    40c8:	d1012f08 	.word	0xd1012f08
    40cc:	e0102200 	.word	0xe0102200
    40d0:	e00a2200 	.word	0xe00a2200
    40d4:	d8082a22 	.word	0xd8082a22
    40d8:	19db00fb 	.word	0x19db00fb
    40dc:	189b009b 	.word	0x189b009b
    40e0:	55593201 	.word	0x55593201
    40e4:	d9004282 	.word	0xd9004282
    40e8:	34011c10 	.word	0x34011c10
    40ec:	29007821 	.word	0x29007821
    40f0:	3002d1e2 	.word	0x3002d1e2
    40f4:	2f079007 	.word	0x2f079007
    40f8:	00fbd807 	.word	0x00fbd807
    40fc:	009b19db 	.word	0x009b19db
    4100:	2100189b 	.word	0x2100189b
    4104:	5499aa09 	.word	0x5499aa09
    4108:	9a053701 	.word	0x9a053701
    410c:	32129807 	.word	0x32129807
    4110:	429a00c3 	.word	0x429a00c3
    4114:	08d3d902 	.word	0x08d3d902
    4118:	93073301 	.word	0x93073301
    411c:	232c9907 	.word	0x232c9907
    4120:	260c1a5b 	.word	0x260c1a5b
    4124:	1bf6085b 	.word	0x1bf6085b
    4128:	087600db 	.word	0x087600db
    412c:	01361cbd 	.word	0x01361cbd
    4130:	930400ca 	.word	0x930400ca
    4134:	189b012d 	.word	0x189b012d
    4138:	98041975 	.word	0x98041975
    413c:	93039208 	.word	0x93039208
    4140:	24ff1c1a 	.word	0x24ff1c1a
    4144:	1ef11c2b 	.word	0x1ef11c2b
    4148:	32053803 	.word	0x32053803
    414c:	94003312 	.word	0x94003312
    4150:	94012403 	.word	0x94012403
    4154:	fff4f7fd 	.word	0xfff4f7fd
    4158:	9a039804 	.word	0x9a039804
    415c:	35114b3c 	.word	0x35114b3c
    4160:	38041f31 	.word	0x38041f31
    4164:	93003204 	.word	0x93003204
    4168:	94011c2b 	.word	0x94011c2b
    416c:	f876f7fe 	.word	0xf876f7fe
    4170:	9a039804 	.word	0x9a039804
    4174:	1c334d37 	.word	0x1c334d37
    4178:	32021eb1 	.word	0x32021eb1
    417c:	33123802 	.word	0x33123802
    4180:	f7fe9500 	.word	0xf7fe9500
    4184:	4b31f85b 	.word	0x4b31f85b
    4188:	1c20681c 	.word	0x1c20681c
    418c:	fcccf030 	.word	0xfcccf030
    4190:	9a049907 	.word	0x9a049907
    4194:	08401a08 	.word	0x08401a08
    4198:	188000c0 	.word	0x188000c0
    419c:	1c221c31 	.word	0x1c221c31
    41a0:	f7fe1c2b 	.word	0xf7fe1c2b
    41a4:	9808f8bb 	.word	0x9808f8bb
    41a8:	4b2b9905 	.word	0x4b2b9905
    41ac:	98041a42 	.word	0x98041a42
    41b0:	18120852 	.word	0x18120852
    41b4:	013b601a 	.word	0x013b601a
    41b8:	331a4a28 	.word	0x331a4a28
    41bc:	6013199b 	.word	0x6013199b
    41c0:	19db00fb 	.word	0x19db00fb
    41c4:	a951009b 	.word	0xa951009b
    41c8:	18cb4a25 	.word	0x18cb4a25
    41cc:	013b189c 	.word	0x013b189c
    41d0:	199b3306 	.word	0x199b3306
    41d4:	4b239306 	.word	0x4b239306
    41d8:	258026c0 	.word	0x258026c0
    41dc:	00b69302 	.word	0x00b69302
    41e0:	1c20006d 	.word	0x1c20006d
    41e4:	fca0f030 	.word	0xfca0f030
    41e8:	1c329902 	.word	0x1c329902
    41ec:	3f01680b 	.word	0x3f01680b
    41f0:	42aa401a 	.word	0x42aa401a
    41f4:	2380d005 	.word	0x2380d005
    41f8:	429a009b 	.word	0x429a009b
    41fc:	2008d005 	.word	0x2008d005
    4200:	9a07e008 	.word	0x9a07e008
    4204:	085b1a13 	.word	0x085b1a13
    4208:	9907e003 	.word	0x9907e003
    420c:	1a0b4a16 	.word	0x1a0b4a16
    4210:	00d8189b 	.word	0x00d8189b
    4214:	1c229b04 	.word	0x1c229b04
    4218:	990618c0 	.word	0x990618c0
    421c:	f7fe4b0c 	.word	0xf7fe4b0c
    4220:	9806f87d 	.word	0x9806f87d
    4224:	38103c24 	.word	0x38103c24
    4228:	2f009006 	.word	0x2f009006
    422c:	f7ffd1d9 	.word	0xf7ffd1d9
    4230:	4b03fe6b 	.word	0x4b03fe6b
    4234:	b051701f 	.word	0xb051701f
    4238:	bc01bcf0 	.word	0xbc01bcf0
    423c:	46c04700 	.word	0x46c04700
    4240:	001af8c0 	.word	0x001af8c0
    4244:	001af8bc 	.word	0x001af8bc
    4248:	001af8d4 	.word	0x001af8d4
    424c:	001af8b8 	.word	0x001af8b8
    4250:	00001601 	.word	0x00001601
    4254:	0000ff01 	.word	0x0000ff01
    4258:	001af8dc 	.word	0x001af8dc
    425c:	001af8e0 	.word	0x001af8e0
    4260:	fffffebc 	.word	0xfffffebc
    4264:	001af8c4 	.word	0x001af8c4
    4268:	1fffffff 	.word	0x1fffffff
    426c:	b082b5f0 	.word	0xb082b5f0
    4270:	91011c07 	.word	0x91011c07
    4274:	93001c15 	.word	0x93001c15
    4278:	21004829 	.word	0x21004829
    427c:	26ff2200 	.word	0x26ff2200
    4280:	e00a4c28 	.word	0xe00a4c28
    4284:	40336803 	.word	0x40336803
    4288:	d002422b 	.word	0xd002422b
    428c:	51190093 	.word	0x51190093
    4290:	31013201 	.word	0x31013201
    4294:	29043008 	.word	0x29043008
    4298:	2a02d001 	.word	0x2a02d001
    429c:	4b22ddf2 	.word	0x4b22ddf2
    42a0:	601a4921 	.word	0x601a4921
    42a4:	2a00680a 	.word	0x2a00680a
    42a8:	4b1ed103 	.word	0x4b1ed103
    42ac:	2301601a 	.word	0x2301601a
    42b0:	23c0600b 	.word	0x23c0600b
    42b4:	1c2a019b 	.word	0x1c2a019b
    42b8:	2380401a 	.word	0x2380401a
    42bc:	429a015b 	.word	0x429a015b
    42c0:	2380d008 	.word	0x2380d008
    42c4:	429a019b 	.word	0x429a019b
    42c8:	4918d007 	.word	0x4918d007
    42cc:	d1082a00 	.word	0xd1082a00
    42d0:	e008600a 	.word	0xe008600a
    42d4:	23014a15 	.word	0x23014a15
    42d8:	4a14e001 	.word	0x4a14e001
    42dc:	60132302 	.word	0x60132302
    42e0:	2300e001 	.word	0x2300e001
    42e4:	f001600b 	.word	0xf001600b
    42e8:	4b11ffed 	.word	0x4b11ffed
    42ec:	1c386018 	.word	0x1c386018
    42f0:	fdf8f020 	.word	0xfdf8f020
    42f4:	60184b0f 	.word	0x60184b0f
    42f8:	f0209801 	.word	0xf0209801
    42fc:	4b0efdf3 	.word	0x4b0efdf3
    4300:	60184a0e 	.word	0x60184a0e
    4304:	70132301 	.word	0x70132301
    4308:	9a004b0d 	.word	0x9a004b0d
    430c:	4b0d601d 	.word	0x4b0d601d
    4310:	601a2004 	.word	0x601a2004
    4314:	ffdcf001 	.word	0xffdcf001
    4318:	bcf0b002 	.word	0xbcf0b002
    431c:	4700bc01 	.word	0x4700bc01
    4320:	001a2140 	.word	0x001a2140
    4324:	001af8c8 	.word	0x001af8c8
    4328:	001af8d4 	.word	0x001af8d4
    432c:	001af8d8 	.word	0x001af8d8
    4330:	001af8b4 	.word	0x001af8b4
    4334:	001af8b8 	.word	0x001af8b8
    4338:	001af8bc 	.word	0x001af8bc
    433c:	001af8c0 	.word	0x001af8c0
    4340:	001af8c4 	.word	0x001af8c4
    4344:	001af8e4 	.word	0x001af8e4
    4348:	46c04720 	.word	0x46c04720
    434c:	60184b01 	.word	0x60184b01
    4350:	46c04770 	.word	0x46c04770
    4354:	001afb14 	.word	0x001afb14
    4358:	78034802 	.word	0x78034802
    435c:	d1002b00 	.word	0xd1002b00
    4360:	47702000 	.word	0x47702000
    4364:	001af9e0 	.word	0x001af9e0
    4368:	4b17b530 	.word	0x4b17b530
    436c:	681a1c05 	.word	0x681a1c05
    4370:	24004b16 	.word	0x24004b16
    4374:	e01d6818 	.word	0xe01d6818
    4378:	42936983 	.word	0x42936983
    437c:	6992d103 	.word	0x6992d103
    4380:	d1002a00 	.word	0xd1002a00
    4384:	2b001c1a 	.word	0x2b001c1a
    4388:	2d01d112 	.word	0x2d01d112
    438c:	69c3d10f 	.word	0x69c3d10f
    4390:	d0012b00 	.word	0xd0012b00
    4394:	e7fa1c18 	.word	0xe7fa1c18
    4398:	21001c03 	.word	0x21001c03
    439c:	3101e003 	.word	0x3101e003
    43a0:	d0042909 	.word	0xd0042909
    43a4:	699a1c13 	.word	0x699a1c13
    43a8:	d1f82a00 	.word	0xd1f82a00
    43ac:	1c031c1a 	.word	0x1c031c1a
    43b0:	1c183401 	.word	0x1c183401
    43b4:	dbdf42ac 	.word	0xdbdf42ac
    43b8:	601a4b03 	.word	0x601a4b03
    43bc:	60184b03 	.word	0x60184b03
    43c0:	bc01bc30 	.word	0xbc01bc30
    43c4:	46c04700 	.word	0x46c04700
    43c8:	001afaac 	.word	0x001afaac
    43cc:	001afab0 	.word	0x001afab0
    43d0:	4d1ab5f0 	.word	0x4d1ab5f0
    43d4:	1c2f1c06 	.word	0x1c2f1c06
    43d8:	e02a2000 	.word	0xe02a2000
    43dc:	2300682c 	.word	0x2300682c
    43e0:	e0011c21 	.word	0xe0011c21
    43e4:	330169c9 	.word	0x330169c9
    43e8:	dc012b08 	.word	0xdc012b08
    43ec:	d1f92900 	.word	0xd1f92900
    43f0:	d10c2b09 	.word	0xd10c2b09
    43f4:	d00a2900 	.word	0xd00a2900
    43f8:	698a4b11 	.word	0x698a4b11
    43fc:	429a681b 	.word	0x429a681b
    4400:	69cbd105 	.word	0x69cbd105
    4404:	d0022b00 	.word	0xd0022b00
    4408:	69e34a0c 	.word	0x69e34a0c
    440c:	4a0c6013 	.word	0x4a0c6013
    4410:	69db6813 	.word	0x69db6813
    4414:	d0012b00 	.word	0xd0012b00
    4418:	e0096013 	.word	0xe0096013
    441c:	d1072e01 	.word	0xd1072e01
    4420:	603be000 	.word	0x603be000
    4424:	6993683a 	.word	0x6993683a
    4428:	d1fa2b00 	.word	0xd1fa2b00
    442c:	601a4b04 	.word	0x601a4b04
    4430:	42b03001 	.word	0x42b03001
    4434:	bcf0dbd2 	.word	0xbcf0dbd2
    4438:	4700bc01 	.word	0x4700bc01
    443c:	001afaac 	.word	0x001afaac
    4440:	001afab0 	.word	0x001afab0
    4444:	681a4b06 	.word	0x681a4b06
    4448:	d0082a00 	.word	0xd0082a00
    444c:	2bff7a13 	.word	0x2bff7a13
    4450:	06d9d005 	.word	0x06d9d005
    4454:	7d13d403 	.word	0x7d13d403
    4458:	414b4259 	.word	0x414b4259
    445c:	47707513 	.word	0x47707513
    4460:	001afab0 	.word	0x001afab0
    4464:	20004b08 	.word	0x20004b08
    4468:	2110681a 	.word	0x2110681a
    446c:	7a13e009 	.word	0x7a13e009
    4470:	d0052bff 	.word	0xd0052bff
    4474:	d103420b 	.word	0xd103420b
    4478:	2b007d13 	.word	0x2b007d13
    447c:	3001d000 	.word	0x3001d000
    4480:	2a0069d2 	.word	0x2a0069d2
    4484:	4770d1f3 	.word	0x4770d1f3
    4488:	001af8ec 	.word	0x001af8ec
    448c:	f7ffb500 	.word	0xf7ffb500
    4490:	2800ffe9 	.word	0x2800ffe9
    4494:	4b06d10a 	.word	0x4b06d10a
    4498:	2a00681a 	.word	0x2a00681a
    449c:	7a12d006 	.word	0x7a12d006
    44a0:	d0032aff 	.word	0xd0032aff
    44a4:	09122301 	.word	0x09122301
    44a8:	43901c18 	.word	0x43901c18
    44ac:	4708bc02 	.word	0x4708bc02
    44b0:	001afab0 	.word	0x001afab0
    44b4:	21104b09 	.word	0x21104b09
    44b8:	e009681a 	.word	0xe009681a
    44bc:	2bff7a13 	.word	0x2bff7a13
    44c0:	420bd005 	.word	0x420bd005
    44c4:	7d13d103 	.word	0x7d13d103
    44c8:	41434258 	.word	0x41434258
    44cc:	69d27513 	.word	0x69d27513
    44d0:	d1f32a00 	.word	0xd1f32a00
    44d4:	23024a02 	.word	0x23024a02
    44d8:	47706013 	.word	0x47706013
    44dc:	001af8ec 	.word	0x001af8ec
    44e0:	001afb04 	.word	0x001afb04
    44e4:	4b0db530 	.word	0x4b0db530
    44e8:	e009681d 	.word	0xe009681d
    44ec:	28006868 	.word	0x28006868
    44f0:	f030d001 	.word	0xf030d001
    44f4:	1c28fb25 	.word	0x1c28fb25
    44f8:	f03069ec 	.word	0xf03069ec
    44fc:	1c25fb21 	.word	0x1c25fb21
    4500:	d1f32d00 	.word	0xd1f32d00
    4504:	601d4b06 	.word	0x601d4b06
    4508:	601d4b06 	.word	0x601d4b06
    450c:	601d4b03 	.word	0x601d4b03
    4510:	601d4b05 	.word	0x601d4b05
    4514:	bc01bc30 	.word	0xbc01bc30
    4518:	46c04700 	.word	0x46c04700
    451c:	001af8ec 	.word	0x001af8ec
    4520:	001afab0 	.word	0x001afab0
    4524:	001afaac 	.word	0x001afaac
    4528:	001afab4 	.word	0x001afab4
    452c:	b086b5f0 	.word	0xb086b5f0
    4530:	f7ff9004 	.word	0xf7ff9004
    4534:	9904ffd7 	.word	0x9904ffd7
    4538:	2b41780b 	.word	0x2b41780b
    453c:	784bd104 	.word	0x784bd104
    4540:	d1012b00 	.word	0xd1012b00
    4544:	e0004860 	.word	0xe0004860
    4548:	f0309804 	.word	0xf0309804
    454c:	4c5ffafd 	.word	0x4c5ffafd
    4550:	28001c07 	.word	0x28001c07
    4554:	1c26d101 	.word	0x1c26d101
    4558:	f030e068 	.word	0xf030e068
    455c:	4b5cfaf9 	.word	0x4b5cfaf9
    4560:	92052200 	.word	0x92052200
    4564:	495b9303 	.word	0x495b9303
    4568:	4b5c4a5b 	.word	0x4b5c4a5b
    456c:	1c261c05 	.word	0x1c261c05
    4570:	92019102 	.word	0x92019102
    4574:	e0549300 	.word	0xe0549300
    4578:	2be5782b 	.word	0x2be5782b
    457c:	882bd04d 	.word	0x882bd04d
    4580:	d04a2b2e 	.word	0xd04a2b2e
    4584:	f0302020 	.word	0xf0302020
    4588:	6030fae7 	.word	0x6030fae7
    458c:	d0442800 	.word	0xd0442800
    4590:	680b9903 	.word	0x680b9903
    4594:	1c286003 	.word	0x1c286003
    4598:	fac6f030 	.word	0xfac6f030
    459c:	68343001 	.word	0x68343001
    45a0:	fadaf030 	.word	0xfadaf030
    45a4:	68336060 	.word	0x68336060
    45a8:	28006858 	.word	0x28006858
    45ac:	1c29d002 	.word	0x1c29d002
    45b0:	fad6f030 	.word	0xfad6f030
    45b4:	9a049901 	.word	0x9a049901
    45b8:	98021c2b 	.word	0x98021c2b
    45bc:	fa74f030 	.word	0xfa74f030
    45c0:	98029900 	.word	0x98029900
    45c4:	fad0f030 	.word	0xfad0f030
    45c8:	28006831 	.word	0x28006831
    45cc:	9a00d10a 	.word	0x9a00d10a
    45d0:	720b6853 	.word	0x720b6853
    45d4:	68329900 	.word	0x68329900
    45d8:	60d3688b 	.word	0x60d3688b
    45dc:	690b6832 	.word	0x690b6832
    45e0:	e00d6113 	.word	0xe00d6113
    45e4:	4a3e682b 	.word	0x4a3e682b
    45e8:	4b3e401a 	.word	0x4b3e401a
    45ec:	d001429a 	.word	0xd001429a
    45f0:	e00023ff 	.word	0xe00023ff
    45f4:	720b2310 	.word	0x720b2310
    45f8:	23006832 	.word	0x23006832
    45fc:	60d36113 	.word	0x60d36113
    4600:	23006832 	.word	0x23006832
    4604:	68337513 	.word	0x68337513
    4608:	619a9a05 	.word	0x619a9a05
    460c:	68364a30 	.word	0x68364a30
    4610:	96056813 	.word	0x96056813
    4614:	361c3301 	.word	0x361c3301
    4618:	1c386013 	.word	0x1c386013
    461c:	fa98f030 	.word	0xfa98f030
    4620:	2d001c05 	.word	0x2d001c05
    4624:	1c38d1a8 	.word	0x1c38d1a8
    4628:	faa2f030 	.word	0xfaa2f030
    462c:	60352500 	.word	0x60352500
    4630:	68304e27 	.word	0x68304e27
    4634:	d03d2800 	.word	0xd03d2800
    4638:	f0300080 	.word	0xf0300080
    463c:	1c04fa8d 	.word	0x1c04fa8d
    4640:	d0372800 	.word	0xd0372800
    4644:	60354b21 	.word	0x60354b21
    4648:	1c356819 	.word	0x1c356819
    464c:	682be005 	.word	0x682be005
    4650:	3301009a 	.word	0x3301009a
    4654:	602b50a1 	.word	0x602b50a1
    4658:	290069c9 	.word	0x290069c9
    465c:	6831d1f7 	.word	0x6831d1f7
    4660:	4b211c20 	.word	0x4b211c20
    4664:	f0302204 	.word	0xf0302204
    4668:	1c2ffa87 	.word	0x1c2ffa87
    466c:	20001c21 	.word	0x20001c21
    4670:	680be008 	.word	0x680be008
    4674:	680a6018 	.word	0x680a6018
    4678:	3001684b 	.word	0x3001684b
    467c:	684a61d3 	.word	0x684a61d3
    4680:	6193c908 	.word	0x6193c908
    4684:	1e6b683d 	.word	0x1e6b683d
    4688:	d3f24298 	.word	0xd3f24298
    468c:	1aab2201 	.word	0x1aab2201
    4690:	6820009b 	.word	0x6820009b
    4694:	230058e1 	.word	0x230058e1
    4698:	61cb6183 	.word	0x61cb6183
    469c:	1c206833 	.word	0x1c206833
    46a0:	00921a9a 	.word	0x00921a9a
    46a4:	3b0158a2 	.word	0x3b0158a2
    46a8:	68236013 	.word	0x68236013
    46ac:	60134a07 	.word	0x60134a07
    46b0:	fa46f030 	.word	0xfa46f030
    46b4:	b0064b05 	.word	0xb0064b05
    46b8:	4b0c681a 	.word	0x4b0c681a
    46bc:	4b0c601a 	.word	0x4b0c601a
    46c0:	bcf0601a 	.word	0xbcf0601a
    46c4:	4700bc01 	.word	0x4700bc01
    46c8:	001a8a66 	.word	0x001a8a66
    46cc:	001af8ec 	.word	0x001af8ec
    46d0:	001afab4 	.word	0x001afab4
    46d4:	001afa44 	.word	0x001afa44
    46d8:	001a7a77 	.word	0x001a7a77
    46dc:	001af8f0 	.word	0x001af8f0
    46e0:	00ffffff 	.word	0x00ffffff
    46e4:	00002e2e 	.word	0x00002e2e
    46e8:	0016e834 	.word	0x0016e834
    46ec:	001afab0 	.word	0x001afab0
    46f0:	001afaac 	.word	0x001afaac
    46f4:	4b0cb530 	.word	0x4b0cb530
    46f8:	e009681d 	.word	0xe009681d
    46fc:	28006868 	.word	0x28006868
    4700:	f030d001 	.word	0xf030d001
    4704:	1c28fa1d 	.word	0x1c28fa1d
    4708:	f03069ec 	.word	0xf03069ec
    470c:	1c25fa19 	.word	0x1c25fa19
    4710:	d1f32d00 	.word	0xd1f32d00
    4714:	601d4b04 	.word	0x601d4b04
    4718:	601d4b04 	.word	0x601d4b04
    471c:	701d4b04 	.word	0x701d4b04
    4720:	bc01bc30 	.word	0xbc01bc30
    4724:	46c04700 	.word	0x46c04700
    4728:	001af908 	.word	0x001af908
    472c:	001afabc 	.word	0x001afabc
    4730:	001afac0 	.word	0x001afac0
    4734:	1c04b510 	.word	0x1c04b510
    4738:	fed4f7ff 	.word	0xfed4f7ff
    473c:	ffdaf7ff 	.word	0xffdaf7ff
    4740:	681b4b0e 	.word	0x681b4b0e
    4744:	d0052b00 	.word	0xd0052b00
    4748:	68184b0d 	.word	0x68184b0d
    474c:	fdc0f001 	.word	0xfdc0f001
    4750:	f8b6f7fe 	.word	0xf8b6f7fe
    4754:	681b4b0b 	.word	0x681b4b0b
    4758:	d0022b00 	.word	0xd0022b00
    475c:	f0011c20 	.word	0xf0011c20
    4760:	4b06fbc3 	.word	0x4b06fbc3
    4764:	2b00681b 	.word	0x2b00681b
    4768:	4b05d105 	.word	0x4b05d105
    476c:	f0016818 	.word	0xf0016818
    4770:	f7fefdaf 	.word	0xf7fefdaf
    4774:	bc10f8a5 	.word	0xbc10f8a5
    4778:	4700bc01 	.word	0x4700bc01
    477c:	001afb14 	.word	0x001afb14
    4780:	001afaa8 	.word	0x001afaa8
    4784:	001afb0c 	.word	0x001afb0c
    4788:	f030b570 	.word	0xf030b570
    478c:	1c04f9c5 	.word	0x1c04f9c5
    4790:	f9c6f030 	.word	0xf9c6f030
    4794:	28084320 	.word	0x28084320
    4798:	2808d04c 	.word	0x2808d04c
    479c:	2803dc0f 	.word	0x2803dc0f
    47a0:	2803d057 	.word	0x2803d057
    47a4:	2801dc05 	.word	0x2801dc05
    47a8:	2802d01a 	.word	0x2802d01a
    47ac:	e106d000 	.word	0xe106d000
    47b0:	2804e024 	.word	0x2804e024
    47b4:	2805d045 	.word	0x2805d045
    47b8:	e100d000 	.word	0xe100d000
    47bc:	280de0a3 	.word	0x280de0a3
    47c0:	e0dbd100 	.word	0xe0dbd100
    47c4:	dc05280d 	.word	0xdc05280d
    47c8:	d0272809 	.word	0xd0272809
    47cc:	d000280a 	.word	0xd000280a
    47d0:	e0f1e0f5 	.word	0xe0f1e0f5
    47d4:	d0032864 	.word	0xd0032864
    47d8:	d0002865 	.word	0xd0002865
    47dc:	e00de0ef 	.word	0xe00de0ef
    47e0:	681b4b78 	.word	0x681b4b78
    47e4:	d1002b00 	.word	0xd1002b00
    47e8:	2006e0e9 	.word	0x2006e0e9
    47ec:	f990f030 	.word	0xf990f030
    47f0:	d0012800 	.word	0xd0012800
    47f4:	e0172004 	.word	0xe0172004
    47f8:	e0152001 	.word	0xe0152001
    47fc:	681b4b71 	.word	0x681b4b71
    4800:	d1002b00 	.word	0xd1002b00
    4804:	2006e0db 	.word	0x2006e0db
    4808:	f982f030 	.word	0xf982f030
    480c:	d0012800 	.word	0xd0012800
    4810:	e0002004 	.word	0xe0002004
    4814:	f7ff2001 	.word	0xf7ff2001
    4818:	e007fddb 	.word	0xe007fddb
    481c:	681b4b69 	.word	0x681b4b69
    4820:	d1002b00 	.word	0xd1002b00
    4824:	2009e0cb 	.word	0x2009e0cb
    4828:	fd9ef7ff 	.word	0xfd9ef7ff
    482c:	23014a66 	.word	0x23014a66
    4830:	e0c46013 	.word	0xe0c46013
    4834:	681b4b63 	.word	0x681b4b63
    4838:	d1002b00 	.word	0xd1002b00
    483c:	2009e0bf 	.word	0x2009e0bf
    4840:	4b60e7e9 	.word	0x4b60e7e9
    4844:	2b00681b 	.word	0x2b00681b
    4848:	e0b8d100 	.word	0xe0b8d100
    484c:	fdfaf7ff 	.word	0xfdfaf7ff
    4850:	4b5ce7e0 	.word	0x4b5ce7e0
    4854:	2b00681b 	.word	0x2b00681b
    4858:	e0b0d100 	.word	0xe0b0d100
    485c:	2bff7a1b 	.word	0x2bff7a1b
    4860:	e0acd100 	.word	0xe0acd100
    4864:	fe12f7ff 	.word	0xfe12f7ff
    4868:	d1012800 	.word	0xd1012800
    486c:	e0122513 	.word	0xe0122513
    4870:	fe0cf7ff 	.word	0xfe0cf7ff
    4874:	d9012801 	.word	0xd9012801
    4878:	e000257b 	.word	0xe000257b
    487c:	4b51251b 	.word	0x4b51251b
    4880:	7d1b681b 	.word	0x7d1b681b
    4884:	d1062b00 	.word	0xd1062b00
    4888:	fdecf7ff 	.word	0xfdecf7ff
    488c:	d0022800 	.word	0xd0022800
    4890:	005b2380 	.word	0x005b2380
    4894:	4b4d431d 	.word	0x4b4d431d
    4898:	3b01781b 	.word	0x3b01781b
    489c:	0e1b061b 	.word	0x0e1b061b
    48a0:	d8012b01 	.word	0xd8012b01
    48a4:	431d2304 	.word	0x431d2304
    48a8:	68194b46 	.word	0x68194b46
    48ac:	06da7a0b 	.word	0x06da7a0b
    48b0:	684ad50c 	.word	0x684ad50c
    48b4:	2b2e7813 	.word	0x2b2e7813
    48b8:	7853d108 	.word	0x7853d108
    48bc:	d1052b2e 	.word	0xd1052b2e
    48c0:	2b007893 	.word	0x2b007893
    48c4:	78d3d102 	.word	0x78d3d102
    48c8:	d1012b43 	.word	0xd1012b43
    48cc:	431d2380 	.word	0x431d2380
    48d0:	f03068cc 	.word	0xf03068cc
    48d4:	4284f955 	.word	0x4284f955
    48d8:	2380d102 	.word	0x2380d102
    48dc:	431d009b 	.word	0x431d009b
    48e0:	fdd4f7ff 	.word	0xfdd4f7ff
    48e4:	d8062801 	.word	0xd8062801
    48e8:	681b4b36 	.word	0x681b4b36
    48ec:	f03068dc 	.word	0xf03068dc
    48f0:	4284f947 	.word	0x4284f947
    48f4:	2380d902 	.word	0x2380d902
    48f8:	431d00db 	.word	0x431d00db
    48fc:	1c284934 	.word	0x1c284934
    4900:	fcbcf009 	.word	0xfcbcf009
    4904:	4b2fe05b 	.word	0x4b2fe05b
    4908:	2a00681a 	.word	0x2a00681a
    490c:	7a11d057 	.word	0x7a11d057
    4910:	d05429ff 	.word	0xd05429ff
    4914:	681b4b2c 	.word	0x681b4b2c
    4918:	d1502b00 	.word	0xd1502b00
    491c:	68554e2d 	.word	0x68554e2d
    4920:	d52206cb 	.word	0xd52206cb
    4924:	f0301c30 	.word	0xf0301c30
    4928:	782bf8ff 	.word	0x782bf8ff
    492c:	1c021c01 	.word	0x1c021c01
    4930:	d1102b2e 	.word	0xd1102b2e
    4934:	2b2e786b 	.word	0x2b2e786b
    4938:	78abd10d 	.word	0x78abd10d
    493c:	d10a2b00 	.word	0xd10a2b00
    4940:	18f01e43 	.word	0x18f01e43
    4944:	39017803 	.word	0x39017803
    4948:	2b2f3801 	.word	0x2b2f3801
    494c:	4a21d1fa 	.word	0x4a21d1fa
    4950:	54532300 	.word	0x54532300
    4954:	481fe005 	.word	0x481fe005
    4958:	1880491f 	.word	0x1880491f
    495c:	f0301c2a 	.word	0xf0301c2a
    4960:	481cf8a3 	.word	0x481cf8a3
    4964:	fde2f7ff 	.word	0xfde2f7ff
    4968:	4c1ce760 	.word	0x4c1ce760
    496c:	1c20491c 	.word	0x1c20491c
    4970:	1c2b1c32 	.word	0x1c2b1c32
    4974:	f898f030 	.word	0xf898f030
    4978:	e01e1c20 	.word	0xe01e1c20
    497c:	681b4b11 	.word	0x681b4b11
    4980:	d01c2b00 	.word	0xd01c2b00
    4984:	2aff7a1a 	.word	0x2aff7a1a
    4988:	06d1d019 	.word	0x06d1d019
    498c:	685ad50d 	.word	0x685ad50d
    4990:	2b2e7813 	.word	0x2b2e7813
    4994:	7853d105 	.word	0x7853d105
    4998:	d1022b2e 	.word	0xd1022b2e
    499c:	2b007893 	.word	0x2b007893
    49a0:	4b10d00d 	.word	0x4b10d00d
    49a4:	21ac20ab 	.word	0x21ac20ab
    49a8:	4b0fe002 	.word	0x4b0fe002
    49ac:	21ae20ad 	.word	0x21ae20ad
    49b0:	f7ff4a0e 	.word	0xf7ff4a0e
    49b4:	e002fc5b 	.word	0xe002fc5b
    49b8:	f7ff2000 	.word	0xf7ff2000
    49bc:	bc70febb 	.word	0xbc70febb
    49c0:	4700bc01 	.word	0x4700bc01
    49c4:	001afab0 	.word	0x001afab0
    49c8:	001afb04 	.word	0x001afb04
    49cc:	001afac0 	.word	0x001afac0
    49d0:	00172211 	.word	0x00172211
    49d4:	001af918 	.word	0x001af918
    49d8:	001a834e 	.word	0x001a834e
    49dc:	001af9e0 	.word	0x001af9e0
    49e0:	001a7a77 	.word	0x001a7a77
    49e4:	001717a5 	.word	0x001717a5
    49e8:	0017174d 	.word	0x0017174d
    49ec:	00001106 	.word	0x00001106
    49f0:	2802b530 	.word	0x2802b530
    49f4:	2001d117 	.word	0x2001d117
    49f8:	f83af030 	.word	0xf83af030
    49fc:	4c0e4b0d 	.word	0x4c0e4b0d
    4a00:	681b4d0e 	.word	0x681b4d0e
    4a04:	685b490e 	.word	0x685b490e
    4a08:	1c201c2a 	.word	0x1c201c2a
    4a0c:	f84cf030 	.word	0xf84cf030
    4a10:	f0301c20 	.word	0xf0301c20
    4a14:	2000f8b9 	.word	0x2000f8b9
    4a18:	f82af030 	.word	0xf82af030
    4a1c:	70232300 	.word	0x70232300
    4a20:	f7ff1c28 	.word	0xf7ff1c28
    4a24:	4a07fd83 	.word	0x4a07fd83
    4a28:	60132302 	.word	0x60132302
    4a2c:	bc01bc30 	.word	0xbc01bc30
    4a30:	46c04700 	.word	0x46c04700
    4a34:	001afab0 	.word	0x001afab0
    4a38:	001af9e0 	.word	0x001af9e0
    4a3c:	001af918 	.word	0x001af918
    4a40:	001a7a77 	.word	0x001a7a77
    4a44:	001afb04 	.word	0x001afb04
    4a48:	b081b5f0 	.word	0xb081b5f0
    4a4c:	d1562802 	.word	0xd1562802
    4a50:	1c284d2e 	.word	0x1c284d2e
    4a54:	f868f030 	.word	0xf868f030
    4a58:	492e4b2d 	.word	0x492e4b2d
    4a5c:	1828681b 	.word	0x1828681b
    4a60:	f030685a 	.word	0xf030685a
    4a64:	1c28f821 	.word	0x1c28f821
    4a68:	f86ef030 	.word	0xf86ef030
    4a6c:	28001c06 	.word	0x28001c06
    4a70:	f030d029 	.word	0xf030d029
    4a74:	4b28f86d 	.word	0x4b28f86d
    4a78:	4f281c04 	.word	0x4f281c04
    4a7c:	e01d9300 	.word	0xe01d9300
    4a80:	2be57823 	.word	0x2be57823
    4a84:	2b2ed016 	.word	0x2b2ed016
    4a88:	7863d105 	.word	0x7863d105
    4a8c:	d1002b2e 	.word	0xd1002b2e
    4a90:	2b0078a3 	.word	0x2b0078a3
    4a94:	2001d00e 	.word	0x2001d00e
    4a98:	ffeaf02f 	.word	0xffeaf02f
    4a9c:	1c2a9900 	.word	0x1c2a9900
    4aa0:	1c381c23 	.word	0x1c381c23
    4aa4:	f800f030 	.word	0xf800f030
    4aa8:	f0301c38 	.word	0xf0301c38
    4aac:	2000f86d 	.word	0x2000f86d
    4ab0:	ffdef02f 	.word	0xffdef02f
    4ab4:	f0301c30 	.word	0xf0301c30
    4ab8:	1c04f84b 	.word	0x1c04f84b
    4abc:	d1df2c00 	.word	0xd1df2c00
    4ac0:	f0301c30 	.word	0xf0301c30
    4ac4:	2001f855 	.word	0x2001f855
    4ac8:	ffd2f02f 	.word	0xffd2f02f
    4acc:	1c204c0f 	.word	0x1c204c0f
    4ad0:	f85af030 	.word	0xf85af030
    4ad4:	f02f2000 	.word	0xf02f2000
    4ad8:	1c20ffcb 	.word	0x1c20ffcb
    4adc:	f824f030 	.word	0xf824f030
    4ae0:	1c011e43 	.word	0x1c011e43
    4ae4:	782318e4 	.word	0x782318e4
    4ae8:	3c013901 	.word	0x3c013901
    4aec:	d1fa2b2f 	.word	0xd1fa2b2f
    4af0:	4b0a4806 	.word	0x4b0a4806
    4af4:	54422200 	.word	0x54422200
    4af8:	f7ff701a 	.word	0xf7ff701a
    4afc:	4a08fd17 	.word	0x4a08fd17
    4b00:	b0012302 	.word	0xb0012302
    4b04:	bcf06013 	.word	0xbcf06013
    4b08:	4700bc01 	.word	0x4700bc01
    4b0c:	001af918 	.word	0x001af918
    4b10:	001afab0 	.word	0x001afab0
    4b14:	001a834e 	.word	0x001a834e
    4b18:	001a7a77 	.word	0x001a7a77
    4b1c:	001af9e0 	.word	0x001af9e0
    4b20:	001afb04 	.word	0x001afb04
    4b24:	b0ceb5f0 	.word	0xb0ceb5f0
    4b28:	d0002802 	.word	0xd0002802
    4b2c:	4ba5e142 	.word	0x4ba5e142
    4b30:	685d681b 	.word	0x685d681b
    4b34:	2b44782b 	.word	0x2b44782b
    4b38:	e097d000 	.word	0xe097d000
    4b3c:	2b43786b 	.word	0x2b43786b
    4b40:	e093d000 	.word	0xe093d000
    4b44:	2b4978ab 	.word	0x2b4978ab
    4b48:	e08fd000 	.word	0xe08fd000
    4b4c:	2b4d78eb 	.word	0x2b4d78eb
    4b50:	e08bd000 	.word	0xe08bd000
    4b54:	1c204c9c 	.word	0x1c204c9c
    4b58:	ffe6f02f 	.word	0xffe6f02f
    4b5c:	1c2a499b 	.word	0x1c2a499b
    4b60:	f02f1820 	.word	0xf02f1820
    4b64:	1c20ffa1 	.word	0x1c20ffa1
    4b68:	ffeef02f 	.word	0xffeef02f
    4b6c:	e0689002 	.word	0xe0689002
    4b70:	2b2e782b 	.word	0x2b2e782b
    4b74:	786bd065 	.word	0x786bd065
    4b78:	d0622b2e 	.word	0xd0622b2e
    4b7c:	4a924c94 	.word	0x4a924c94
    4b80:	1c2b1c21 	.word	0x1c2b1c21
    4b84:	f02fa849 	.word	0xf02fa849
    4b88:	a849ff8f 	.word	0xa849ff8f
    4b8c:	ffdcf02f 	.word	0xffdcf02f
    4b90:	e04d9003 	.word	0xe04d9003
    4b94:	2b43782b 	.word	0x2b43782b
    4b98:	7a6bd002 	.word	0x7a6bd002
    4b9c:	d1472b43 	.word	0xd1472b43
    4ba0:	26004c89 	.word	0x26004c89
    4ba4:	f02f1c20 	.word	0xf02f1c20
    4ba8:	1c07ffcf 	.word	0x1c07ffcf
    4bac:	7823e028 	.word	0x7823e028
    4bb0:	d0252b2e 	.word	0xd0252b2e
    4bb4:	2b2e7863 	.word	0x2b2e7863
    4bb8:	1c23d022 	.word	0x1c23d022
    4bbc:	4a824984 	.word	0x4a824984
    4bc0:	f02fa844 	.word	0xf02fa844
    4bc4:	a844ff71 	.word	0xa844ff71
    4bc8:	ffbef02f 	.word	0xffbef02f
    4bcc:	e00f1c04 	.word	0xe00f1c04
    4bd0:	6843686a 	.word	0x6843686a
    4bd4:	d10b429a 	.word	0xd10b429a
    4bd8:	2b4a7a43 	.word	0x2b4a7a43
    4bdc:	7800d108 	.word	0x7800d108
    4be0:	d0052843 	.word	0xd0052843
    4be4:	d00328e5 	.word	0xd00328e5
    4be8:	f02f2001 	.word	0xf02f2001
    4bec:	2601ff41 	.word	0x2601ff41
    4bf0:	f02f1c20 	.word	0xf02f1c20
    4bf4:	2800ffad 	.word	0x2800ffad
    4bf8:	1c20d1ea 	.word	0x1c20d1ea
    4bfc:	ffb8f02f 	.word	0xffb8f02f
    4c00:	f02f1c38 	.word	0xf02f1c38
    4c04:	1c04ffa5 	.word	0x1c04ffa5
    4c08:	d1d02800 	.word	0xd1d02800
    4c0c:	f02f1c38 	.word	0xf02f1c38
    4c10:	2e00ffaf 	.word	0x2e00ffaf
    4c14:	ac04d109 	.word	0xac04d109
    4c18:	1c20496d 	.word	0x1c20496d
    4c1c:	1c2baa49 	.word	0x1c2baa49
    4c20:	ff42f02f 	.word	0xff42f02f
    4c24:	f02f1c20 	.word	0xf02f1c20
    4c28:	2000ffaf 	.word	0x2000ffaf
    4c2c:	ff20f02f 	.word	0xff20f02f
    4c30:	f02f9803 	.word	0xf02f9803
    4c34:	1c05ff8d 	.word	0x1c05ff8d
    4c38:	d1ab2800 	.word	0xd1ab2800
    4c3c:	f02f9803 	.word	0xf02f9803
    4c40:	9802ff97 	.word	0x9802ff97
    4c44:	ff84f02f 	.word	0xff84f02f
    4c48:	28001c05 	.word	0x28001c05
    4c4c:	9802d190 	.word	0x9802d190
    4c50:	ff8ef02f 	.word	0xff8ef02f
    4c54:	1c204c5c 	.word	0x1c204c5c
    4c58:	ff66f02f 	.word	0xff66f02f
    4c5c:	18e41e43 	.word	0x18e41e43
    4c60:	38017823 	.word	0x38017823
    4c64:	2b2f3c01 	.word	0x2b2f3c01
    4c68:	e058d1fa 	.word	0xe058d1fa
    4c6c:	2b4378eb 	.word	0x2b4378eb
    4c70:	4c55d159 	.word	0x4c55d159
    4c74:	f02f1c20 	.word	0xf02f1c20
    4c78:	4954ff57 	.word	0x4954ff57
    4c7c:	18201c2a 	.word	0x18201c2a
    4c80:	ff12f02f 	.word	0xff12f02f
    4c84:	f02f1c20 	.word	0xf02f1c20
    4c88:	4b51ff5f 	.word	0x4b51ff5f
    4c8c:	93011c07 	.word	0x93011c07
    4c90:	782be031 	.word	0x782be031
    4c94:	d0022b43 	.word	0xd0022b43
    4c98:	2b437a6b 	.word	0x2b437a6b
    4c9c:	484ad12b 	.word	0x484ad12b
    4ca0:	ff52f02f 	.word	0xff52f02f
    4ca4:	1c062400 	.word	0x1c062400
    4ca8:	686ae00f 	.word	0x686ae00f
    4cac:	429a6843 	.word	0x429a6843
    4cb0:	7a43d10b 	.word	0x7a43d10b
    4cb4:	d1082b4a 	.word	0xd1082b4a
    4cb8:	28437800 	.word	0x28437800
    4cbc:	28e5d005 	.word	0x28e5d005
    4cc0:	2001d003 	.word	0x2001d003
    4cc4:	fed4f02f 	.word	0xfed4f02f
    4cc8:	1c302401 	.word	0x1c302401
    4ccc:	ff40f02f 	.word	0xff40f02f
    4cd0:	d1ea2800 	.word	0xd1ea2800
    4cd4:	f02f1c30 	.word	0xf02f1c30
    4cd8:	2c00ff4b 	.word	0x2c00ff4b
    4cdc:	4a3ad108 	.word	0x4a3ad108
    4ce0:	9901a804 	.word	0x9901a804
    4ce4:	f02f1c2b 	.word	0xf02f1c2b
    4ce8:	a804fedf 	.word	0xa804fedf
    4cec:	ff4cf02f 	.word	0xff4cf02f
    4cf0:	f02f2000 	.word	0xf02f2000
    4cf4:	1c38febd 	.word	0x1c38febd
    4cf8:	ff2af02f 	.word	0xff2af02f
    4cfc:	28001c05 	.word	0x28001c05
    4d00:	1c38d1c7 	.word	0x1c38d1c7
    4d04:	ff34f02f 	.word	0xff34f02f
    4d08:	1c204c2f 	.word	0x1c204c2f
    4d0c:	ff0cf02f 	.word	0xff0cf02f
    4d10:	18e41e43 	.word	0x18e41e43
    4d14:	38017823 	.word	0x38017823
    4d18:	2b2f3c01 	.word	0x2b2f3c01
    4d1c:	4a2ad1fa 	.word	0x4a2ad1fa
    4d20:	54132300 	.word	0x54132300
    4d24:	4b2be043 	.word	0x4b2be043
    4d28:	681c4f2b 	.word	0x681c4f2b
    4d2c:	93004b28 	.word	0x93004b28
    4d30:	6862e03b 	.word	0x6862e03b
    4d34:	2b437813 	.word	0x2b437813
    4d38:	7a53d002 	.word	0x7a53d002
    4d3c:	d1332b43 	.word	0xd1332b43
    4d40:	2b007d23 	.word	0x2b007d23
    4d44:	4b23d130 	.word	0x4b23d130
    4d48:	681d2600 	.word	0x681d2600
    4d4c:	6860e01c 	.word	0x6860e01c
    4d50:	79026869 	.word	0x79026869
    4d54:	429a790b 	.word	0x429a790b
    4d58:	7942d115 	.word	0x7942d115
    4d5c:	429a794b 	.word	0x429a794b
    4d60:	7982d111 	.word	0x7982d111
    4d64:	429a798b 	.word	0x429a798b
    4d68:	79c2d10d 	.word	0x79c2d10d
    4d6c:	429a79cb 	.word	0x429a79cb
    4d70:	7a4bd109 	.word	0x7a4bd109
    4d74:	d1062b4a 	.word	0xd1062b4a
    4d78:	2b43780b 	.word	0x2b43780b
    4d7c:	2001d003 	.word	0x2001d003
    4d80:	fe76f02f 	.word	0xfe76f02f
    4d84:	69ed2601 	.word	0x69ed2601
    4d88:	d1e02d00 	.word	0xd1e02d00
    4d8c:	d1082e00 	.word	0xd1082e00
    4d90:	68634a0d 	.word	0x68634a0d
    4d94:	99001c38 	.word	0x99001c38
    4d98:	fe86f02f 	.word	0xfe86f02f
    4d9c:	f02f1c38 	.word	0xf02f1c38
    4da0:	2000fef3 	.word	0x2000fef3
    4da4:	fe64f02f 	.word	0xfe64f02f
    4da8:	2c0069e4 	.word	0x2c0069e4
    4dac:	4806d1c1 	.word	0x4806d1c1
    4db0:	fbbcf7ff 	.word	0xfbbcf7ff
    4db4:	23024a09 	.word	0x23024a09
    4db8:	6013b04e 	.word	0x6013b04e
    4dbc:	bc01bcf0 	.word	0xbc01bcf0
    4dc0:	46c04700 	.word	0x46c04700
    4dc4:	001afab0 	.word	0x001afab0
    4dc8:	001af918 	.word	0x001af918
    4dcc:	001a834e 	.word	0x001a834e
    4dd0:	001a7a77 	.word	0x001a7a77
    4dd4:	001af8ec 	.word	0x001af8ec
    4dd8:	001af9e0 	.word	0x001af9e0
    4ddc:	001afb04 	.word	0x001afb04
    4de0:	4b25b5f0 	.word	0x4b25b5f0
    4de4:	681b20cb 	.word	0x681b20cb
    4de8:	0040b081 	.word	0x0040b081
    4dec:	f020685d 	.word	0xf020685d
    4df0:	4c22f879 	.word	0x4c22f879
    4df4:	1c2a1c03 	.word	0x1c2a1c03
    4df8:	1c204921 	.word	0x1c204921
    4dfc:	fe54f02f 	.word	0xfe54f02f
    4e00:	4a214b20 	.word	0x4a214b20
    4e04:	1827681d 	.word	0x1827681d
    4e08:	92002600 	.word	0x92002600
    4e0c:	7d2be01c 	.word	0x7d2be01c
    4e10:	d0182b00 	.word	0xd0182b00
    4e14:	2bff7a2b 	.word	0x2bff7a2b
    4e18:	2210d015 	.word	0x2210d015
    4e1c:	d1124213 	.word	0xd1124213
    4e20:	f02f68ec 	.word	0xf02f68ec
    4e24:	4284fead 	.word	0x4284fead
    4e28:	2e05d10d 	.word	0x2e05d10d
    4e2c:	686adc0a 	.word	0x686adc0a
    4e30:	99001c38 	.word	0x99001c38
    4e34:	fe38f02f 	.word	0xfe38f02f
    4e38:	d0032e05 	.word	0xd0032e05
    4e3c:	f02f1c38 	.word	0xf02f1c38
    4e40:	183ffe73 	.word	0x183ffe73
    4e44:	69ed3601 	.word	0x69ed3601
    4e48:	d1e02d00 	.word	0xd1e02d00
    4e4c:	dd072e06 	.word	0xdd072e06
    4e50:	f020480e 	.word	0xf020480e
    4e54:	1f72f847 	.word	0x1f72f847
    4e58:	1c381c01 	.word	0x1c381c01
    4e5c:	fe24f02f 	.word	0xfe24f02f
    4e60:	490620cc 	.word	0x490620cc
    4e64:	00404b0a 	.word	0x00404b0a
    4e68:	f7ff4a0a 	.word	0xf7ff4a0a
    4e6c:	b001f9ff 	.word	0xb001f9ff
    4e70:	bc01bcf0 	.word	0xbc01bcf0
    4e74:	46c04700 	.word	0x46c04700
    4e78:	001afab0 	.word	0x001afab0
    4e7c:	001afa44 	.word	0x001afa44
    4e80:	001a7a7d 	.word	0x001a7a7d
    4e84:	001af8ec 	.word	0x001af8ec
    4e88:	001a7a80 	.word	0x001a7a80
    4e8c:	00000197 	.word	0x00000197
    4e90:	00171d79 	.word	0x00171d79
    4e94:	00001106 	.word	0x00001106
    4e98:	b081b5f0 	.word	0xb081b5f0
    4e9c:	fc2af7ff 	.word	0xfc2af7ff
    4ea0:	4a414b40 	.word	0x4a414b40
    4ea4:	4d41681e 	.word	0x4d41681e
    4ea8:	92002700 	.word	0x92002700
    4eac:	7d33e031 	.word	0x7d33e031
    4eb0:	d02d2b00 	.word	0xd02d2b00
    4eb4:	f02f2020 	.word	0xf02f2020
    4eb8:	6028fe4f 	.word	0x6028fe4f
    4ebc:	d0272800 	.word	0xd0272800
    4ec0:	60036833 	.word	0x60036833
    4ec4:	f02f6870 	.word	0xf02f6870
    4ec8:	3001fe2f 	.word	0x3001fe2f
    4ecc:	f02f682c 	.word	0xf02f682c
    4ed0:	6060fe43 	.word	0x6060fe43
    4ed4:	6858682b 	.word	0x6858682b
    4ed8:	d0022800 	.word	0xd0022800
    4edc:	f02f6871 	.word	0xf02f6871
    4ee0:	682afe3f 	.word	0x682afe3f
    4ee4:	72137a33 	.word	0x72137a33
    4ee8:	68f3682a 	.word	0x68f3682a
    4eec:	682a60d3 	.word	0x682a60d3
    4ef0:	61136933 	.word	0x61136933
    4ef4:	7d33682a 	.word	0x7d33682a
    4ef8:	682b7513 	.word	0x682b7513
    4efc:	682f619f 	.word	0x682f619f
    4f00:	61fb2300 	.word	0x61fb2300
    4f04:	1c3d9a00 	.word	0x1c3d9a00
    4f08:	351c6813 	.word	0x351c6813
    4f0c:	60133301 	.word	0x60133301
    4f10:	2e0069f6 	.word	0x2e0069f6
    4f14:	4b24d1cb 	.word	0x4b24d1cb
    4f18:	2b00681b 	.word	0x2b00681b
    4f1c:	4e24d13a 	.word	0x4e24d13a
    4f20:	2b006833 	.word	0x2b006833
    4f24:	7a1bd036 	.word	0x7a1bd036
    4f28:	d0332bff 	.word	0xd0332bff
    4f2c:	d43106da 	.word	0xd43106da
    4f30:	f02f2020 	.word	0xf02f2020
    4f34:	6028fe11 	.word	0x6028fe11
    4f38:	d02b2800 	.word	0xd02b2800
    4f3c:	68136832 	.word	0x68136832
    4f40:	68506003 	.word	0x68506003
    4f44:	fdf0f02f 	.word	0xfdf0f02f
    4f48:	682c3001 	.word	0x682c3001
    4f4c:	fe04f02f 	.word	0xfe04f02f
    4f50:	682b6060 	.word	0x682b6060
    4f54:	28006858 	.word	0x28006858
    4f58:	6833d003 	.word	0x6833d003
    4f5c:	f02f6859 	.word	0xf02f6859
    4f60:	4a13fdff 	.word	0x4a13fdff
    4f64:	68136829 	.word	0x68136829
    4f68:	720b7a1b 	.word	0x720b7a1b
    4f6c:	68296813 	.word	0x68296813
    4f70:	60cb68db 	.word	0x60cb68db
    4f74:	68296813 	.word	0x68296813
    4f78:	610b691b 	.word	0x610b691b
    4f7c:	2301682a 	.word	0x2301682a
    4f80:	682b7513 	.word	0x682b7513
    4f84:	682a619f 	.word	0x682a619f
    4f88:	61d32300 	.word	0x61d32300
    4f8c:	68134a06 	.word	0x68134a06
    4f90:	60133301 	.word	0x60133301
    4f94:	48084907 	.word	0x48084907
    4f98:	fde2f02f 	.word	0xfde2f02f
    4f9c:	bcf0b001 	.word	0xbcf0b001
    4fa0:	4700bc01 	.word	0x4700bc01
    4fa4:	001af8ec 	.word	0x001af8ec
    4fa8:	001afabc 	.word	0x001afabc
    4fac:	001af908 	.word	0x001af908
    4fb0:	001afab0 	.word	0x001afab0
    4fb4:	001af918 	.word	0x001af918
    4fb8:	001af97c 	.word	0x001af97c
    4fbc:	6800b510 	.word	0x6800b510
    4fc0:	7a03680c 	.word	0x7a03680c
    4fc4:	7a212210 	.word	0x7a212210
    4fc8:	d0184213 	.word	0xd0184213
    4fcc:	d01d4211 	.word	0xd01d4211
    4fd0:	78036840 	.word	0x78036840
    4fd4:	d1052b2e 	.word	0xd1052b2e
    4fd8:	2b2e7843 	.word	0x2b2e7843
    4fdc:	7883d102 	.word	0x7883d102
    4fe0:	d0132b00 	.word	0xd0132b00
    4fe4:	780b6861 	.word	0x780b6861
    4fe8:	d1052b2e 	.word	0xd1052b2e
    4fec:	2b2e784b 	.word	0x2b2e784b
    4ff0:	788bd102 	.word	0x788bd102
    4ff4:	d00c2b00 	.word	0xd00c2b00
    4ff8:	fd6af02f 	.word	0xfd6af02f
    4ffc:	4211e00a 	.word	0x4211e00a
    5000:	6840d107 	.word	0x6840d107
    5004:	f02f6861 	.word	0xf02f6861
    5008:	e003fd63 	.word	0xe003fd63
    500c:	42402001 	.word	0x42402001
    5010:	2001e000 	.word	0x2001e000
    5014:	bc02bc10 	.word	0xbc02bc10
    5018:	46c04708 	.word	0x46c04708
    501c:	b084b5f0 	.word	0xb084b5f0
    5020:	d16d2802 	.word	0xd16d2802
    5024:	00402096 	.word	0x00402096
    5028:	fd96f02f 	.word	0xfd96f02f
    502c:	28001c06 	.word	0x28001c06
    5030:	1c02d066 	.word	0x1c02d066
    5034:	92023264 	.word	0x92023264
    5038:	1c034a33 	.word	0x1c034a33
    503c:	92014c33 	.word	0x92014c33
    5040:	930333c8 	.word	0x930333c8
    5044:	68234d32 	.word	0x68234d32
    5048:	685b1c29 	.word	0x685b1c29
    504c:	f02f9802 	.word	0xf02f9802
    5050:	4b30fd2b 	.word	0x4b30fd2b
    5054:	681f9d01 	.word	0x681f9d01
    5058:	7d3be047 	.word	0x7d3be047
    505c:	d0432b00 	.word	0xd0432b00
    5060:	2bff7a3b 	.word	0x2bff7a3b
    5064:	2210d040 	.word	0x2210d040
    5068:	d13d4213 	.word	0xd13d4213
    506c:	f02f68fc 	.word	0xf02f68fc
    5070:	4284fd87 	.word	0x4284fd87
    5074:	4a25d138 	.word	0x4a25d138
    5078:	6813687c 	.word	0x6813687c
    507c:	68591c20 	.word	0x68591c20
    5080:	fd26f02f 	.word	0xfd26f02f
    5084:	d02f2800 	.word	0xd02f2800
    5088:	49211c23 	.word	0x49211c23
    508c:	1c301c2a 	.word	0x1c301c2a
    5090:	fd0af02f 	.word	0xfd0af02f
    5094:	4a214c20 	.word	0x4a214c20
    5098:	49216ba3 	.word	0x49216ba3
    509c:	589b009b 	.word	0x589b009b
    50a0:	9803687a 	.word	0x9803687a
    50a4:	92003204 	.word	0x92003204
    50a8:	f02f1c2a 	.word	0xf02f1c2a
    50ac:	9803fcfd 	.word	0x9803fcfd
    50b0:	fd3af02f 	.word	0xfd3af02f
    50b4:	38049b03 	.word	0x38049b03
    50b8:	6be31818 	.word	0x6be31818
    50bc:	009b4a19 	.word	0x009b4a19
    50c0:	f02f5899 	.word	0xf02f5899
    50c4:	9803fd4d 	.word	0x9803fd4d
    50c8:	f02f1c31 	.word	0xf02f1c31
    50cc:	2800fd01 	.word	0x2800fd01
    50d0:	9803d00a 	.word	0x9803d00a
    50d4:	f02f9902 	.word	0xf02f9902
    50d8:	2800fcfb 	.word	0x2800fcfb
    50dc:	1c30d004 	.word	0x1c30d004
    50e0:	9a039902 	.word	0x9a039902
    50e4:	fd56f009 	.word	0xfd56f009
    50e8:	2f0069ff 	.word	0x2f0069ff
    50ec:	1c30d1b5 	.word	0x1c30d1b5
    50f0:	fd26f02f 	.word	0xfd26f02f
    50f4:	f7ff4804 	.word	0xf7ff4804
    50f8:	4a0bfa19 	.word	0x4a0bfa19
    50fc:	60132302 	.word	0x60132302
    5100:	bcf0b004 	.word	0xbcf0b004
    5104:	4700bc01 	.word	0x4700bc01
    5108:	001af918 	.word	0x001af918
    510c:	001afab0 	.word	0x001afab0
    5110:	001a7a77 	.word	0x001a7a77
    5114:	001af8ec 	.word	0x001af8ec
    5118:	001ba558 	.word	0x001ba558
    511c:	001ac4ec 	.word	0x001ac4ec
    5120:	001a7a84 	.word	0x001a7a84
    5124:	001ac4f8 	.word	0x001ac4f8
    5128:	001afb04 	.word	0x001afb04
    512c:	b083b5f0 	.word	0xb083b5f0
    5130:	d1582802 	.word	0xd1582802
    5134:	f9aaf7ff 	.word	0xf9aaf7ff
    5138:	4a2e4b2d 	.word	0x4a2e4b2d
    513c:	4b2e681d 	.word	0x4b2e681d
    5140:	27009002 	.word	0x27009002
    5144:	92014e2d 	.word	0x92014e2d
    5148:	e02c9300 	.word	0xe02c9300
    514c:	2b007d2b 	.word	0x2b007d2b
    5150:	7a2bd028 	.word	0x7a2bd028
    5154:	d0252bff 	.word	0xd0252bff
    5158:	42132210 	.word	0x42132210
    515c:	2001d122 	.word	0x2001d122
    5160:	fc86f02f 	.word	0xfc86f02f
    5164:	37019b02 	.word	0x37019b02
    5168:	d00d2b00 	.word	0xd00d2b00
    516c:	f01f20c7 	.word	0xf01f20c7
    5170:	2364feb9 	.word	0x2364feb9
    5174:	99021c04 	.word	0x99021c04
    5178:	43781c18 	.word	0x43781c18
    517c:	f9fef02e 	.word	0xf9fef02e
    5180:	1c201c01 	.word	0x1c201c01
    5184:	ff1cf008 	.word	0xff1cf008
    5188:	9901686b 	.word	0x9901686b
    518c:	1c309a00 	.word	0x1c309a00
    5190:	fc8af02f 	.word	0xfc8af02f
    5194:	f02f1c30 	.word	0xf02f1c30
    5198:	2000fcf7 	.word	0x2000fcf7
    519c:	fc68f02f 	.word	0xfc68f02f
    51a0:	70332300 	.word	0x70332300
    51a4:	2d0069ed 	.word	0x2d0069ed
    51a8:	2f00d1d0 	.word	0x2f00d1d0
    51ac:	4d14d115 	.word	0x4d14d115
    51b0:	2b00682b 	.word	0x2b00682b
    51b4:	2001d011 	.word	0x2001d011
    51b8:	fc5af02f 	.word	0xfc5af02f
    51bc:	682b4c0f 	.word	0x682b4c0f
    51c0:	4a0d490c 	.word	0x4a0d490c
    51c4:	1c20685b 	.word	0x1c20685b
    51c8:	fc6ef02f 	.word	0xfc6ef02f
    51cc:	f02f1c20 	.word	0xf02f1c20
    51d0:	2000fcdb 	.word	0x2000fcdb
    51d4:	fc4cf02f 	.word	0xfc4cf02f
    51d8:	48077027 	.word	0x48077027
    51dc:	f9a6f7ff 	.word	0xf9a6f7ff
    51e0:	23024a08 	.word	0x23024a08
    51e4:	b0036013 	.word	0xb0036013
    51e8:	bc01bcf0 	.word	0xbc01bcf0
    51ec:	46c04700 	.word	0x46c04700
    51f0:	001af8ec 	.word	0x001af8ec
    51f4:	001a7a77 	.word	0x001a7a77
    51f8:	001af918 	.word	0x001af918
    51fc:	001af9e0 	.word	0x001af9e0
    5200:	001afab0 	.word	0x001afab0
    5204:	001afb04 	.word	0x001afb04
    5208:	b083b5f0 	.word	0xb083b5f0
    520c:	d0002802 	.word	0xd0002802
    5210:	4855e0a6 	.word	0x4855e0a6
    5214:	f02f4955 	.word	0xf02f4955
    5218:	2800fc5b 	.word	0x2800fc5b
    521c:	e09cd100 	.word	0xe09cd100
    5220:	02402080 	.word	0x02402080
    5224:	fcb4f02f 	.word	0xfcb4f02f
    5228:	28009002 	.word	0x28009002
    522c:	e091d100 	.word	0xe091d100
    5230:	22004b4f 	.word	0x22004b4f
    5234:	4b4f681e 	.word	0x4b4f681e
    5238:	93009201 	.word	0x93009201
    523c:	7a33e07e 	.word	0x7a33e07e
    5240:	d07a2bff 	.word	0xd07a2bff
    5244:	42132210 	.word	0x42132210
    5248:	2001d177 	.word	0x2001d177
    524c:	fc10f02f 	.word	0xfc10f02f
    5250:	9a009b01 	.word	0x9a009b01
    5254:	93013301 	.word	0x93013301
    5258:	2b006813 	.word	0x2b006813
    525c:	20c7d00f 	.word	0x20c7d00f
    5260:	fe40f01f 	.word	0xfe40f01f
    5264:	23649a01 	.word	0x23649a01
    5268:	1c181c04 	.word	0x1c181c04
    526c:	9b004350 	.word	0x9b004350
    5270:	f02e6819 	.word	0xf02e6819
    5274:	1c01f983 	.word	0x1c01f983
    5278:	f0081c20 	.word	0xf0081c20
    527c:	4c3efea1 	.word	0x4c3efea1
    5280:	4a394d3e 	.word	0x4a394d3e
    5284:	1c296873 	.word	0x1c296873
    5288:	f02f1c20 	.word	0xf02f1c20
    528c:	1c20fc0d 	.word	0x1c20fc0d
    5290:	4a3b2100 	.word	0x4a3b2100
    5294:	fc0cf02f 	.word	0xfc0cf02f
    5298:	28001c07 	.word	0x28001c07
    529c:	4a33db47 	.word	0x4a33db47
    52a0:	68731c29 	.word	0x68731c29
    52a4:	f02f1c20 	.word	0xf02f1c20
    52a8:	1c20fbff 	.word	0x1c20fbff
    52ac:	4a342100 	.word	0x4a342100
    52b0:	fbfef02f 	.word	0xfbfef02f
    52b4:	da352800 	.word	0xda352800
    52b8:	49321c20 	.word	0x49321c20
    52bc:	f02f4a30 	.word	0xf02f4a30
    52c0:	1c04fbf7 	.word	0x1c04fbf7
    52c4:	db2f2800 	.word	0xdb2f2800
    52c8:	1c382280 	.word	0x1c382280
    52cc:	02529902 	.word	0x02529902
    52d0:	fc62f02f 	.word	0xfc62f02f
    52d4:	28001c05 	.word	0x28001c05
    52d8:	1c20dd06 	.word	0x1c20dd06
    52dc:	1c2a9902 	.word	0x1c2a9902
    52e0:	fbeaf02f 	.word	0xfbeaf02f
    52e4:	d0ef4285 	.word	0xd0ef4285
    52e8:	f02f1c20 	.word	0xf02f1c20
    52ec:	6933fbe9 	.word	0x6933fbe9
    52f0:	4c214925 	.word	0x4c214925
    52f4:	600b604b 	.word	0x600b604b
    52f8:	f02f1c20 	.word	0xf02f1c20
    52fc:	4b23fc51 	.word	0x4b23fc51
    5300:	2b01781b 	.word	0x2b01781b
    5304:	2d00d110 	.word	0x2d00d110
    5308:	1c38d10e 	.word	0x1c38d10e
    530c:	fbd8f02f 	.word	0xfbd8f02f
    5310:	4a15491a 	.word	0x4a15491a
    5314:	1c206873 	.word	0x1c206873
    5318:	fbc6f02f 	.word	0xfbc6f02f
    531c:	f02f1c20 	.word	0xf02f1c20
    5320:	e004fc33 	.word	0xe004fc33
    5324:	fbccf02f 	.word	0xfbccf02f
    5328:	f02f1c38 	.word	0xf02f1c38
    532c:	2000fbc9 	.word	0x2000fbc9
    5330:	fb9ef02f 	.word	0xfb9ef02f
    5334:	23004a10 	.word	0x23004a10
    5338:	69f67013 	.word	0x69f67013
    533c:	d0002e00 	.word	0xd0002e00
    5340:	9802e77d 	.word	0x9802e77d
    5344:	fc30f02f 	.word	0xfc30f02f
    5348:	781b4b10 	.word	0x781b4b10
    534c:	d1012b01 	.word	0xd1012b01
    5350:	f9d0f7ff 	.word	0xf9d0f7ff
    5354:	f7ff4805 	.word	0xf7ff4805
    5358:	4a0df8e9 	.word	0x4a0df8e9
    535c:	60132302 	.word	0x60132302
    5360:	bcf0b003 	.word	0xbcf0b003
    5364:	4700bc01 	.word	0x4700bc01
    5368:	001af97c 	.word	0x001af97c
    536c:	001af918 	.word	0x001af918
    5370:	001af908 	.word	0x001af908
    5374:	001afabc 	.word	0x001afabc
    5378:	001af9e0 	.word	0x001af9e0
    537c:	001a7a77 	.word	0x001a7a77
    5380:	000001ff 	.word	0x000001ff
    5384:	00000101 	.word	0x00000101
    5388:	001af90c 	.word	0x001af90c
    538c:	001afac0 	.word	0x001afac0
    5390:	001afb04 	.word	0x001afb04
    5394:	b081b5f0 	.word	0xb081b5f0
    5398:	f02f2001 	.word	0xf02f2001
    539c:	2064fb69 	.word	0x2064fb69
    53a0:	fb62f02f 	.word	0xfb62f02f
    53a4:	f02f2000 	.word	0xf02f2000
    53a8:	f7fffb63 	.word	0xf7fffb63
    53ac:	2800f85b 	.word	0x2800f85b
    53b0:	4b1fd02a 	.word	0x4b1fd02a
    53b4:	681c4a1f 	.word	0x681c4a1f
    53b8:	4d1f2600 	.word	0x4d1f2600
    53bc:	4f1f9200 	.word	0x4f1f9200
    53c0:	7d23e01f 	.word	0x7d23e01f
    53c4:	d01b2b00 	.word	0xd01b2b00
    53c8:	2bff7a23 	.word	0x2bff7a23
    53cc:	2210d018 	.word	0x2210d018
    53d0:	d1154213 	.word	0xd1154213
    53d4:	68631c3a 	.word	0x68631c3a
    53d8:	1c289900 	.word	0x1c289900
    53dc:	fb64f02f 	.word	0xfb64f02f
    53e0:	f840f7ff 	.word	0xf840f7ff
    53e4:	1c012364 	.word	0x1c012364
    53e8:	43701c18 	.word	0x43701c18
    53ec:	f8c6f02e 	.word	0xf8c6f02e
    53f0:	1c281c01 	.word	0x1c281c01
    53f4:	fde4f008 	.word	0xfde4f008
    53f8:	36011c28 	.word	0x36011c28
    53fc:	f802f00d 	.word	0xf802f00d
    5400:	2c0069e4 	.word	0x2c0069e4
    5404:	e00bd1dd 	.word	0xe00bd1dd
    5408:	4c0b4b0d 	.word	0x4c0b4b0d
    540c:	4909681b 	.word	0x4909681b
    5410:	685b4a0a 	.word	0x685b4a0a
    5414:	f02f1c20 	.word	0xf02f1c20
    5418:	1c20fb47 	.word	0x1c20fb47
    541c:	fff2f00c 	.word	0xfff2f00c
    5420:	f7ff4806 	.word	0xf7ff4806
    5424:	b001f883 	.word	0xb001f883
    5428:	bc01bcf0 	.word	0xbc01bcf0
    542c:	46c04700 	.word	0x46c04700
    5430:	001af8ec 	.word	0x001af8ec
    5434:	001a7a77 	.word	0x001a7a77
    5438:	001af9e0 	.word	0x001af9e0
    543c:	001af918 	.word	0x001af918
    5440:	001afab0 	.word	0x001afab0
    5444:	f7ffb5f0 	.word	0xf7ffb5f0
    5448:	2801f821 	.word	0x2801f821
    544c:	4b14d925 	.word	0x4b14d925
    5450:	f0097818 	.word	0xf0097818
    5454:	2800fb57 	.word	0x2800fb57
    5458:	4b12d01f 	.word	0x4b12d01f
    545c:	681c4d12 	.word	0x681c4d12
    5460:	4e134f12 	.word	0x4e134f12
    5464:	7d23e012 	.word	0x7d23e012
    5468:	d00e2b00 	.word	0xd00e2b00
    546c:	2bff7a23 	.word	0x2bff7a23
    5470:	2210d00b 	.word	0x2210d00b
    5474:	d1084213 	.word	0xd1084213
    5478:	1c286863 	.word	0x1c286863
    547c:	1c321c39 	.word	0x1c321c39
    5480:	fb12f02f 	.word	0xfb12f02f
    5484:	f0091c28 	.word	0xf0091c28
    5488:	69e4fa1b 	.word	0x69e4fa1b
    548c:	d1ea2c00 	.word	0xd1ea2c00
    5490:	f91cf009 	.word	0xf91cf009
    5494:	f7ff4806 	.word	0xf7ff4806
    5498:	bcf0f849 	.word	0xbcf0f849
    549c:	4700bc01 	.word	0x4700bc01
    54a0:	001afb10 	.word	0x001afb10
    54a4:	001af8ec 	.word	0x001af8ec
    54a8:	001af9e0 	.word	0x001af9e0
    54ac:	001a7a77 	.word	0x001a7a77
    54b0:	001af918 	.word	0x001af918
    54b4:	1c04b5f0 	.word	0x1c04b5f0
    54b8:	d1002820 	.word	0xd1002820
    54bc:	2820e0aa 	.word	0x2820e0aa
    54c0:	2804d80f 	.word	0x2804d80f
    54c4:	2804d02b 	.word	0x2804d02b
    54c8:	2801d805 	.word	0x2801d805
    54cc:	2802d022 	.word	0x2802d022
    54d0:	e0bdd000 	.word	0xe0bdd000
    54d4:	2808e01e 	.word	0x2808e01e
    54d8:	2810d044 	.word	0x2810d044
    54dc:	e0b7d000 	.word	0xe0b7d000
    54e0:	2380e092 	.word	0x2380e092
    54e4:	4298005b 	.word	0x4298005b
    54e8:	e0acd100 	.word	0xe0acd100
    54ec:	d8064298 	.word	0xd8064298
    54f0:	d1002840 	.word	0xd1002840
    54f4:	2880e08b 	.word	0x2880e08b
    54f8:	e0a9d000 	.word	0xe0a9d000
    54fc:	2380e041 	.word	0x2380e041
    5500:	4298009b 	.word	0x4298009b
    5504:	e08bd100 	.word	0xe08bd100
    5508:	00db2380 	.word	0x00db2380
    550c:	d0004298 	.word	0xd0004298
    5510:	e09be09e 	.word	0xe09be09e
    5514:	fcc0f7ff 	.word	0xfcc0f7ff
    5518:	701c4b50 	.word	0x701c4b50
    551c:	4b4fe098 	.word	0x4b4fe098
    5520:	781b4c4f 	.word	0x781b4c4f
    5524:	4e504d4f 	.word	0x4e504d4f
    5528:	2b014f50 	.word	0x2b014f50
    552c:	20c2d10a 	.word	0x20c2d10a
    5530:	fcd8f01f 	.word	0xfcd8f01f
    5534:	1c01682a 	.word	0x1c01682a
    5538:	1c201c33 	.word	0x1c201c33
    553c:	fab4f02f 	.word	0xfab4f02f
    5540:	e00920c1 	.word	0xe00920c1
    5544:	f01f20c4 	.word	0xf01f20c4
    5548:	682afccd 	.word	0x682afccd
    554c:	1c331c01 	.word	0x1c331c01
    5550:	f02f1c20 	.word	0xf02f1c20
    5554:	20c3faa9 	.word	0x20c3faa9
    5558:	1c214a45 	.word	0x1c214a45
    555c:	f7fe1c3b 	.word	0xf7fe1c3b
    5560:	e075fe85 	.word	0xe075fe85
    5564:	f01f20c6 	.word	0xf01f20c6
    5568:	1c05fcbd 	.word	0x1c05fcbd
    556c:	ff8ef7fe 	.word	0xff8ef7fe
    5570:	1c024c3b 	.word	0x1c024c3b
    5574:	1c201c29 	.word	0x1c201c29
    5578:	fa96f02f 	.word	0xfa96f02f
    557c:	20c54b3d 	.word	0x20c54b3d
    5580:	4b3de02d 	.word	0x4b3de02d
    5584:	685a681b 	.word	0x685a681b
    5588:	2b447813 	.word	0x2b447813
    558c:	7853d10a 	.word	0x7853d10a
    5590:	d1072b43 	.word	0xd1072b43
    5594:	2b497893 	.word	0x2b497893
    5598:	78d3d104 	.word	0x78d3d104
    559c:	d1012b4d 	.word	0xd1012b4d
    55a0:	e00f4836 	.word	0xe00f4836
    55a4:	2b4378d3 	.word	0x2b4378d3
    55a8:	20b1d102 	.word	0x20b1d102
    55ac:	e0090040 	.word	0xe0090040
    55b0:	2b437a53 	.word	0x2b437a53
    55b4:	2b54d005 	.word	0x2b54d005
    55b8:	2b57d003 	.word	0x2b57d003
    55bc:	2b4ad001 	.word	0x2b4ad001
    55c0:	482fd110 	.word	0x482fd110
    55c4:	fc8ef01f 	.word	0xfc8ef01f
    55c8:	f7fe1c05 	.word	0xf7fe1c05
    55cc:	4c24ff5f 	.word	0x4c24ff5f
    55d0:	1c291c02 	.word	0x1c291c02
    55d4:	f02f1c20 	.word	0xf02f1c20
    55d8:	4b2afa67 	.word	0x4b2afa67
    55dc:	1c21482a 	.word	0x1c21482a
    55e0:	e7bc4a23 	.word	0xe7bc4a23
    55e4:	004020b2 	.word	0x004020b2
    55e8:	fc7cf01f 	.word	0xfc7cf01f
    55ec:	f7fe1c05 	.word	0xf7fe1c05
    55f0:	4c1bff4d 	.word	0x4c1bff4d
    55f4:	1c291c02 	.word	0x1c291c02
    55f8:	f02f1c20 	.word	0xf02f1c20
    55fc:	4b21fa55 	.word	0x4b21fa55
    5600:	1c214821 	.word	0x1c214821
    5604:	e7aa4a21 	.word	0xe7aa4a21
    5608:	ff54f7fe 	.word	0xff54f7fe
    560c:	4a20e020 	.word	0x4a20e020
    5610:	e0012301 	.word	0xe0012301
    5614:	23004a1e 	.word	0x23004a1e
    5618:	f7ff7013 	.word	0xf7ff7013
    561c:	e017ff13 	.word	0xe017ff13
    5620:	4c0f4b15 	.word	0x4c0f4b15
    5624:	491b681b 	.word	0x491b681b
    5628:	685b4a1b 	.word	0x685b4a1b
    562c:	f02f1c20 	.word	0xf02f1c20
    5630:	481afa3b 	.word	0x481afa3b
    5634:	4a15491a 	.word	0x4a15491a
    5638:	f7fe2300 	.word	0xf7fe2300
    563c:	1c20fe17 	.word	0x1c20fe17
    5640:	fba2f008 	.word	0xfba2f008
    5644:	f7ffe004 	.word	0xf7ffe004
    5648:	e001fbcb 	.word	0xe001fbcb
    564c:	fea2f7ff 	.word	0xfea2f7ff
    5650:	23024a14 	.word	0x23024a14
    5654:	bcf06013 	.word	0xbcf06013
    5658:	4700bc01 	.word	0x4700bc01
    565c:	001afac0 	.word	0x001afac0
    5660:	001afa44 	.word	0x001afa44
    5664:	001afabc 	.word	0x001afabc
    5668:	001af97c 	.word	0x001af97c
    566c:	00171f65 	.word	0x00171f65
    5670:	00001106 	.word	0x00001106
    5674:	00171e89 	.word	0x00171e89
    5678:	001afab0 	.word	0x001afab0
    567c:	00000161 	.word	0x00000161
    5680:	00000163 	.word	0x00000163
    5684:	00171881 	.word	0x00171881
    5688:	00000165 	.word	0x00000165
    568c:	00000101 	.word	0x00000101
    5690:	001afb10 	.word	0x001afb10
    5694:	001a7a77 	.word	0x001a7a77
    5698:	001af918 	.word	0x001af918
    569c:	001aa787 	.word	0x001aa787
    56a0:	0000010b 	.word	0x0000010b
    56a4:	001afb04 	.word	0x001afb04
    56a8:	4b0db510 	.word	0x4b0db510
    56ac:	4c0d1c02 	.word	0x4c0d1c02
    56b0:	4b0d6818 	.word	0x4b0d6818
    56b4:	68193008 	.word	0x68193008
    56b8:	31146823 	.word	0x31146823
    56bc:	18c9011b 	.word	0x18c9011b
    56c0:	f7fc4b0a 	.word	0xf7fc4b0a
    56c4:	6820fe2b 	.word	0x6820fe2b
    56c8:	3001210a 	.word	0x3001210a
    56cc:	f852f02e 	.word	0xf852f02e
    56d0:	20646020 	.word	0x20646020
    56d4:	f9c8f02f 	.word	0xf9c8f02f
    56d8:	bc01bc10 	.word	0xbc01bc10
    56dc:	46c04700 	.word	0x46c04700
    56e0:	001afac4 	.word	0x001afac4
    56e4:	001af914 	.word	0x001af914
    56e8:	001afac8 	.word	0x001afac8
    56ec:	0000b301 	.word	0x0000b301
    56f0:	4e2ab5f0 	.word	0x4e2ab5f0
    56f4:	4d2b4f2a 	.word	0x4d2b4f2a
    56f8:	68394b2b 	.word	0x68394b2b
    56fc:	682a6830 	.word	0x682a6830
    5700:	1882681b 	.word	0x1882681b
    5704:	4c2918cb 	.word	0x4c2918cb
    5708:	3a01b082 	.word	0x3a01b082
    570c:	94003b01 	.word	0x94003b01
    5710:	fd94f7fc 	.word	0xfd94f7fc
    5714:	681c4b26 	.word	0x681c4b26
    5718:	f02f1c20 	.word	0xf02f1c20
    571c:	00c3fa05 	.word	0x00c3fa05
    5720:	68396828 	.word	0x68396828
    5724:	68331ac0 	.word	0x68331ac0
    5728:	18c00840 	.word	0x18c00840
    572c:	4b211c22 	.word	0x4b211c22
    5730:	fdf4f7fc 	.word	0xfdf4f7fc
    5734:	4c214b20 	.word	0x4c214b20
    5738:	6824681a 	.word	0x6824681a
    573c:	4b201e90 	.word	0x4b201e90
    5740:	4c201912 	.word	0x4c201912
    5744:	6824681b 	.word	0x6824681b
    5748:	191b1e99 	.word	0x191b1e99
    574c:	94002401 	.word	0x94002401
    5750:	33013201 	.word	0x33013201
    5754:	94012402 	.word	0x94012402
    5758:	fcd0f7fc 	.word	0xfcd0f7fc
    575c:	4a1b4b1a 	.word	0x4a1b4b1a
    5760:	4b1b6818 	.word	0x4b1b6818
    5764:	681b6812 	.word	0x681b6812
    5768:	3b011882 	.word	0x3b011882
    576c:	1c1934ff 	.word	0x1c1934ff
    5770:	94003a01 	.word	0x94003a01
    5774:	fb8cf7fc 	.word	0xfb8cf7fc
    5778:	4a174b16 	.word	0x4a174b16
    577c:	4b176818 	.word	0x4b176818
    5780:	681b6812 	.word	0x681b6812
    5784:	3b011882 	.word	0x3b011882
    5788:	1c193a01 	.word	0x1c193a01
    578c:	f7fc9400 	.word	0xf7fc9400
    5790:	b002fb7f 	.word	0xb002fb7f
    5794:	bc01bcf0 	.word	0xbc01bcf0
    5798:	46c04700 	.word	0x46c04700
    579c:	001afad4 	.word	0x001afad4
    57a0:	001afad8 	.word	0x001afad8
    57a4:	001afadc 	.word	0x001afadc
    57a8:	001afae0 	.word	0x001afae0
    57ac:	0000ffff 	.word	0x0000ffff
    57b0:	001afb08 	.word	0x001afb08
    57b4:	0000ff01 	.word	0x0000ff01
    57b8:	001afac4 	.word	0x001afac4
    57bc:	001afacc 	.word	0x001afacc
    57c0:	001afac8 	.word	0x001afac8
    57c4:	001afad0 	.word	0x001afad0
    57c8:	001afae4 	.word	0x001afae4
    57cc:	001afaec 	.word	0x001afaec
    57d0:	001afae8 	.word	0x001afae8
    57d4:	001afaf4 	.word	0x001afaf4
    57d8:	001afafc 	.word	0x001afafc
    57dc:	001afaf8 	.word	0x001afaf8
    57e0:	b0a8b5f0 	.word	0xb0a8b5f0
    57e4:	f978f02f 	.word	0xf978f02f
    57e8:	009b23c0 	.word	0x009b23c0
    57ec:	23804018 	.word	0x23804018
    57f0:	4298005b 	.word	0x4298005b
    57f4:	2566d001 	.word	0x2566d001
    57f8:	25bde000 	.word	0x25bde000
    57fc:	681b4bcb 	.word	0x681b4bcb
    5800:	d1002b00 	.word	0xd1002b00
    5804:	2b02e23c 	.word	0x2b02e23c
    5808:	f7ffd101 	.word	0xf7ffd101
    580c:	4bc8ff71 	.word	0x4bc8ff71
    5810:	681baf0f 	.word	0x681baf0f
    5814:	32851c1a 	.word	0x32851c1a
    5818:	229d9209 	.word	0x229d9209
    581c:	1d190052 	.word	0x1d190052
    5820:	4bc4189a 	.word	0x4bc4189a
    5824:	681c9104 	.word	0x681c9104
    5828:	230031c2 	.word	0x230031c2
    582c:	920b910a 	.word	0x920b910a
    5830:	930c9308 	.word	0x930c9308
    5834:	9503930d 	.word	0x9503930d
    5838:	4bbfe11c 	.word	0x4bbfe11c
    583c:	4294681a 	.word	0x4294681a
    5840:	26b0d002 	.word	0x26b0d002
    5844:	e0010176 	.word	0xe0010176
    5848:	023626b3 	.word	0x023626b3
    584c:	2b007d23 	.word	0x2b007d23
    5850:	2101d102 	.word	0x2101d102
    5854:	e0019105 	.word	0xe0019105
    5858:	93059b03 	.word	0x93059b03
    585c:	d0024294 	.word	0xd0024294
    5860:	910e49b6 	.word	0x910e49b6
    5864:	4ab6e001 	.word	0x4ab6e001
    5868:	2200920e 	.word	0x2200920e
    586c:	54bbe003 	.word	0x54bbe003
    5870:	2a0f3201 	.word	0x2a0f3201
    5874:	6863d004 	.word	0x6863d004
    5878:	2b005c9b 	.word	0x2b005c9b
    587c:	e005d1f7 	.word	0xe005d1f7
    5880:	7bdb6863 	.word	0x7bdb6863
    5884:	d0012b00 	.word	0xd0012b00
    5888:	73bb237e 	.word	0x73bb237e
    588c:	06d97a23 	.word	0x06d97a23
    5890:	2bffd506 	.word	0x2bffd506
    5894:	2a0ed004 	.word	0x2a0ed004
    5898:	232fdc05 	.word	0x232fdc05
    589c:	320154bb 	.word	0x320154bb
    58a0:	212018bb 	.word	0x212018bb
    58a4:	237ee004 	.word	0x237ee004
    58a8:	232f737b 	.word	0x232f737b
    58ac:	e7f773bb 	.word	0xe7f773bb
    58b0:	dc032a0e 	.word	0xdc032a0e
    58b4:	32017019 	.word	0x32017019
    58b8:	e7f93301 	.word	0xe7f93301
    58bc:	73fb2300 	.word	0x73fb2300
    58c0:	011a9b08 	.word	0x011a9b08
    58c4:	681b4b9f 	.word	0x681b4b9f
    58c8:	4b9918d5 	.word	0x4b9918d5
    58cc:	68181c29 	.word	0x68181c29
    58d0:	9b0e310f 	.word	0x9b0e310f
    58d4:	91069a04 	.word	0x91069a04
    58d8:	93003a01 	.word	0x93003a01
    58dc:	9b061c29 	.word	0x9b061c29
    58e0:	f7fc950c 	.word	0xf7fc950c
    58e4:	9905fcab 	.word	0x9905fcab
    58e8:	43319804 	.word	0x43319804
    58ec:	1c3a9107 	.word	0x1c3a9107
    58f0:	9b071c29 	.word	0x9b071c29
    58f4:	fd12f7fc 	.word	0xfd12f7fc
    58f8:	98049b0e 	.word	0x98049b0e
    58fc:	93009a04 	.word	0x93009a04
    5900:	9b063078 	.word	0x9b063078
    5904:	1c29327b 	.word	0x1c29327b
    5908:	fc98f7fc 	.word	0xfc98f7fc
    590c:	06d97a23 	.word	0x06d97a23
    5910:	2bffd514 	.word	0x2bffd514
    5914:	498cd101 	.word	0x498cd101
    5918:	6862e00a 	.word	0x6862e00a
    591c:	2b2e7813 	.word	0x2b2e7813
    5920:	7853d10a 	.word	0x7853d10a
    5924:	d1072b2e 	.word	0xd1072b2e
    5928:	2b007893 	.word	0x2b007893
    592c:	4987d104 	.word	0x4987d104
    5930:	f02f1c38 	.word	0xf02f1c38
    5934:	e031f915 	.word	0xe031f915
    5938:	e7f94985 	.word	0xe7f94985
    593c:	488568e3 	.word	0x488568e3
    5940:	d8054283 	.word	0xd8054283
    5944:	1c384984 	.word	0x1c384984
    5948:	f02f1c1a 	.word	0xf02f1c1a
    594c:	e01ef8ad 	.word	0xe01ef8ad
    5950:	42b34e82 	.word	0x42b34e82
    5954:	4018d806 	.word	0x4018d806
    5958:	00830a9a 	.word	0x00830a9a
    595c:	4980181b 	.word	0x4980181b
    5960:	e0110a5b 	.word	0xe0110a5b
    5964:	4283487f 	.word	0x4283487f
    5968:	1c18d807 	.word	0x1c18d807
    596c:	0d1a4030 	.word	0x0d1a4030
    5970:	181b0083 	.word	0x181b0083
    5974:	0cdb497c 	.word	0x0cdb497c
    5978:	4018e006 	.word	0x4018e006
    597c:	00830f9a 	.word	0x00830f9a
    5980:	005b181b 	.word	0x005b181b
    5984:	0f9b4979 	.word	0x0f9b4979
    5988:	f02f1c38 	.word	0xf02f1c38
    598c:	7d23f88d 	.word	0x7d23f88d
    5990:	d0032b00 	.word	0xd0032b00
    5994:	9a0d68e3 	.word	0x9a0d68e3
    5998:	920d18d2 	.word	0x920d18d2
    599c:	71fb2300 	.word	0x71fb2300
    59a0:	23019a09 	.word	0x23019a09
    59a4:	1c103a05 	.word	0x1c103a05
    59a8:	1c299300 	.word	0x1c299300
    59ac:	f7fc9b06 	.word	0xf7fc9b06
    59b0:	9b0efa6f 	.word	0x9b0efa6f
    59b4:	9a099809 	.word	0x9a099809
    59b8:	3a013804 	.word	0x3a013804
    59bc:	1c299300 	.word	0x1c299300
    59c0:	f7fc9b06 	.word	0xf7fc9b06
    59c4:	9809fc3b 	.word	0x9809fc3b
    59c8:	1c3a1c29 	.word	0x1c3a1c29
    59cc:	f7fc9b07 	.word	0xf7fc9b07
    59d0:	990efca5 	.word	0x990efca5
    59d4:	9a099809 	.word	0x9a099809
    59d8:	9b069100 	.word	0x9b069100
    59dc:	323b3038 	.word	0x323b3038
    59e0:	f7fc1c29 	.word	0xf7fc1c29
    59e4:	6923fc2b 	.word	0x6923fc2b
    59e8:	d0152b00 	.word	0xd0152b00
    59ec:	30101c20 	.word	0x30101c20
    59f0:	f8def02f 	.word	0xf8def02f
    59f4:	68c66942 	.word	0x68c66942
    59f8:	2a636903 	.word	0x2a636903
    59fc:	3a64dd00 	.word	0x3a64dd00
    5a00:	68829200 	.word	0x68829200
    5a04:	9201495a 	.word	0x9201495a
    5a08:	33016842 	.word	0x33016842
    5a0c:	1c389202 	.word	0x1c389202
    5a10:	f02f1c32 	.word	0xf02f1c32
    5a14:	e004f849 	.word	0xe004f849
    5a18:	4a574956 	.word	0x4a574956
    5a1c:	f02f1c38 	.word	0xf02f1c38
    5a20:	2300f843 	.word	0x2300f843
    5a24:	9a0a73bb 	.word	0x9a0a73bb
    5a28:	3a052301 	.word	0x3a052301
    5a2c:	93001c10 	.word	0x93001c10
    5a30:	9b061c29 	.word	0x9b061c29
    5a34:	fa2cf7fc 	.word	0xfa2cf7fc
    5a38:	980a9b0e 	.word	0x980a9b0e
    5a3c:	38049a0a 	.word	0x38049a0a
    5a40:	93003a01 	.word	0x93003a01
    5a44:	9b061c29 	.word	0x9b061c29
    5a48:	fbf8f7fc 	.word	0xfbf8f7fc
    5a4c:	1c29980a 	.word	0x1c29980a
    5a50:	9b071c3a 	.word	0x9b071c3a
    5a54:	fc62f7fc 	.word	0xfc62f7fc
    5a58:	980a990e 	.word	0x980a990e
    5a5c:	91009a0a 	.word	0x91009a0a
    5a60:	30703273 	.word	0x30703273
    5a64:	9b061c29 	.word	0x9b061c29
    5a68:	fbe8f7fc 	.word	0xfbe8f7fc
    5a6c:	32019a08 	.word	0x32019a08
    5a70:	69e49208 	.word	0x69e49208
    5a74:	2b099b08 	.word	0x2b099b08
    5a78:	2c00dc02 	.word	0x2c00dc02
    5a7c:	e6dcd000 	.word	0xe6dcd000
    5a80:	3b019b08 	.word	0x3b019b08
    5a84:	d8112b08 	.word	0xd8112b08
    5a88:	4c3c4b29 	.word	0x4c3c4b29
    5a8c:	4b3c6818 	.word	0x4b3c6818
    5a90:	681a6824 	.word	0x681a6824
    5a94:	990c4b2b 	.word	0x990c4b2b
    5a98:	1882681b 	.word	0x1882681b
    5a9c:	4c27191b 	.word	0x4c27191b
    5aa0:	3a013110 	.word	0x3a013110
    5aa4:	94003b01 	.word	0x94003b01
    5aa8:	fbc8f7fc 	.word	0xfbc8f7fc
    5aac:	9a0b4b25 	.word	0x9a0b4b25
    5ab0:	4b326819 	.word	0x4b326819
    5ab4:	681b4833 	.word	0x681b4833
    5ab8:	18cb3203 	.word	0x18cb3203
    5abc:	90003b01 	.word	0x90003b01
    5ac0:	f7fc980b 	.word	0xf7fc980b
    5ac4:	4b30fbbb 	.word	0x4b30fbbb
    5ac8:	2c0a681c 	.word	0x2c0a681c
    5acc:	482fd91c 	.word	0x482fd91c
    5ad0:	f02d1c21 	.word	0xf02d1c21
    5ad4:	1c05fd53 	.word	0x1c05fd53
    5ad8:	dc002813 	.word	0xdc002813
    5adc:	4b162514 	.word	0x4b162514
    5ae0:	681b229f 	.word	0x681b229f
    5ae4:	681b1b52 	.word	0x681b1b52
    5ae8:	1c181e61 	.word	0x1c181e61
    5aec:	f02d4350 	.word	0xf02d4350
    5af0:	4b14fd45 	.word	0x4b14fd45
    5af4:	681b9a0b 	.word	0x681b9a0b
    5af8:	18c13202 	.word	0x18c13202
    5afc:	194b4824 	.word	0x194b4824
    5b00:	980b9000 	.word	0x980b9000
    5b04:	fb9af7fc 	.word	0xfb9af7fc
    5b08:	ad0f4c22 	.word	0xad0f4c22
    5b0c:	f02f1c20 	.word	0xf02f1c20
    5b10:	4b21f80b 	.word	0x4b21f80b
    5b14:	4290681a 	.word	0x4290681a
    5b18:	1a81d940 	.word	0x1a81d940
    5b1c:	1c281861 	.word	0x1c281861
    5b20:	f84af02f 	.word	0xf84af02f
    5b24:	702b232e 	.word	0x702b232e
    5b28:	e03b706b 	.word	0xe03b706b
    5b2c:	001afb04 	.word	0x001afb04
    5b30:	001afae4 	.word	0x001afae4
    5b34:	001afaac 	.word	0x001afaac
    5b38:	001afab0 	.word	0x001afab0
    5b3c:	00001616 	.word	0x00001616
    5b40:	0000b3b3 	.word	0x0000b3b3
    5b44:	001afae8 	.word	0x001afae8
    5b48:	001a7a8c 	.word	0x001a7a8c
    5b4c:	001a7a94 	.word	0x001a7a94
    5b50:	001a7a9c 	.word	0x001a7a9c
    5b54:	000003ff 	.word	0x000003ff
    5b58:	001a7aa4 	.word	0x001a7aa4
    5b5c:	000fffff 	.word	0x000fffff
    5b60:	001a7aaa 	.word	0x001a7aaa
    5b64:	3fffffff 	.word	0x3fffffff
    5b68:	001a7ab5 	.word	0x001a7ab5
    5b6c:	001a7ac0 	.word	0x001a7ac0
    5b70:	001a7acb 	.word	0x001a7acb
    5b74:	001a7ae4 	.word	0x001a7ae4
    5b78:	001aa787 	.word	0x001aa787
    5b7c:	001afaf0 	.word	0x001afaf0
    5b80:	001afaec 	.word	0x001afaec
    5b84:	0000ffff 	.word	0x0000ffff
    5b88:	001afab4 	.word	0x001afab4
    5b8c:	00000636 	.word	0x00000636
    5b90:	00000101 	.word	0x00000101
    5b94:	001af918 	.word	0x001af918
    5b98:	001afab8 	.word	0x001afab8
    5b9c:	1c211c28 	.word	0x1c211c28
    5ba0:	ffdef02e 	.word	0xffdef02e
    5ba4:	ae0f4b38 	.word	0xae0f4b38
    5ba8:	2300681a 	.word	0x2300681a
    5bac:	4b3754b3 	.word	0x4b3754b3
    5bb0:	68184d37 	.word	0x68184d37
    5bb4:	68294b37 	.word	0x68294b37
    5bb8:	4b37681a 	.word	0x4b37681a
    5bbc:	681b1882 	.word	0x681b1882
    5bc0:	18cb4c36 	.word	0x18cb4c36
    5bc4:	3b013a01 	.word	0x3b013a01
    5bc8:	f7fc9400 	.word	0xf7fc9400
    5bcc:	6829fb37 	.word	0x6829fb37
    5bd0:	1c329804 	.word	0x1c329804
    5bd4:	f7fc4b32 	.word	0xf7fc4b32
    5bd8:	990dfba1 	.word	0x990dfba1
    5bdc:	d0052900 	.word	0xd0052900
    5be0:	1c304930 	.word	0x1c304930
    5be4:	f02e9a0d 	.word	0xf02e9a0d
    5be8:	e033ff5f 	.word	0xe033ff5f
    5bec:	ffe8f02e 	.word	0xffe8f02e
    5bf0:	f02e1c06 	.word	0xf02e1c06
    5bf4:	4b2cffe9 	.word	0x4b2cffe9
    5bf8:	429e1c01 	.word	0x429e1c01
    5bfc:	2800d80f 	.word	0x2800d80f
    5c00:	2300d101 	.word	0x2300d101
    5c04:	2364e005 	.word	0x2364e005
    5c08:	43701c18 	.word	0x43701c18
    5c0c:	fcb6f02d 	.word	0xfcb6f02d
    5c10:	49261c03 	.word	0x49261c03
    5c14:	a80f0ab2 	.word	0xa80f0ab2
    5c18:	ff46f02e 	.word	0xff46f02e
    5c1c:	2800e01a 	.word	0x2800e01a
    5c20:	2700d101 	.word	0x2700d101
    5c24:	2364e005 	.word	0x2364e005
    5c28:	43701c18 	.word	0x43701c18
    5c2c:	fca6f02d 	.word	0xfca6f02d
    5c30:	21a01c07 	.word	0x21a01c07
    5c34:	1c300189 	.word	0x1c300189
    5c38:	fd38f02d 	.word	0xfd38f02d
    5c3c:	f02d2164 	.word	0xf02d2164
    5c40:	4c1bfc9d 	.word	0x4c1bfc9d
    5c44:	1c030d35 	.word	0x1c030d35
    5c48:	a80f1c21 	.word	0xa80f1c21
    5c4c:	97001c2a 	.word	0x97001c2a
    5c50:	ff2af02e 	.word	0xff2af02e
    5c54:	1c20ac0f 	.word	0x1c20ac0f
    5c58:	ff66f02e 	.word	0xff66f02e
    5c5c:	490d4b0b 	.word	0x490d4b0b
    5c60:	68181c02 	.word	0x68181c02
    5c64:	00d2680b 	.word	0x00d2680b
    5c68:	4b0918c0 	.word	0x4b0918c0
    5c6c:	1a803802 	.word	0x1a803802
    5c70:	1c226819 	.word	0x1c226819
    5c74:	f7fc4b0a 	.word	0xf7fc4b0a
    5c78:	4a0efb51 	.word	0x4a0efb51
    5c7c:	60132300 	.word	0x60132300
    5c80:	bcf0b028 	.word	0xbcf0b028
    5c84:	4700bc01 	.word	0x4700bc01
    5c88:	001afab8 	.word	0x001afab8
    5c8c:	001afaf4 	.word	0x001afaf4
    5c90:	001afaf8 	.word	0x001afaf8
    5c94:	001afafc 	.word	0x001afafc
    5c98:	001afb00 	.word	0x001afb00
    5c9c:	00001616 	.word	0x00001616
    5ca0:	00001601 	.word	0x00001601
    5ca4:	001a7ae9 	.word	0x001a7ae9
    5ca8:	000fffff 	.word	0x000fffff
    5cac:	001a7aee 	.word	0x001a7aee
    5cb0:	001a7af9 	.word	0x001a7af9
    5cb4:	001afb04 	.word	0x001afb04
    5cb8:	4c06b510 	.word	0x4c06b510
    5cbc:	2b006823 	.word	0x2b006823
    5cc0:	f009d005 	.word	0xf009d005
    5cc4:	f7fffff7 	.word	0xf7fffff7
    5cc8:	2300fcef 	.word	0x2300fcef
    5ccc:	bc106023 	.word	0xbc106023
    5cd0:	4700bc01 	.word	0x4700bc01
    5cd4:	001af8e8 	.word	0x001af8e8
    5cd8:	1c16b570 	.word	0x1c16b570
    5cdc:	4a1d23bc 	.word	0x4a1d23bc
    5ce0:	6013005b 	.word	0x6013005b
    5ce4:	23c84a1c 	.word	0x23c84a1c
    5ce8:	4b1c6013 	.word	0x4b1c6013
    5cec:	681b1c0d 	.word	0x681b1c0d
    5cf0:	4a1c491b 	.word	0x4a1c491b
    5cf4:	085b185b 	.word	0x085b185b
    5cf8:	4b1b6013 	.word	0x4b1b6013
    5cfc:	681b4a1b 	.word	0x681b4a1b
    5d00:	085b3bc8 	.word	0x085b3bc8
    5d04:	f01f6013 	.word	0xf01f6013
    5d08:	4b19f8ed 	.word	0x4b19f8ed
    5d0c:	1c294c19 	.word	0x1c294c19
    5d10:	1c206018 	.word	0x1c206018
    5d14:	ff24f02e 	.word	0xff24f02e
    5d18:	f7fe1c20 	.word	0xf7fe1c20
    5d1c:	4b16fc07 	.word	0x4b16fc07
    5d20:	4b16681a 	.word	0x4b16681a
    5d24:	4b16601a 	.word	0x4b16601a
    5d28:	4b16601a 	.word	0x4b16601a
    5d2c:	701a2200 	.word	0x701a2200
    5d30:	601e4b15 	.word	0x601e4b15
    5d34:	701a4b15 	.word	0x701a4b15
    5d38:	fac4f000 	.word	0xfac4f000
    5d3c:	4a154b14 	.word	0x4a154b14
    5d40:	23026018 	.word	0x23026018
    5d44:	20106013 	.word	0x20106013
    5d48:	fac2f000 	.word	0xfac2f000
    5d4c:	bc01bc70 	.word	0xbc01bc70
    5d50:	46c04700 	.word	0x46c04700
    5d54:	001afacc 	.word	0x001afacc
    5d58:	001afad0 	.word	0x001afad0
    5d5c:	001af758 	.word	0x001af758
    5d60:	fffffe88 	.word	0xfffffe88
    5d64:	001afac4 	.word	0x001afac4
    5d68:	001af75c 	.word	0x001af75c
    5d6c:	001afac8 	.word	0x001afac8
    5d70:	001afb08 	.word	0x001afb08
    5d74:	001af918 	.word	0x001af918
    5d78:	001af8ec 	.word	0x001af8ec
    5d7c:	001afab0 	.word	0x001afab0
    5d80:	001afaac 	.word	0x001afaac
    5d84:	001af9e0 	.word	0x001af9e0
    5d88:	001afb0c 	.word	0x001afb0c
    5d8c:	001afac0 	.word	0x001afac0
    5d90:	001aaec8 	.word	0x001aaec8
    5d94:	001af8e8 	.word	0x001af8e8
    5d98:	4b2fb570 	.word	0x4b2fb570
    5d9c:	0064249f 	.word	0x0064249f
    5da0:	4a2e1c16 	.word	0x4a2e1c16
    5da4:	23c2601c 	.word	0x23c2601c
    5da8:	4b2d6013 	.word	0x4b2d6013
    5dac:	681a1c0d 	.word	0x681a1c0d
    5db0:	18d24b2c 	.word	0x18d24b2c
    5db4:	08524b2c 	.word	0x08524b2c
    5db8:	4b2c601a 	.word	0x4b2c601a
    5dbc:	4b2c6819 	.word	0x4b2c6819
    5dc0:	084939c2 	.word	0x084939c2
    5dc4:	4b2b6019 	.word	0x4b2b6019
    5dc8:	4b2b601a 	.word	0x4b2b601a
    5dcc:	4b2b601a 	.word	0x4b2b601a
    5dd0:	4b2b601a 	.word	0x4b2b601a
    5dd4:	601c1c0a 	.word	0x601c1c0a
    5dd8:	32114b2a 	.word	0x32114b2a
    5ddc:	4b2a601c 	.word	0x4b2a601c
    5de0:	4b2a601c 	.word	0x4b2a601c
    5de4:	60192410 	.word	0x60192410
    5de8:	31b24b29 	.word	0x31b24b29
    5dec:	4b29601c 	.word	0x4b29601c
    5df0:	4a29601a 	.word	0x4a29601a
    5df4:	601323a0 	.word	0x601323a0
    5df8:	60194b28 	.word	0x60194b28
    5dfc:	601c4b28 	.word	0x601c4b28
    5e00:	f870f01f 	.word	0xf870f01f
    5e04:	4b284c27 	.word	0x4b284c27
    5e08:	60181c29 	.word	0x60181c29
    5e0c:	f02e1c20 	.word	0xf02e1c20
    5e10:	4a26fea7 	.word	0x4a26fea7
    5e14:	6013231a 	.word	0x6013231a
    5e18:	f7fe1c20 	.word	0xf7fe1c20
    5e1c:	4b24fb87 	.word	0x4b24fb87
    5e20:	4b24681a 	.word	0x4b24681a
    5e24:	4b24601a 	.word	0x4b24601a
    5e28:	4b24601a 	.word	0x4b24601a
    5e2c:	701a2200 	.word	0x701a2200
    5e30:	601e4b23 	.word	0x601e4b23
    5e34:	701a4b23 	.word	0x701a4b23
    5e38:	fa44f000 	.word	0xfa44f000
    5e3c:	4a234b22 	.word	0x4a234b22
    5e40:	23026018 	.word	0x23026018
    5e44:	20086013 	.word	0x20086013
    5e48:	fa42f000 	.word	0xfa42f000
    5e4c:	f7fe2000 	.word	0xf7fe2000
    5e50:	bc70fa7d 	.word	0xbc70fa7d
    5e54:	4700bc01 	.word	0x4700bc01
    5e58:	001afacc 	.word	0x001afacc
    5e5c:	001afad0 	.word	0x001afad0
    5e60:	001af758 	.word	0x001af758
    5e64:	fffffec2 	.word	0xfffffec2
    5e68:	001afac4 	.word	0x001afac4
    5e6c:	001af75c 	.word	0x001af75c
    5e70:	001afac8 	.word	0x001afac8
    5e74:	001afaf4 	.word	0x001afaf4
    5e78:	001afae4 	.word	0x001afae4
    5e7c:	001afad4 	.word	0x001afad4
    5e80:	001afafc 	.word	0x001afafc
    5e84:	001afaec 	.word	0x001afaec
    5e88:	001afadc 	.word	0x001afadc
    5e8c:	001afad8 	.word	0x001afad8
    5e90:	001afae0 	.word	0x001afae0
    5e94:	001afae8 	.word	0x001afae8
    5e98:	001afaf0 	.word	0x001afaf0
    5e9c:	001afaf8 	.word	0x001afaf8
    5ea0:	001afb00 	.word	0x001afb00
    5ea4:	001af918 	.word	0x001af918
    5ea8:	001afb08 	.word	0x001afb08
    5eac:	001afab8 	.word	0x001afab8
    5eb0:	001af8ec 	.word	0x001af8ec
    5eb4:	001afab0 	.word	0x001afab0
    5eb8:	001afaac 	.word	0x001afaac
    5ebc:	001af9e0 	.word	0x001af9e0
    5ec0:	001afb0c 	.word	0x001afb0c
    5ec4:	001afac0 	.word	0x001afac0
    5ec8:	001afaa8 	.word	0x001afaa8
    5ecc:	001afb04 	.word	0x001afb04
    5ed0:	f000b500 	.word	0xf000b500
    5ed4:	2808f9f7 	.word	0x2808f9f7
    5ed8:	4a02d102 	.word	0x4a02d102
    5edc:	60132302 	.word	0x60132302
    5ee0:	4700bc01 	.word	0x4700bc01
    5ee4:	001afb04 	.word	0x001afb04
    5ee8:	46c04718 	.word	0x46c04718
    5eec:	46c04770 	.word	0x46c04770
    5ef0:	b08db5f0 	.word	0xb08db5f0
    5ef4:	60e3ac05 	.word	0x60e3ac05
    5ef8:	90059b13 	.word	0x90059b13
    5efc:	60a26061 	.word	0x60a26061
    5f00:	2b019f12 	.word	0x2b019f12
    5f04:	2b01d025 	.word	0x2b01d025
    5f08:	2b00dc02 	.word	0x2b00dc02
    5f0c:	e08bd006 	.word	0xe08bd006
    5f10:	d0312b02 	.word	0xd0312b02
    5f14:	d0002b03 	.word	0xd0002b03
    5f18:	e055e086 	.word	0xe055e086
    5f1c:	2a00683a 	.word	0x2a00683a
    5f20:	e081d100 	.word	0xe081d100
    5f24:	01124b42 	.word	0x01124b42
    5f28:	e0061898 	.word	0xe0061898
    5f2c:	34101c04 	.word	0x34101c04
    5f30:	22101c21 	.word	0x22101c21
    5f34:	fe4cf02e 	.word	0xfe4cf02e
    5f38:	68431c20 	.word	0x68431c20
    5f3c:	d1f52b00 	.word	0xd1f52b00
    5f40:	4b3b6839 	.word	0x4b3b6839
    5f44:	3204010a 	.word	0x3204010a
    5f48:	2b0058d3 	.word	0x2b0058d3
    5f4c:	1e4bd16c 	.word	0x1e4bd16c
    5f50:	4a38e069 	.word	0x4a38e069
    5f54:	68132101 	.word	0x68132101
    5f58:	d1082b00 	.word	0xd1082b00
    5f5c:	01094a34 	.word	0x01094a34
    5f60:	1852ab05 	.word	0x1852ab05
    5f64:	c213cb13 	.word	0xc213cb13
    5f68:	6013681b 	.word	0x6013681b
    5f6c:	3101e05c 	.word	0x3101e05c
    5f70:	290f3210 	.word	0x290f3210
    5f74:	e057d1ef 	.word	0xe057d1ef
    5f78:	46ac683d 	.word	0x46ac683d
    5f7c:	dd532d01 	.word	0xdd532d01
    5f80:	4e2b1c2c 	.word	0x4e2b1c2c
    5f84:	01243c01 	.word	0x01243c01
    5f88:	9604a809 	.word	0x9604a809
    5f8c:	19329403 	.word	0x19329403
    5f90:	ca381c01 	.word	0xca381c01
    5f94:	9102c138 	.word	0x9102c138
    5f98:	46666813 	.word	0x46666813
    5f9c:	9904600b 	.word	0x9904600b
    5fa0:	01339d03 	.word	0x01339d03
    5fa4:	18cb194c 	.word	0x18cb194c
    5fa8:	c462cb62 	.word	0xc462cb62
    5fac:	6013681b 	.word	0x6013681b
    5fb0:	9e04683b 	.word	0x9e04683b
    5fb4:	18f1011b 	.word	0x18f1011b
    5fb8:	c11cc81c 	.word	0xc11cc81c
    5fbc:	682b9d02 	.word	0x682b9d02
    5fc0:	683b600b 	.word	0x683b600b
    5fc4:	e02e3b01 	.word	0xe02e3b01
    5fc8:	46b4683e 	.word	0x46b4683e
    5fcc:	d02b2e00 	.word	0xd02b2e00
    5fd0:	dc292e0d 	.word	0xdc292e0d
    5fd4:	49161c30 	.word	0x49161c30
    5fd8:	01033001 	.word	0x01033001
    5fdc:	33049100 	.word	0x33049100
    5fe0:	2b00585b 	.word	0x2b00585b
    5fe4:	9b00d020 	.word	0x9b00d020
    5fe8:	a9090100 	.word	0xa9090100
    5fec:	181a9001 	.word	0x181a9001
    5ff0:	ca611c0c 	.word	0xca611c0c
    5ff4:	9403c461 	.word	0x9403c461
    5ff8:	60236813 	.word	0x60236813
    5ffc:	9d019e00 	.word	0x9d019e00
    6000:	01234664 	.word	0x01234664
    6004:	18f319ad 	.word	0x18f319ad
    6008:	c551cb51 	.word	0xc551cb51
    600c:	6013681b 	.word	0x6013681b
    6010:	9800683b 	.word	0x9800683b
    6014:	18c3011b 	.word	0x18c3011b
    6018:	c334c934 	.word	0xc334c934
    601c:	68329e03 	.word	0x68329e03
    6020:	683b601a 	.word	0x683b601a
    6024:	603b3301 	.word	0x603b3301
    6028:	bcf0b00d 	.word	0xbcf0b00d
    602c:	4700bc01 	.word	0x4700bc01
    6030:	001ab094 	.word	0x001ab094
    6034:	001ab0a8 	.word	0x001ab0a8
    6038:	33fc4b05 	.word	0x33fc4b05
    603c:	2b006cdb 	.word	0x2b006cdb
    6040:	2201d101 	.word	0x2201d101
    6044:	2219e000 	.word	0x2219e000
    6048:	601a4b02 	.word	0x601a4b02
    604c:	46c04770 	.word	0x46c04770
    6050:	001ba558 	.word	0x001ba558
    6054:	001aff48 	.word	0x001aff48
    6058:	22004b02 	.word	0x22004b02
    605c:	655a33fc 	.word	0x655a33fc
    6060:	46c04770 	.word	0x46c04770
    6064:	001ba558 	.word	0x001ba558
    6068:	22004b02 	.word	0x22004b02
    606c:	651a33fc 	.word	0x651a33fc
    6070:	46c04770 	.word	0x46c04770
    6074:	001ba558 	.word	0x001ba558
    6078:	22c24b02 	.word	0x22c24b02
    607c:	21000052 	.word	0x21000052
    6080:	47705099 	.word	0x47705099
    6084:	001ba558 	.word	0x001ba558
    6088:	22c04b02 	.word	0x22c04b02
    608c:	21000052 	.word	0x21000052
    6090:	47705099 	.word	0x47705099
    6094:	001ba558 	.word	0x001ba558
    6098:	d0022800 	.word	0xd0022800
    609c:	d1172801 	.word	0xd1172801
    60a0:	4b0ce00b 	.word	0x4b0ce00b
    60a4:	31fc1c19 	.word	0x31fc1c19
    60a8:	6c4a6c8b 	.word	0x6c4a6c8b
    60ac:	42933318 	.word	0x42933318
    60b0:	1c13db0e 	.word	0x1c13db0e
    60b4:	648b3b19 	.word	0x648b3b19
    60b8:	4b06e00a 	.word	0x4b06e00a
    60bc:	31fc1c19 	.word	0x31fc1c19
    60c0:	6c8a6c4b 	.word	0x6c8a6c4b
    60c4:	42933b18 	.word	0x42933b18
    60c8:	1c13dc02 	.word	0x1c13dc02
    60cc:	644b3319 	.word	0x644b3319
    60d0:	46c04770 	.word	0x46c04770
    60d4:	001ba558 	.word	0x001ba558
    60d8:	23ec4904 	.word	0x23ec4904
    60dc:	58ca005b 	.word	0x58ca005b
    60e0:	d1022a00 	.word	0xd1022a00
    60e4:	005b23ee 	.word	0x005b23ee
    60e8:	477050ca 	.word	0x477050ca
    60ec:	001ba558 	.word	0x001ba558
    60f0:	23ee4905 	.word	0x23ee4905
    60f4:	58cb005b 	.word	0x58cb005b
    60f8:	d0032b00 	.word	0xd0032b00
    60fc:	005b23ec 	.word	0x005b23ec
    6100:	50ca2201 	.word	0x50ca2201
    6104:	46c04770 	.word	0x46c04770
    6108:	001ba558 	.word	0x001ba558
    610c:	18c96803 	.word	0x18c96803
    6110:	29006001 	.word	0x29006001
    6114:	1e53da01 	.word	0x1e53da01
    6118:	4291e002 	.word	0x4291e002
    611c:	2300d301 	.word	0x2300d301
    6120:	47706003 	.word	0x47706003
    6124:	1c04b530 	.word	0x1c04b530
    6128:	1c1a1c15 	.word	0x1c1a1c15
    612c:	ffeef7ff 	.word	0xffeef7ff
    6130:	009b6823 	.word	0x009b6823
    6134:	bc305958 	.word	0xbc305958
    6138:	4708bc02 	.word	0x4708bc02
    613c:	1c04b530 	.word	0x1c04b530
    6140:	786268c5 	.word	0x786268c5
    6144:	f7ff6880 	.word	0xf7ff6880
    6148:	68a3ffe1 	.word	0x68a3ffe1
    614c:	009b681b 	.word	0x009b681b
    6150:	bc305958 	.word	0xbc305958
    6154:	4708bc02 	.word	0x4708bc02
    6158:	4c22b5f0 	.word	0x4c22b5f0
    615c:	1c264d22 	.word	0x1c264d22
    6160:	e0063680 	.word	0xe0063680
    6164:	1c211c28 	.word	0x1c211c28
    6168:	f02e2210 	.word	0xf02e2210
    616c:	3410fd31 	.word	0x3410fd31
    6170:	42b43510 	.word	0x42b43510
    6174:	2302d1f6 	.word	0x2302d1f6
    6178:	4c1b4e1c 	.word	0x4c1b4e1c
    617c:	25084f1c 	.word	0x25084f1c
    6180:	6830469c 	.word	0x6830469c
    6184:	d0152800 	.word	0xd0152800
    6188:	23000129 	.word	0x23000129
    618c:	00c3550b 	.word	0x00c3550b
    6190:	009b1a1b 	.word	0x009b1a1b
    6194:	3b1c1c0a 	.word	0x3b1c1c0a
    6198:	18fb3204 	.word	0x18fb3204
    619c:	18615113 	.word	0x18615113
    61a0:	804b4663 	.word	0x804b4663
    61a4:	4b131e42 	.word	0x4b131e42
    61a8:	00920129 	.word	0x00920129
    61ac:	189b3108 	.word	0x189b3108
    61b0:	3501510b 	.word	0x3501510b
    61b4:	36044b10 	.word	0x36044b10
    61b8:	d1e2429e 	.word	0xd1e2429e
    61bc:	4b0a4c0f 	.word	0x4b0a4c0f
    61c0:	1c26012a 	.word	0x1c26012a
    61c4:	3620189d 	.word	0x3620189d
    61c8:	1c28e006 	.word	0x1c28e006
    61cc:	22101c21 	.word	0x22101c21
    61d0:	fcfef02e 	.word	0xfcfef02e
    61d4:	35103410 	.word	0x35103410
    61d8:	d1f642b4 	.word	0xd1f642b4
    61dc:	bc01bcf0 	.word	0xbc01bcf0
    61e0:	46c04700 	.word	0x46c04700
    61e4:	001a222c 	.word	0x001a222c
    61e8:	001afd08 	.word	0x001afd08
    61ec:	001bc3f4 	.word	0x001bc3f4
    61f0:	001bc480 	.word	0x001bc480
    61f4:	001ba5c8 	.word	0x001ba5c8
    61f8:	001bc45c 	.word	0x001bc45c
    61fc:	001a22ac 	.word	0x001a22ac
    6200:	1c01b500 	.word	0x1c01b500
    6204:	48044a03 	.word	0x48044a03
    6208:	f7ff2303 	.word	0xf7ff2303
    620c:	bc02ff8b 	.word	0xbc02ff8b
    6210:	46c04708 	.word	0x46c04708
    6214:	001ab1d0 	.word	0x001ab1d0
    6218:	001baa94 	.word	0x001baa94
    621c:	1c01b500 	.word	0x1c01b500
    6220:	48044a03 	.word	0x48044a03
    6224:	f7ff2303 	.word	0xf7ff2303
    6228:	bc02ff7d 	.word	0xbc02ff7d
    622c:	46c04708 	.word	0x46c04708
    6230:	001ab1c4 	.word	0x001ab1c4
    6234:	001baaac 	.word	0x001baaac
    6238:	1c01b500 	.word	0x1c01b500
    623c:	48044a03 	.word	0x48044a03
    6240:	f7ff2303 	.word	0xf7ff2303
    6244:	bc02ff6f 	.word	0xbc02ff6f
    6248:	46c04708 	.word	0x46c04708
    624c:	001ab07c 	.word	0x001ab07c
    6250:	001ba5c4 	.word	0x001ba5c4
    6254:	1c01b500 	.word	0x1c01b500
    6258:	48044a03 	.word	0x48044a03
    625c:	f7ff2305 	.word	0xf7ff2305
    6260:	bc02ff61 	.word	0xbc02ff61
    6264:	46c04708 	.word	0x46c04708
    6268:	001ab1a0 	.word	0x001ab1a0
    626c:	001baac4 	.word	0x001baac4
    6270:	4a0fb510 	.word	0x4a0fb510
    6274:	49104b0f 	.word	0x49104b0f
    6278:	58d01c04 	.word	0x58d01c04
    627c:	c9082200 	.word	0xc9082200
    6280:	d0024298 	.word	0xd0024298
    6284:	2a043201 	.word	0x2a043201
    6288:	1911d1f9 	.word	0x1911d1f9
    628c:	2103d501 	.word	0x2103d501
    6290:	2903e002 	.word	0x2903e002
    6294:	2100d900 	.word	0x2100d900
    6298:	00894b07 	.word	0x00894b07
    629c:	58ca4804 	.word	0x58ca4804
    62a0:	50c24b04 	.word	0x50c24b04
    62a4:	58c84b05 	.word	0x58c84b05
    62a8:	bc02bc10 	.word	0xbc02bc10
    62ac:	46c04708 	.word	0x46c04708
    62b0:	001ba558 	.word	0x001ba558
    62b4:	00000664 	.word	0x00000664
    62b8:	001a21dc 	.word	0x001a21dc
    62bc:	001a21ec 	.word	0x001a21ec
    62c0:	46c04770 	.word	0x46c04770
    62c4:	68184b01 	.word	0x68184b01
    62c8:	46c04770 	.word	0x46c04770
    62cc:	001aff50 	.word	0x001aff50
    62d0:	60184b01 	.word	0x60184b01
    62d4:	46c04770 	.word	0x46c04770
    62d8:	001aff50 	.word	0x001aff50
    62dc:	681a4b02 	.word	0x681a4b02
    62e0:	601a4b02 	.word	0x601a4b02
    62e4:	46c04770 	.word	0x46c04770
    62e8:	001aff58 	.word	0x001aff58
    62ec:	001aff54 	.word	0x001aff54
    62f0:	22e7b500 	.word	0x22e7b500
    62f4:	49044803 	.word	0x49044803
    62f8:	f02e00d2 	.word	0xf02e00d2
    62fc:	bc01fc69 	.word	0xbc01fc69
    6300:	46c04700 	.word	0x46c04700
    6304:	001aff84 	.word	0x001aff84
    6308:	001ba558 	.word	0x001ba558
    630c:	b081b5f0 	.word	0xb081b5f0
    6310:	90002496 	.word	0x90002496
    6314:	1c171c0e 	.word	0x1c171c0e
    6318:	00642500 	.word	0x00642500
    631c:	42b2e01b 	.word	0x42b2e01b
    6320:	4b12d108 	.word	0x4b12d108
    6324:	189b013a 	.word	0x189b013a
    6328:	ca311c0a 	.word	0xca311c0a
    632c:	6812c331 	.word	0x6812c331
    6330:	e00d601a 	.word	0xe00d601a
    6334:	200f884b 	.word	0x200f884b
    6338:	2b034003 	.word	0x2b034003
    633c:	42a2d10a 	.word	0x42a2d10a
    6340:	6888d008 	.word	0x6888d008
    6344:	1c311c3a 	.word	0x1c311c3a
    6348:	ffe0f7ff 	.word	0xffe0f7ff
    634c:	d0012800 	.word	0xd0012800
    6350:	e0072001 	.word	0xe0072001
    6354:	9a003510 	.word	0x9a003510
    6358:	19596893 	.word	0x19596893
    635c:	2a00684a 	.word	0x2a00684a
    6360:	2000d1dd 	.word	0x2000d1dd
    6364:	bcf0b001 	.word	0xbcf0b001
    6368:	4708bc02 	.word	0x4708bc02
    636c:	001ab094 	.word	0x001ab094
    6370:	49054a04 	.word	0x49054a04
    6374:	30e01c10 	.word	0x30e01c10
    6378:	32106813 	.word	0x32106813
    637c:	4282c108 	.word	0x4282c108
    6380:	4770d1fa 	.word	0x4770d1fa
    6384:	001ab0a8 	.word	0x001ab0a8
    6388:	001bab70 	.word	0x001bab70
    638c:	4b08b510 	.word	0x4b08b510
    6390:	1c044a08 	.word	0x1c044a08
    6394:	2b03589b 	.word	0x2b03589b
    6398:	f7ffd101 	.word	0xf7ffd101
    639c:	4a06ffe9 	.word	0x4a06ffe9
    63a0:	23041c21 	.word	0x23041c21
    63a4:	f7ff4805 	.word	0xf7ff4805
    63a8:	bc10febd 	.word	0xbc10febd
    63ac:	4708bc02 	.word	0x4708bc02
    63b0:	001ba558 	.word	0x001ba558
    63b4:	00000614 	.word	0x00000614
    63b8:	001ab1b4 	.word	0x001ab1b4
    63bc:	001bab6c 	.word	0x001bab6c
    63c0:	4d07b570 	.word	0x4d07b570
    63c4:	24004e07 	.word	0x24004e07
    63c8:	cd023401 	.word	0xcd023401
    63cc:	1c221c30 	.word	0x1c221c30
    63d0:	ff9cf7ff 	.word	0xff9cf7ff
    63d4:	d1f72c0e 	.word	0xd1f72c0e
    63d8:	bc01bc70 	.word	0xbc01bc70
    63dc:	46c04700 	.word	0x46c04700
    63e0:	001bab70 	.word	0x001bab70
    63e4:	001ab064 	.word	0x001ab064
    63e8:	218bb500 	.word	0x218bb500
    63ec:	4b030049 	.word	0x4b030049
    63f0:	4a044803 	.word	0x4a044803
    63f4:	ff3af7fd 	.word	0xff3af7fd
    63f8:	4700bc01 	.word	0x4700bc01
    63fc:	001749fd 	.word	0x001749fd
    6400:	00000119 	.word	0x00000119
    6404:	00001106 	.word	0x00001106
    6408:	4b04b500 	.word	0x4b04b500
    640c:	21692068 	.word	0x21692068
    6410:	f7fd4a03 	.word	0xf7fd4a03
    6414:	bc01ff2b 	.word	0xbc01ff2b
    6418:	46c04700 	.word	0x46c04700
    641c:	00173659 	.word	0x00173659
    6420:	00001506 	.word	0x00001506
    6424:	f02eb500 	.word	0xf02eb500
    6428:	23c0fb57 	.word	0x23c0fb57
    642c:	4018009b 	.word	0x4018009b
    6430:	009b2380 	.word	0x009b2380
    6434:	d0074298 	.word	0xd0074298
    6438:	206e22a0 	.word	0x206e22a0
    643c:	00d2216f 	.word	0x00d2216f
    6440:	f7fd2300 	.word	0xf7fd2300
    6444:	e006ff13 	.word	0xe006ff13
    6448:	faa4f00f 	.word	0xfaa4f00f
    644c:	d0022800 	.word	0xd0022800
    6450:	f7ff200f 	.word	0xf7ff200f
    6454:	bc01ff3d 	.word	0xbc01ff3d
    6458:	46c04700 	.word	0x46c04700
    645c:	f02eb500 	.word	0xf02eb500
    6460:	23c0fb3b 	.word	0x23c0fb3b
    6464:	4018009b 	.word	0x4018009b
    6468:	009b2380 	.word	0x009b2380
    646c:	d0074298 	.word	0xd0074298
    6470:	206e22a0 	.word	0x206e22a0
    6474:	00d2216f 	.word	0x00d2216f
    6478:	f7fd2300 	.word	0xf7fd2300
    647c:	e006fef7 	.word	0xe006fef7
    6480:	f868f00f 	.word	0xf868f00f
    6484:	d0022800 	.word	0xd0022800
    6488:	f7ff200e 	.word	0xf7ff200e
    648c:	bc01ff21 	.word	0xbc01ff21
    6490:	46c04700 	.word	0x46c04700
    6494:	f02eb500 	.word	0xf02eb500
    6498:	23c0fb1f 	.word	0x23c0fb1f
    649c:	4018009b 	.word	0x4018009b
    64a0:	009b2380 	.word	0x009b2380
    64a4:	d0074298 	.word	0xd0074298
    64a8:	206e22a0 	.word	0x206e22a0
    64ac:	00d2216f 	.word	0x00d2216f
    64b0:	f7fd2300 	.word	0xf7fd2300
    64b4:	e006fedb 	.word	0xe006fedb
    64b8:	f8d4f00e 	.word	0xf8d4f00e
    64bc:	d0022800 	.word	0xd0022800
    64c0:	f7ff2006 	.word	0xf7ff2006
    64c4:	bc01ff05 	.word	0xbc01ff05
    64c8:	46c04700 	.word	0x46c04700
    64cc:	f02eb500 	.word	0xf02eb500
    64d0:	23c0fb03 	.word	0x23c0fb03
    64d4:	4018009b 	.word	0x4018009b
    64d8:	009b2380 	.word	0x009b2380
    64dc:	d0074298 	.word	0xd0074298
    64e0:	206e22a0 	.word	0x206e22a0
    64e4:	00d2216f 	.word	0x00d2216f
    64e8:	f7fd2300 	.word	0xf7fd2300
    64ec:	e004febf 	.word	0xe004febf
    64f0:	f7ff2005 	.word	0xf7ff2005
    64f4:	f00cfeed 	.word	0xf00cfeed
    64f8:	bc01ffef 	.word	0xbc01ffef
    64fc:	46c04700 	.word	0x46c04700
    6500:	2002b500 	.word	0x2002b500
    6504:	fee4f7ff 	.word	0xfee4f7ff
    6508:	f9daf7fc 	.word	0xf9daf7fc
    650c:	4700bc01 	.word	0x4700bc01
    6510:	f00fb500 	.word	0xf00fb500
    6514:	f7fffc0d 	.word	0xf7fffc0d
    6518:	bc01fff3 	.word	0xbc01fff3
    651c:	46c04700 	.word	0x46c04700
    6520:	4c11b510 	.word	0x4c11b510
    6524:	4a124b11 	.word	0x4a124b11
    6528:	21ad58e3 	.word	0x21ad58e3
    652c:	589b009b 	.word	0x589b009b
    6530:	1c1a00c9 	.word	0x1c1a00c9
    6534:	58634342 	.word	0x58634342
    6538:	506218d2 	.word	0x506218d2
    653c:	da012a00 	.word	0xda012a00
    6540:	e0034b0c 	.word	0xe0034b0c
    6544:	429a4b0b 	.word	0x429a4b0b
    6548:	2300dd01 	.word	0x2300dd01
    654c:	4c0a5063 	.word	0x4c0a5063
    6550:	23ad4a05 	.word	0x23ad4a05
    6554:	490900db 	.word	0x490900db
    6558:	1c2058d2 	.word	0x1c2058d2
    655c:	faa4f02e 	.word	0xfaa4f02e
    6560:	bc101c20 	.word	0xbc101c20
    6564:	4708bc02 	.word	0x4708bc02
    6568:	001ba558 	.word	0x001ba558
    656c:	0000056c 	.word	0x0000056c
    6570:	001a2218 	.word	0x001a2218
    6574:	0000ffff 	.word	0x0000ffff
    6578:	001afcf8 	.word	0x001afcf8
    657c:	001a81c1 	.word	0x001a81c1
    6580:	4c2eb5f0 	.word	0x4c2eb5f0
    6584:	6823b091 	.word	0x6823b091
    6588:	d03e2b00 	.word	0xd03e2b00
    658c:	25002600 	.word	0x25002600
    6590:	f02e1c30 	.word	0xf02e1c30
    6594:	4a29fb21 	.word	0x4a29fb21
    6598:	681300b7 	.word	0x681300b7
    659c:	59db1c04 	.word	0x59db1c04
    65a0:	d00d42a3 	.word	0xd00d42a3
    65a4:	93004926 	.word	0x93004926
    65a8:	1c231c32 	.word	0x1c231c32
    65ac:	a8013501 	.word	0xa8013501
    65b0:	fa7af02e 	.word	0xfa7af02e
    65b4:	20100129 	.word	0x20100129
    65b8:	4b22aa01 	.word	0x4b22aa01
    65bc:	feaef7fb 	.word	0xfeaef7fb
    65c0:	681b4b1e 	.word	0x681b4b1e
    65c4:	2d0c51dc 	.word	0x2d0c51dc
    65c8:	491fd10d 	.word	0x491fd10d
    65cc:	f02ea801 	.word	0xf02ea801
    65d0:	2010fac7 	.word	0x2010fac7
    65d4:	aa0121d0 	.word	0xaa0121d0
    65d8:	f7fb4b1a 	.word	0xf7fb4b1a
    65dc:	481bfe9f 	.word	0x481bfe9f
    65e0:	fa42f02e 	.word	0xfa42f02e
    65e4:	23802500 	.word	0x23802500
    65e8:	009b3601 	.word	0x009b3601
    65ec:	d1cf429e 	.word	0xd1cf429e
    65f0:	4917ac01 	.word	0x4917ac01
    65f4:	f02e1c20 	.word	0xf02e1c20
    65f8:	1c69fab3 	.word	0x1c69fab3
    65fc:	20100109 	.word	0x20100109
    6600:	4b101c22 	.word	0x4b101c22
    6604:	fe8af7fb 	.word	0xfe8af7fb
    6608:	2080e014 	.word	0x2080e014
    660c:	f02e0100 	.word	0xf02e0100
    6610:	6020faa3 	.word	0x6020faa3
    6614:	d00d2800 	.word	0xd00d2800
    6618:	25002680 	.word	0x25002680
    661c:	00b61c27 	.word	0x00b61c27
    6620:	00ab683c 	.word	0x00ab683c
    6624:	18e41c28 	.word	0x18e41c28
    6628:	fad6f02e 	.word	0xfad6f02e
    662c:	60203501 	.word	0x60203501
    6630:	d1f542b5 	.word	0xd1f542b5
    6634:	bcf0b011 	.word	0xbcf0b011
    6638:	4700bc01 	.word	0x4700bc01
    663c:	001afb28 	.word	0x001afb28
    6640:	001a7b07 	.word	0x001a7b07
    6644:	0000ffbd 	.word	0x0000ffbd
    6648:	001a7b1a 	.word	0x001a7b1a
    664c:	00003a98 	.word	0x00003a98
    6650:	001a7b2d 	.word	0x001a7b2d
    6654:	200cb500 	.word	0x200cb500
    6658:	fe3af7ff 	.word	0xfe3af7ff
    665c:	fb4cf010 	.word	0xfb4cf010
    6660:	4700bc01 	.word	0x4700bc01
    6664:	4b04b500 	.word	0x4b04b500
    6668:	00d222e3 	.word	0x00d222e3
    666c:	f0105898 	.word	0xf0105898
    6670:	bc01fb2b 	.word	0xbc01fb2b
    6674:	46c04700 	.word	0x46c04700
    6678:	001ba558 	.word	0x001ba558
    667c:	4c09b510 	.word	0x4c09b510
    6680:	f02e1c20 	.word	0xf02e1c20
    6684:	2800fa61 	.word	0x2800fa61
    6688:	4907d101 	.word	0x4907d101
    668c:	f02ee002 	.word	0xf02ee002
    6690:	1c21fa6f 	.word	0x1c21fa6f
    6694:	20734a05 	.word	0x20734a05
    6698:	fb7ef7ff 	.word	0xfb7ef7ff
    669c:	bc01bc10 	.word	0xbc01bc10
    66a0:	46c04700 	.word	0x46c04700
    66a4:	001a796f 	.word	0x001a796f
    66a8:	001a87ec 	.word	0x001a87ec
    66ac:	00173581 	.word	0x00173581
    66b0:	4c09b510 	.word	0x4c09b510
    66b4:	f02e1c20 	.word	0xf02e1c20
    66b8:	2800fa47 	.word	0x2800fa47
    66bc:	4907d101 	.word	0x4907d101
    66c0:	f02ee002 	.word	0xf02ee002
    66c4:	1c21fa55 	.word	0x1c21fa55
    66c8:	20cc4a05 	.word	0x20cc4a05
    66cc:	fb64f7ff 	.word	0xfb64f7ff
    66d0:	bc01bc10 	.word	0xbc01bc10
    66d4:	46c04700 	.word	0x46c04700
    66d8:	001a79b3 	.word	0x001a79b3
    66dc:	001a87ec 	.word	0x001a87ec
    66e0:	00173649 	.word	0x00173649
    66e4:	4903b500 	.word	0x4903b500
    66e8:	22002070 	.word	0x22002070
    66ec:	fb54f7ff 	.word	0xfb54f7ff
    66f0:	4700bc01 	.word	0x4700bc01
    66f4:	001a87ec 	.word	0x001a87ec
    66f8:	4c09b510 	.word	0x4c09b510
    66fc:	f02e1c20 	.word	0xf02e1c20
    6700:	2800fa23 	.word	0x2800fa23
    6704:	4907d101 	.word	0x4907d101
    6708:	f02ee002 	.word	0xf02ee002
    670c:	1c21fa31 	.word	0x1c21fa31
    6710:	48064a05 	.word	0x48064a05
    6714:	fb40f7ff 	.word	0xfb40f7ff
    6718:	bc01bc10 	.word	0xbc01bc10
    671c:	46c04700 	.word	0x46c04700
    6720:	001a797c 	.word	0x001a797c
    6724:	001a87ec 	.word	0x001a87ec
    6728:	00173879 	.word	0x00173879
    672c:	00000169 	.word	0x00000169
    6730:	4c09b510 	.word	0x4c09b510
    6734:	f02e1c20 	.word	0xf02e1c20
    6738:	2800fa07 	.word	0x2800fa07
    673c:	4907d101 	.word	0x4907d101
    6740:	f02ee002 	.word	0xf02ee002
    6744:	1c21fa15 	.word	0x1c21fa15
    6748:	20734a05 	.word	0x20734a05
    674c:	fb24f7ff 	.word	0xfb24f7ff
    6750:	bc01bc10 	.word	0xbc01bc10
    6754:	46c04700 	.word	0x46c04700
    6758:	001a796f 	.word	0x001a796f
    675c:	001a87ec 	.word	0x001a87ec
    6760:	001738b1 	.word	0x001738b1
    6764:	4c09b510 	.word	0x4c09b510
    6768:	f02e1c20 	.word	0xf02e1c20
    676c:	2800f9ed 	.word	0x2800f9ed
    6770:	4907d101 	.word	0x4907d101
    6774:	f02ee002 	.word	0xf02ee002
    6778:	1c21f9fb 	.word	0x1c21f9fb
    677c:	20744a05 	.word	0x20744a05
    6780:	fb0af7ff 	.word	0xfb0af7ff
    6784:	bc01bc10 	.word	0xbc01bc10
    6788:	46c04700 	.word	0x46c04700
    678c:	001a799a 	.word	0x001a799a
    6790:	001a87ec 	.word	0x001a87ec
    6794:	001739b5 	.word	0x001739b5
    6798:	4c09b510 	.word	0x4c09b510
    679c:	f02e1c20 	.word	0xf02e1c20
    67a0:	2800f9d3 	.word	0x2800f9d3
    67a4:	4907d101 	.word	0x4907d101
    67a8:	f02ee002 	.word	0xf02ee002
    67ac:	1c21f9e1 	.word	0x1c21f9e1
    67b0:	48064a05 	.word	0x48064a05
    67b4:	faf0f7ff 	.word	0xfaf0f7ff
    67b8:	bc01bc10 	.word	0xbc01bc10
    67bc:	46c04700 	.word	0x46c04700
    67c0:	001a79d8 	.word	0x001a79d8
    67c4:	001a87ec 	.word	0x001a87ec
    67c8:	00173a69 	.word	0x00173a69
    67cc:	000001a1 	.word	0x000001a1
    67d0:	f02eb500 	.word	0xf02eb500
    67d4:	2086f981 	.word	0x2086f981
    67d8:	49030040 	.word	0x49030040
    67dc:	f7ff4a03 	.word	0xf7ff4a03
    67e0:	bc01fadb 	.word	0xbc01fadb
    67e4:	46c04700 	.word	0x46c04700
    67e8:	001a79e4 	.word	0x001a79e4
    67ec:	00174a0d 	.word	0x00174a0d
    67f0:	4c09b510 	.word	0x4c09b510
    67f4:	f02e1c20 	.word	0xf02e1c20
    67f8:	2800f9a7 	.word	0x2800f9a7
    67fc:	4907d101 	.word	0x4907d101
    6800:	f02ee002 	.word	0xf02ee002
    6804:	1c21f9b5 	.word	0x1c21f9b5
    6808:	20714a05 	.word	0x20714a05
    680c:	fac4f7ff 	.word	0xfac4f7ff
    6810:	bc01bc10 	.word	0xbc01bc10
    6814:	46c04700 	.word	0x46c04700
    6818:	001a798b 	.word	0x001a798b
    681c:	001a87ec 	.word	0x001a87ec
    6820:	00174ae5 	.word	0x00174ae5
    6824:	1c01b500 	.word	0x1c01b500
    6828:	d0022800 	.word	0xd0022800
    682c:	f02e4802 	.word	0xf02e4802
    6830:	bc01f997 	.word	0xbc01f997
    6834:	46c04700 	.word	0x46c04700
    6838:	001ba954 	.word	0x001ba954
    683c:	1c04b510 	.word	0x1c04b510
    6840:	d0132800 	.word	0xd0132800
    6844:	f01c480b 	.word	0xf01c480b
    6848:	2800fad7 	.word	0x2800fad7
    684c:	480ad102 	.word	0x480ad102
    6850:	faa4f01c 	.word	0xfaa4f01c
    6854:	228c4b09 	.word	0x228c4b09
    6858:	589800d2 	.word	0x589800d2
    685c:	ff22f01b 	.word	0xff22f01b
    6860:	f7ff2009 	.word	0xf7ff2009
    6864:	1c20fd35 	.word	0x1c20fd35
    6868:	fd8af00f 	.word	0xfd8af00f
    686c:	bc01bc10 	.word	0xbc01bc10
    6870:	46c04700 	.word	0x46c04700
    6874:	001ba954 	.word	0x001ba954
    6878:	001bc7f4 	.word	0x001bc7f4
    687c:	001ba558 	.word	0x001ba558
    6880:	4c0ab510 	.word	0x4c0ab510
    6884:	f02e1c20 	.word	0xf02e1c20
    6888:	2800f95f 	.word	0x2800f95f
    688c:	4908d101 	.word	0x4908d101
    6890:	f02ee002 	.word	0xf02ee002
    6894:	1c21f96d 	.word	0x1c21f96d
    6898:	20724a06 	.word	0x20724a06
    689c:	fa7cf7ff 	.word	0xfa7cf7ff
    68a0:	f7fd2001 	.word	0xf7fd2001
    68a4:	bc10fd53 	.word	0xbc10fd53
    68a8:	4700bc01 	.word	0x4700bc01
    68ac:	001a79a6 	.word	0x001a79a6
    68b0:	001a87ec 	.word	0x001a87ec
    68b4:	00173599 	.word	0x00173599
    68b8:	4c0ab530 	.word	0x4c0ab530
    68bc:	21001c05 	.word	0x21001c05
    68c0:	4a091c20 	.word	0x4a091c20
    68c4:	f8f4f02e 	.word	0xf8f4f02e
    68c8:	db052800 	.word	0xdb052800
    68cc:	f8f8f02e 	.word	0xf8f8f02e
    68d0:	f7ff1c20 	.word	0xf7ff1c20
    68d4:	e002ffb3 	.word	0xe002ffb3
    68d8:	f7ff1c28 	.word	0xf7ff1c28
    68dc:	bc30ffd1 	.word	0xbc30ffd1
    68e0:	4700bc01 	.word	0x4700bc01
    68e4:	001ba8e4 	.word	0x001ba8e4
    68e8:	000001ff 	.word	0x000001ff
    68ec:	2800b500 	.word	0x2800b500
    68f0:	f007d001 	.word	0xf007d001
    68f4:	bc01fe8b 	.word	0xbc01fe8b
    68f8:	46c04700 	.word	0x46c04700
    68fc:	2802b500 	.word	0x2802b500
    6900:	f003d101 	.word	0xf003d101
    6904:	bc01f8cf 	.word	0xbc01f8cf
    6908:	46c04700 	.word	0x46c04700
    690c:	f02eb500 	.word	0xf02eb500
    6910:	2801f967 	.word	0x2801f967
    6914:	208cdc03 	.word	0x208cdc03
    6918:	49060040 	.word	0x49060040
    691c:	f02ee004 	.word	0xf02ee004
    6920:	208df963 	.word	0x208df963
    6924:	21a60040 	.word	0x21a60040
    6928:	23004a03 	.word	0x23004a03
    692c:	fc9ef7fd 	.word	0xfc9ef7fd
    6930:	4700bc01 	.word	0x4700bc01
    6934:	00000117 	.word	0x00000117
    6938:	00000101 	.word	0x00000101
    693c:	f02eb500 	.word	0xf02eb500
    6940:	208df957 	.word	0x208df957
    6944:	21aa0040 	.word	0x21aa0040
    6948:	23004a02 	.word	0x23004a02
    694c:	fc8ef7fd 	.word	0xfc8ef7fd
    6950:	4700bc01 	.word	0x4700bc01
    6954:	00000101 	.word	0x00000101
    6958:	4d13b530 	.word	0x4d13b530
    695c:	2303b085 	.word	0x2303b085
    6960:	1c284912 	.word	0x1c284912
    6964:	93002204 	.word	0x93002204
    6968:	f89ef02e 	.word	0xf89ef02e
    696c:	f01e206b 	.word	0xf01e206b
    6970:	1c01fab9 	.word	0x1c01fab9
    6974:	4c0f480e 	.word	0x4c0f480e
    6978:	480f9000 	.word	0x480f9000
    697c:	90014a0f 	.word	0x90014a0f
    6980:	4b10480f 	.word	0x4b10480f
    6984:	48109002 	.word	0x48109002
    6988:	90039504 	.word	0x90039504
    698c:	f02e1c20 	.word	0xf02e1c20
    6990:	2280f88b 	.word	0x2280f88b
    6994:	206a00d2 	.word	0x206a00d2
    6998:	23001c21 	.word	0x23001c21
    699c:	fc66f7fd 	.word	0xfc66f7fd
    69a0:	bc30b005 	.word	0xbc30b005
    69a4:	4700bc01 	.word	0x4700bc01
    69a8:	001afb8c 	.word	0x001afb8c
    69ac:	001a7b42 	.word	0x001a7b42
    69b0:	001a7b55 	.word	0x001a7b55
    69b4:	001afbcc 	.word	0x001afbcc
    69b8:	001a7d11 	.word	0x001a7d11
    69bc:	001a796a 	.word	0x001a796a
    69c0:	001a7b61 	.word	0x001a7b61
    69c4:	001a7b4f 	.word	0x001a7b4f
    69c8:	001a7d28 	.word	0x001a7d28
    69cc:	b083b570 	.word	0xb083b570
    69d0:	1c014b07 	.word	0x1c014b07
    69d4:	466a4668 	.word	0x466a4668
    69d8:	c070cb70 	.word	0xc070cb70
    69dc:	48052303 	.word	0x48052303
    69e0:	fba0f7ff 	.word	0xfba0f7ff
    69e4:	fa7ef01e 	.word	0xfa7ef01e
    69e8:	bc70b003 	.word	0xbc70b003
    69ec:	4708bc02 	.word	0x4708bc02
    69f0:	001a21d0 	.word	0x001a21d0
    69f4:	001babb8 	.word	0x001babb8
    69f8:	b082b530 	.word	0xb082b530
    69fc:	f01e206d 	.word	0xf01e206d
    6a00:	1c05fa71 	.word	0x1c05fa71
    6a04:	f948f7fb 	.word	0xf948f7fb
    6a08:	490b4c0a 	.word	0x490b4c0a
    6a0c:	480b1c02 	.word	0x480b1c02
    6a10:	1a439100 	.word	0x1a439100
    6a14:	1c299001 	.word	0x1c299001
    6a18:	f02e1c20 	.word	0xf02e1c20
    6a1c:	22a0f845 	.word	0x22a0f845
    6a20:	206c00d2 	.word	0x206c00d2
    6a24:	23001c21 	.word	0x23001c21
    6a28:	fc20f7fd 	.word	0xfc20f7fd
    6a2c:	bc30b002 	.word	0xbc30b002
    6a30:	4700bc01 	.word	0x4700bc01
    6a34:	001afb2c 	.word	0x001afb2c
    6a38:	0016e820 	.word	0x0016e820
    6a3c:	001bd800 	.word	0x001bd800
    6a40:	f7fbb500 	.word	0xf7fbb500
    6a44:	2000ff3d 	.word	0x2000ff3d
    6a48:	22002100 	.word	0x22002100
    6a4c:	f956f7fd 	.word	0xf956f7fd
    6a50:	f7ff2003 	.word	0xf7ff2003
    6a54:	bc01fc3d 	.word	0xbc01fc3d
    6a58:	46c04700 	.word	0x46c04700
    6a5c:	4c07b510 	.word	0x4c07b510
    6a60:	22041c01 	.word	0x22041c01
    6a64:	f7ff1c20 	.word	0xf7ff1c20
    6a68:	f002fb51 	.word	0xf002fb51
    6a6c:	6823fea1 	.word	0x6823fea1
    6a70:	009b4a03 	.word	0x009b4a03
    6a74:	bc105898 	.word	0xbc105898
    6a78:	4708bc02 	.word	0x4708bc02
    6a7c:	001ba9f0 	.word	0x001ba9f0
    6a80:	001a2160 	.word	0x001a2160
    6a84:	4a0fb510 	.word	0x4a0fb510
    6a88:	49104b0f 	.word	0x49104b0f
    6a8c:	220058d4 	.word	0x220058d4
    6a90:	429cc908 	.word	0x429cc908
    6a94:	3201d002 	.word	0x3201d002
    6a98:	d1f92a04 	.word	0xd1f92a04
    6a9c:	d5011814 	.word	0xd5011814
    6aa0:	e0022403 	.word	0xe0022403
    6aa4:	d9002c03 	.word	0xd9002c03
    6aa8:	4b082400 	.word	0x4b082400
    6aac:	58e000a4 	.word	0x58e000a4
    6ab0:	4b054a04 	.word	0x4b054a04
    6ab4:	f02e50d0 	.word	0xf02e50d0
    6ab8:	4b05f89f 	.word	0x4b05f89f
    6abc:	bc1058e0 	.word	0xbc1058e0
    6ac0:	4708bc02 	.word	0x4708bc02
    6ac4:	001ba558 	.word	0x001ba558
    6ac8:	00000494 	.word	0x00000494
    6acc:	001a2170 	.word	0x001a2170
    6ad0:	001a2180 	.word	0x001a2180
    6ad4:	200bb500 	.word	0x200bb500
    6ad8:	fbfaf7ff 	.word	0xfbfaf7ff
    6adc:	ff38f00f 	.word	0xff38f00f
    6ae0:	4700bc01 	.word	0x4700bc01
    6ae4:	490bb500 	.word	0x490bb500
    6ae8:	220023ca 	.word	0x220023ca
    6aec:	54ca009b 	.word	0x54ca009b
    6af0:	009b23b1 	.word	0x009b23b1
    6af4:	239854ca 	.word	0x239854ca
    6af8:	54ca009b 	.word	0x54ca009b
    6afc:	fd7cf002 	.word	0xfd7cf002
    6b00:	21e2208d 	.word	0x21e2208d
    6b04:	00490040 	.word	0x00490040
    6b08:	23004a03 	.word	0x23004a03
    6b0c:	fbaef7fd 	.word	0xfbaef7fd
    6b10:	4700bc01 	.word	0x4700bc01
    6b14:	001ba558 	.word	0x001ba558
    6b18:	00000101 	.word	0x00000101
    6b1c:	1c01b510 	.word	0x1c01b510
    6b20:	d0102800 	.word	0xd0102800
    6b24:	1c204c09 	.word	0x1c204c09
    6b28:	f81af02e 	.word	0xf81af02e
    6b2c:	f01c1c20 	.word	0xf01c1c20
    6b30:	2800f953 	.word	0x2800f953
    6b34:	4b06d104 	.word	0x4b06d104
    6b38:	239418e2 	.word	0x239418e2
    6b3c:	50d0009b 	.word	0x50d0009b
    6b40:	f7fd2000 	.word	0xf7fd2000
    6b44:	bc10f85f 	.word	0xbc10f85f
    6b48:	4700bc01 	.word	0x4700bc01
    6b4c:	001ba81c 	.word	0x001ba81c
    6b50:	fffffd3c 	.word	0xfffffd3c
    6b54:	1c01b510 	.word	0x1c01b510
    6b58:	d0112800 	.word	0xd0112800
    6b5c:	1c204c0a 	.word	0x1c204c0a
    6b60:	fffef02d 	.word	0xfffef02d
    6b64:	f01c1c20 	.word	0xf01c1c20
    6b68:	2800f947 	.word	0x2800f947
    6b6c:	4807d102 	.word	0x4807d102
    6b70:	f914f01c 	.word	0xf914f01c
    6b74:	f01b2000 	.word	0xf01b2000
    6b78:	2000fd95 	.word	0x2000fd95
    6b7c:	f842f7fd 	.word	0xf842f7fd
    6b80:	bc01bc10 	.word	0xbc01bc10
    6b84:	46c04700 	.word	0x46c04700
    6b88:	001ba7b8 	.word	0x001ba7b8
    6b8c:	001bc7f4 	.word	0x001bc7f4
    6b90:	4a11b500 	.word	0x4a11b500
    6b94:	00db23ca 	.word	0x00db23ca
    6b98:	2b0058d3 	.word	0x2b0058d3
    6b9c:	4b0fd009 	.word	0x4b0fd009
    6ba0:	2b0058d3 	.word	0x2b0058d3
    6ba4:	2006d005 	.word	0x2006d005
    6ba8:	ffb2f02d 	.word	0xffb2f02d
    6bac:	d00a2800 	.word	0xd00a2800
    6bb0:	4b09e00b 	.word	0x4b09e00b
    6bb4:	589b4a09 	.word	0x589b4a09
    6bb8:	d0062b00 	.word	0xd0062b00
    6bbc:	f02d2006 	.word	0xf02d2006
    6bc0:	2800ffa7 	.word	0x2800ffa7
    6bc4:	4806d001 	.word	0x4806d001
    6bc8:	4806e000 	.word	0x4806e000
    6bcc:	f81af7fd 	.word	0xf81af7fd
    6bd0:	fc96f7ff 	.word	0xfc96f7ff
    6bd4:	4700bc01 	.word	0x4700bc01
    6bd8:	001ba558 	.word	0x001ba558
    6bdc:	00000614 	.word	0x00000614
    6be0:	001ab088 	.word	0x001ab088
    6be4:	001ab064 	.word	0x001ab064
    6be8:	f7fbb500 	.word	0xf7fbb500
    6bec:	4802fe69 	.word	0x4802fe69
    6bf0:	f808f7fd 	.word	0xf808f7fd
    6bf4:	4700bc01 	.word	0x4700bc01
    6bf8:	001ab064 	.word	0x001ab064
    6bfc:	4d12b530 	.word	0x4d12b530
    6c00:	1c211c04 	.word	0x1c211c04
    6c04:	22061c28 	.word	0x22061c28
    6c08:	fa80f7ff 	.word	0xfa80f7ff
    6c0c:	d0102c00 	.word	0xd0102c00
    6c10:	f01b6828 	.word	0xf01b6828
    6c14:	1d28fd09 	.word	0x1d28fd09
    6c18:	f8eef01c 	.word	0xf8eef01c
    6c1c:	d1022800 	.word	0xd1022800
    6c20:	f01c480a 	.word	0xf01c480a
    6c24:	2000f8bb 	.word	0x2000f8bb
    6c28:	fd3cf01b 	.word	0xfd3cf01b
    6c2c:	f7fc2000 	.word	0xf7fc2000
    6c30:	4a07ffe9 	.word	0x4a07ffe9
    6c34:	009b2397 	.word	0x009b2397
    6c38:	490658d3 	.word	0x490658d3
    6c3c:	5858009b 	.word	0x5858009b
    6c40:	bc02bc30 	.word	0xbc02bc30
    6c44:	46c04708 	.word	0x46c04708
    6c48:	001ba7b4 	.word	0x001ba7b4
    6c4c:	001bc7f4 	.word	0x001bc7f4
    6c50:	001ba558 	.word	0x001ba558
    6c54:	001a2190 	.word	0x001a2190
    6c58:	1c01b510 	.word	0x1c01b510
    6c5c:	d0092800 	.word	0xd0092800
    6c60:	1c204c06 	.word	0x1c204c06
    6c64:	ff7cf02d 	.word	0xff7cf02d
    6c68:	f01e1c20 	.word	0xf01e1c20
    6c6c:	2000f98b 	.word	0x2000f98b
    6c70:	ffc8f7fc 	.word	0xffc8f7fc
    6c74:	bc01bc10 	.word	0xbc01bc10
    6c78:	46c04700 	.word	0x46c04700
    6c7c:	001ba880 	.word	0x001ba880
    6c80:	200ab500 	.word	0x200ab500
    6c84:	fb24f7ff 	.word	0xfb24f7ff
    6c88:	fe5ef005 	.word	0xfe5ef005
    6c8c:	4700bc01 	.word	0x4700bc01
    6c90:	4d0ab530 	.word	0x4d0ab530
    6c94:	22021c01 	.word	0x22021c01
    6c98:	f7ff1c28 	.word	0xf7ff1c28
    6c9c:	4b08fa37 	.word	0x4b08fa37
    6ca0:	18ed24de 	.word	0x18ed24de
    6ca4:	59280064 	.word	0x59280064
    6ca8:	ff96f002 	.word	0xff96f002
    6cac:	4a05592b 	.word	0x4a05592b
    6cb0:	5898009b 	.word	0x5898009b
    6cb4:	bc02bc30 	.word	0xbc02bc30
    6cb8:	46c04708 	.word	0x46c04708
    6cbc:	001ba714 	.word	0x001ba714
    6cc0:	fffffe44 	.word	0xfffffe44
    6cc4:	001a21a8 	.word	0x001a21a8
    6cc8:	4c0db510 	.word	0x4c0db510
    6ccc:	22081c01 	.word	0x22081c01
    6cd0:	f7ff1c20 	.word	0xf7ff1c20
    6cd4:	6824fa1b 	.word	0x6824fa1b
    6cd8:	d0012c01 	.word	0xd0012c01
    6cdc:	d1012c05 	.word	0xd1012c05
    6ce0:	e0002004 	.word	0xe0002004
    6ce4:	f0022003 	.word	0xf0022003
    6ce8:	4a06ff85 	.word	0x4a06ff85
    6cec:	005b23e4 	.word	0x005b23e4
    6cf0:	490558d3 	.word	0x490558d3
    6cf4:	5858009b 	.word	0x5858009b
    6cf8:	bc02bc10 	.word	0xbc02bc10
    6cfc:	46c04708 	.word	0x46c04708
    6d00:	001ba720 	.word	0x001ba720
    6d04:	001ba558 	.word	0x001ba558
    6d08:	001a21b0 	.word	0x001a21b0
    6d0c:	2800b500 	.word	0x2800b500
    6d10:	f010d001 	.word	0xf010d001
    6d14:	bc01ff6d 	.word	0xbc01ff6d
    6d18:	46c04700 	.word	0x46c04700
    6d1c:	f010b500 	.word	0xf010b500
    6d20:	bc01ffc7 	.word	0xbc01ffc7
    6d24:	46c04700 	.word	0x46c04700
    6d28:	4d09b530 	.word	0x4d09b530
    6d2c:	f0026cec 	.word	0xf0026cec
    6d30:	2c01fd61 	.word	0x2c01fd61
    6d34:	6cebd109 	.word	0x6cebd109
    6d38:	d1062b00 	.word	0xd1062b00
    6d3c:	21d5208c 	.word	0x21d5208c
    6d40:	00490040 	.word	0x00490040
    6d44:	f7fd4a03 	.word	0xf7fd4a03
    6d48:	bc30fa91 	.word	0xbc30fa91
    6d4c:	4700bc01 	.word	0x4700bc01
    6d50:	001ba558 	.word	0x001ba558
    6d54:	00000101 	.word	0x00000101
    6d58:	4e62b5f0 	.word	0x4e62b5f0
    6d5c:	00db23c1 	.word	0x00db23c1
    6d60:	b08d58f3 	.word	0xb08d58f3
    6d64:	d0362b00 	.word	0xd0362b00
    6d68:	00db23e3 	.word	0x00db23e3
    6d6c:	58f34c5e 	.word	0x58f34c5e
    6d70:	00ad258e 	.word	0x00ad258e
    6d74:	495d681a 	.word	0x495d681a
    6d78:	f02d1c20 	.word	0xf02d1c20
    6d7c:	5b73fe95 	.word	0x5b73fe95
    6d80:	2109201c 	.word	0x2109201c
    6d84:	f7fb1c22 	.word	0xf7fb1c22
    6d88:	4b59fb57 	.word	0x4b59fb57
    6d8c:	681a4959 	.word	0x681a4959
    6d90:	f02d1c20 	.word	0xf02d1c20
    6d94:	5b73fe89 	.word	0x5b73fe89
    6d98:	210a201c 	.word	0x210a201c
    6d9c:	f7fb1c22 	.word	0xf7fb1c22
    6da0:	4b55fb4b 	.word	0x4b55fb4b
    6da4:	681a4955 	.word	0x681a4955
    6da8:	f02d1c20 	.word	0xf02d1c20
    6dac:	5b73fe7d 	.word	0x5b73fe7d
    6db0:	1c22210b 	.word	0x1c22210b
    6db4:	f7fb201c 	.word	0xf7fb201c
    6db8:	2001fb3f 	.word	0x2001fb3f
    6dbc:	ff20f02d 	.word	0xff20f02d
    6dc0:	1c02494f 	.word	0x1c02494f
    6dc4:	f02d1c20 	.word	0xf02d1c20
    6dc8:	5b73fe6f 	.word	0x5b73fe6f
    6dcc:	210c201c 	.word	0x210c201c
    6dd0:	f7fb1c22 	.word	0xf7fb1c22
    6dd4:	4a43fb31 	.word	0x4a43fb31
    6dd8:	58d34b4a 	.word	0x58d34b4a
    6ddc:	d1242b01 	.word	0xd1242b01
    6de0:	260027c0 	.word	0x260027c0
    6de4:	4a3f00ff 	.word	0x4a3f00ff
    6de8:	59d32100 	.word	0x59d32100
    6dec:	009c910c 	.word	0x009c910c
    6df0:	006418e4 	.word	0x006418e4
    6df4:	a90c1934 	.word	0xa90c1934
    6df8:	1c202204 	.word	0x1c202204
    6dfc:	ff04f02d 	.word	0xff04f02d
    6e00:	49424d41 	.word	0x49424d41
    6e04:	1c229b0c 	.word	0x1c229b0c
    6e08:	f02d1c28 	.word	0xf02d1c28
    6e0c:	2300fe4d 	.word	0x2300fe4d
    6e10:	4a34752b 	.word	0x4a34752b
    6e14:	3601238e 	.word	0x3601238e
    6e18:	5ad3009b 	.word	0x5ad3009b
    6e1c:	20400131 	.word	0x20400131
    6e20:	f7fb1c2a 	.word	0xf7fb1c2a
    6e24:	2e0afa7b 	.word	0x2e0afa7b
    6e28:	4a2ed1dd 	.word	0x4a2ed1dd
    6e2c:	58d34b35 	.word	0x58d34b35
    6e30:	d1532b02 	.word	0xd1532b02
    6e34:	4a3621c0 	.word	0x4a3621c0
    6e38:	00c92300 	.word	0x00c92300
    6e3c:	91029303 	.word	0x91029303
    6e40:	9a029201 	.word	0x9a029201
    6e44:	23004927 	.word	0x23004927
    6e48:	588b930c 	.word	0x588b930c
    6e4c:	18d2009a 	.word	0x18d2009a
    6e50:	00529b03 	.word	0x00529b03
    6e54:	f02d189f 	.word	0xf02d189f
    6e58:	4287fedb 	.word	0x4287fedb
    6e5c:	492ddb05 	.word	0x492ddb05
    6e60:	48291c3a 	.word	0x48291c3a
    6e64:	fe20f02d 	.word	0xfe20f02d
    6e68:	9901e029 	.word	0x9901e029
    6e6c:	585b00bb 	.word	0x585b00bb
    6e70:	141d685b 	.word	0x141d685b
    6e74:	2b011e6b 	.word	0x2b011e6b
    6e78:	2d04d901 	.word	0x2d04d901
    6e7c:	a90cd10a 	.word	0xa90cd10a
    6e80:	1c381c2a 	.word	0x1c381c2a
    6e84:	fec8f02d 	.word	0xfec8f02d
    6e88:	4923481f 	.word	0x4923481f
    6e8c:	95009b0c 	.word	0x95009b0c
    6e90:	e0121c3a 	.word	0xe0121c3a
    6e94:	d8012d1d 	.word	0xd8012d1d
    6e98:	e0001c2e 	.word	0xe0001c2e
    6e9c:	466c261d 	.word	0x466c261d
    6ea0:	1c213412 	.word	0x1c213412
    6ea4:	1c381c32 	.word	0x1c381c32
    6ea8:	feb6f02d 	.word	0xfeb6f02d
    6eac:	48162200 	.word	0x48162200
    6eb0:	55a2491a 	.word	0x55a2491a
    6eb4:	95001c23 	.word	0x95001c23
    6eb8:	f02d1c3a 	.word	0xf02d1c3a
    6ebc:	9b03fdf5 	.word	0x9b03fdf5
    6ec0:	33014808 	.word	0x33014808
    6ec4:	01199303 	.word	0x01199303
    6ec8:	009b238e 	.word	0x009b238e
    6ecc:	4a0e5ac3 	.word	0x4a0e5ac3
    6ed0:	f7fb2010 	.word	0xf7fb2010
    6ed4:	9903fa23 	.word	0x9903fa23
    6ed8:	d1b2290a 	.word	0xd1b2290a
    6edc:	bcf0b00d 	.word	0xbcf0b00d
    6ee0:	4700bc01 	.word	0x4700bc01
    6ee4:	001ba558 	.word	0x001ba558
    6ee8:	001aff64 	.word	0x001aff64
    6eec:	001a7b65 	.word	0x001a7b65
    6ef0:	000070c0 	.word	0x000070c0
    6ef4:	001a7b6f 	.word	0x001a7b6f
    6ef8:	000071e8 	.word	0x000071e8
    6efc:	001a7b78 	.word	0x001a7b78
    6f00:	001a7b81 	.word	0x001a7b81
    6f04:	000005fc 	.word	0x000005fc
    6f08:	001afc8c 	.word	0x001afc8c
    6f0c:	001a7b8a 	.word	0x001a7b8a
    6f10:	ffc898ec 	.word	0xffc898ec
    6f14:	001a7ba0 	.word	0x001a7ba0
    6f18:	001a7bc4 	.word	0x001a7bc4
    6f1c:	001a7bd4 	.word	0x001a7bd4
    6f20:	b083b5f0 	.word	0xb083b5f0
    6f24:	fdd8f02d 	.word	0xfdd8f02d
    6f28:	4a6d4b6c 	.word	0x4a6d4b6c
    6f2c:	589b1c07 	.word	0x589b1c07
    6f30:	d0182b00 	.word	0xd0182b00
    6f34:	011b23c0 	.word	0x011b23c0
    6f38:	401a1c02 	.word	0x401a1c02
    6f3c:	d112429a 	.word	0xd112429a
    6f40:	681b4b68 	.word	0x681b4b68
    6f44:	d10e2b00 	.word	0xd10e2b00
    6f48:	49684b67 	.word	0x49684b67
    6f4c:	4b68681a 	.word	0x4b68681a
    6f50:	681b3a01 	.word	0x681b3a01
    6f54:	3b012000 	.word	0x3b012000
    6f58:	21009100 	.word	0x21009100
    6f5c:	f96ef7fb 	.word	0xf96ef7fb
    6f60:	23014a64 	.word	0x23014a64
    6f64:	4b636013 	.word	0x4b636013
    6f68:	2b00681b 	.word	0x2b00681b
    6f6c:	2500d101 	.word	0x2500d101
    6f70:	23c0e00e 	.word	0x23c0e00e
    6f74:	1c3a011b 	.word	0x1c3a011b
    6f78:	429a401a 	.word	0x429a401a
    6f7c:	4b59d104 	.word	0x4b59d104
    6f80:	2b00681b 	.word	0x2b00681b
    6f84:	e2b6d100 	.word	0xe2b6d100
    6f88:	23004a5a 	.word	0x23004a5a
    6f8c:	25016013 	.word	0x25016013
    6f90:	f02d2006 	.word	0xf02d2006
    6f94:	2800fdbd 	.word	0x2800fdbd
    6f98:	2003d04e 	.word	0x2003d04e
    6f9c:	fdb8f02d 	.word	0xfdb8f02d
    6fa0:	d00b2800 	.word	0xd00b2800
    6fa4:	681b4b54 	.word	0x681b4b54
    6fa8:	d1472b00 	.word	0xd1472b00
    6fac:	23e8494b 	.word	0x23e8494b
    6fb0:	58ca005b 	.word	0x58ca005b
    6fb4:	41424250 	.word	0x41424250
    6fb8:	e02050ca 	.word	0xe02050ca
    6fbc:	f02d2001 	.word	0xf02d2001
    6fc0:	2800fda7 	.word	0x2800fda7
    6fc4:	4b4cd00d 	.word	0x4b4cd00d
    6fc8:	29006819 	.word	0x29006819
    6fcc:	4a43d136 	.word	0x4a43d136
    6fd0:	33016ed3 	.word	0x33016ed3
    6fd4:	2b0266d3 	.word	0x2b0266d3
    6fd8:	66d1dd00 	.word	0x66d1dd00
    6fdc:	6edb4b3f 	.word	0x6edb4b3f
    6fe0:	2004e023 	.word	0x2004e023
    6fe4:	fd94f02d 	.word	0xfd94f02d
    6fe8:	d00b2800 	.word	0xd00b2800
    6fec:	681b4b42 	.word	0x681b4b42
    6ff0:	d1232b00 	.word	0xd1232b00
    6ff4:	6dda4b39 	.word	0x6dda4b39
    6ff8:	414a4251 	.word	0x414a4251
    6ffc:	2a0065da 	.word	0x2a0065da
    7000:	e014d116 	.word	0xe014d116
    7004:	f02d2002 	.word	0xf02d2002
    7008:	4b3bfd83 	.word	0x4b3bfd83
    700c:	d0142800 	.word	0xd0142800
    7010:	2b00681b 	.word	0x2b00681b
    7014:	4931d112 	.word	0x4931d112
    7018:	580a4838 	.word	0x580a4838
    701c:	dc022a01 	.word	0xdc022a01
    7020:	41534253 	.word	0x41534253
    7024:	4b2d500b 	.word	0x4b2d500b
    7028:	2b006ddb 	.word	0x2b006ddb
    702c:	2501d100 	.word	0x2501d100
    7030:	23014a31 	.word	0x23014a31
    7034:	e0016013 	.word	0xe0016013
    7038:	60184b2f 	.word	0x60184b2f
    703c:	f02d1c38 	.word	0xf02d1c38
    7040:	23c0fdef 	.word	0x23c0fdef
    7044:	403b009b 	.word	0x403b009b
    7048:	9a019301 	.word	0x9a019301
    704c:	009b2380 	.word	0x009b2380
    7050:	429a9002 	.word	0x429a9002
    7054:	2601d101 	.word	0x2601d101
    7058:	9b02e00d 	.word	0x9b02e00d
    705c:	d0012b00 	.word	0xd0012b00
    7060:	e2462600 	.word	0xe2462600
    7064:	403b23ff 	.word	0x403b23ff
    7068:	1c1e3b0f 	.word	0x1c1e3b0f
    706c:	41961e72 	.word	0x41961e72
    7070:	d1002e00 	.word	0xd1002e00
    7074:	2006e23d 	.word	0x2006e23d
    7078:	fd4af02d 	.word	0xfd4af02d
    707c:	d1002800 	.word	0xd1002800
    7080:	200be237 	.word	0x200be237
    7084:	fd44f02d 	.word	0xfd44f02d
    7088:	d1002800 	.word	0xd1002800
    708c:	4b1ce231 	.word	0x4b1ce231
    7090:	2b00681b 	.word	0x2b00681b
    7094:	2501d100 	.word	0x2501d100
    7098:	4b192401 	.word	0x4b192401
    709c:	2d00601c 	.word	0x2d00601c
    70a0:	f7fbd001 	.word	0xf7fbd001
    70a4:	2c00fc0d 	.word	0x2c00fc0d
    70a8:	e224d000 	.word	0xe224d000
    70ac:	22e84b0b 	.word	0x22e84b0b
    70b0:	589b0052 	.word	0x589b0052
    70b4:	d0272b00 	.word	0xd0272b00
    70b8:	681b4b0a 	.word	0x681b4b0a
    70bc:	d1232b00 	.word	0xd1232b00
    70c0:	f02d2006 	.word	0xf02d2006
    70c4:	2800fd25 	.word	0x2800fd25
    70c8:	2e00d01e 	.word	0x2e00d01e
    70cc:	4b0dd01c 	.word	0x4b0dd01c
    70d0:	2b00681b 	.word	0x2b00681b
    70d4:	2001d118 	.word	0x2001d118
    70d8:	46c0e017 	.word	0x46c0e017
    70dc:	001ba558 	.word	0x001ba558
    70e0:	0000046c 	.word	0x0000046c
    70e4:	001aff50 	.word	0x001aff50
    70e8:	001af758 	.word	0x001af758
    70ec:	00000101 	.word	0x00000101
    70f0:	001af75c 	.word	0x001af75c
    70f4:	001afb24 	.word	0x001afb24
    70f8:	001afb20 	.word	0x001afb20
    70fc:	0000053c 	.word	0x0000053c
    7100:	001afb1c 	.word	0x001afb1c
    7104:	001ba54c 	.word	0x001ba54c
    7108:	f0052000 	.word	0xf0052000
    710c:	2800fd43 	.word	0x2800fd43
    7110:	e1f0d000 	.word	0xe1f0d000
    7114:	6ddb4bb4 	.word	0x6ddb4bb4
    7118:	d1002b00 	.word	0xd1002b00
    711c:	4bb3e1eb 	.word	0x4bb3e1eb
    7120:	681b1f1a 	.word	0x681b1f1a
    7124:	d0004293 	.word	0xd0004293
    7128:	4ab1e1e5 	.word	0x4ab1e1e5
    712c:	2b006813 	.word	0x2b006813
    7130:	6813d002 	.word	0x6813d002
    7134:	d11e2b01 	.word	0xd11e2b01
    7138:	f02d2006 	.word	0xf02d2006
    713c:	2800fce9 	.word	0x2800fce9
    7140:	4ba9d003 	.word	0x4ba9d003
    7144:	2b026edb 	.word	0x2b026edb
    7148:	4ba7d00d 	.word	0x4ba7d00d
    714c:	2b016edb 	.word	0x2b016edb
    7150:	2380d111 	.word	0x2380d111
    7154:	009b9a01 	.word	0x009b9a01
    7158:	d100429a 	.word	0xd100429a
    715c:	4ba5e0e1 	.word	0x4ba5e0e1
    7160:	2b00681b 	.word	0x2b00681b
    7164:	2e00d107 	.word	0x2e00d107
    7168:	23ffd103 	.word	0x23ffd103
    716c:	2b0f403b 	.word	0x2b0f403b
    7170:	f005d101 	.word	0xf005d101
    7174:	2380fa99 	.word	0x2380fa99
    7178:	005b9a01 	.word	0x005b9a01
    717c:	d000429a 	.word	0xd000429a
    7180:	4b9ce0cf 	.word	0x4b9ce0cf
    7184:	2b00681b 	.word	0x2b00681b
    7188:	4b97d004 	.word	0x4b97d004
    718c:	2b006e5b 	.word	0x2b006e5b
    7190:	e0c6d100 	.word	0xe0c6d100
    7194:	4a984b94 	.word	0x4a984b94
    7198:	2b00589b 	.word	0x2b00589b
    719c:	2001d002 	.word	0x2001d002
    71a0:	f8cef007 	.word	0xf8cef007
    71a4:	68134a92 	.word	0x68134a92
    71a8:	d0022b00 	.word	0xd0022b00
    71ac:	2b016813 	.word	0x2b016813
    71b0:	2006d159 	.word	0x2006d159
    71b4:	fcacf02d 	.word	0xfcacf02d
    71b8:	d1082800 	.word	0xd1082800
    71bc:	681b4b8f 	.word	0x681b4b8f
    71c0:	d1042b00 	.word	0xd1042b00
    71c4:	fd30f02d 	.word	0xfd30f02d
    71c8:	28000400 	.word	0x28000400
    71cc:	2e00d005 	.word	0x2e00d005
    71d0:	23ffd110 	.word	0x23ffd110
    71d4:	2b0f403b 	.word	0x2b0f403b
    71d8:	9b02d00c 	.word	0x9b02d00c
    71dc:	d1032b00 	.word	0xd1032b00
    71e0:	681b4b87 	.word	0x681b4b87
    71e4:	dd3e2b01 	.word	0xdd3e2b01
    71e8:	22da4b7f 	.word	0x22da4b7f
    71ec:	589b0052 	.word	0x589b0052
    71f0:	d0382b00 	.word	0xd0382b00
    71f4:	33fc4b7c 	.word	0x33fc4b7c
    71f8:	2b006c1b 	.word	0x2b006c1b
    71fc:	f004d001 	.word	0xf004d001
    7200:	4b79ffa1 	.word	0x4b79ffa1
    7204:	6c1b33fc 	.word	0x6c1b33fc
    7208:	d1012b01 	.word	0xd1012b01
    720c:	feeaf004 	.word	0xfeeaf004
    7210:	23ba4a75 	.word	0x23ba4a75
    7214:	58d300db 	.word	0x58d300db
    7218:	d1222b00 	.word	0xd1222b00
    721c:	58d34b79 	.word	0x58d34b79
    7220:	d11e2b00 	.word	0xd11e2b00
    7224:	58d34b78 	.word	0x58d34b78
    7228:	d11a2b00 	.word	0xd11a2b00
    722c:	00db23bc 	.word	0x00db23bc
    7230:	2b0058d3 	.word	0x2b0058d3
    7234:	4b75d115 	.word	0x4b75d115
    7238:	2b0058d3 	.word	0x2b0058d3
    723c:	23bdd111 	.word	0x23bdd111
    7240:	58d300db 	.word	0x58d300db
    7244:	d10c2b00 	.word	0xd10c2b00
    7248:	58d34b71 	.word	0x58d34b71
    724c:	d1082b00 	.word	0xd1082b00
    7250:	00db23be 	.word	0x00db23be
    7254:	2b0058d3 	.word	0x2b0058d3
    7258:	4b6ed103 	.word	0x4b6ed103
    725c:	2b0058d3 	.word	0x2b0058d3
    7260:	f004d001 	.word	0xf004d001
    7264:	4b60ff3b 	.word	0x4b60ff3b
    7268:	005222d0 	.word	0x005222d0
    726c:	2b00589b 	.word	0x2b00589b
    7270:	f004d001 	.word	0xf004d001
    7274:	4a5cfcc7 	.word	0x4a5cfcc7
    7278:	2b006813 	.word	0x2b006813
    727c:	23d6d00e 	.word	0x23d6d00e
    7280:	58d3005b 	.word	0x58d3005b
    7284:	d0092b00 	.word	0xd0092b00
    7288:	2a009a02 	.word	0x2a009a02
    728c:	2006d106 	.word	0x2006d106
    7290:	fc3ef02d 	.word	0xfc3ef02d
    7294:	d1012800 	.word	0xd1012800
    7298:	fbe2f004 	.word	0xfbe2f004
    729c:	22d84b52 	.word	0x22d84b52
    72a0:	589b0052 	.word	0x589b0052
    72a4:	d1012b01 	.word	0xd1012b01
    72a8:	d11b2e00 	.word	0xd11b2e00
    72ac:	2b009b02 	.word	0x2b009b02
    72b0:	4b53d103 	.word	0x4b53d103
    72b4:	2b01681b 	.word	0x2b01681b
    72b8:	4b4bdd05 	.word	0x4b4bdd05
    72bc:	005222da 	.word	0x005222da
    72c0:	2b00589b 	.word	0x2b00589b
    72c4:	2006d10e 	.word	0x2006d10e
    72c8:	fc22f02d 	.word	0xfc22f02d
    72cc:	d1032800 	.word	0xd1032800
    72d0:	681b4b48 	.word	0x681b4b48
    72d4:	d1072b01 	.word	0xd1072b01
    72d8:	22d84b43 	.word	0x22d84b43
    72dc:	589b0052 	.word	0x589b0052
    72e0:	d1012b02 	.word	0xd1012b02
    72e4:	e01a2001 	.word	0xe01a2001
    72e8:	fc9ef02d 	.word	0xfc9ef02d
    72ec:	28000400 	.word	0x28000400
    72f0:	2e00d00e 	.word	0x2e00d00e
    72f4:	4a3cd00c 	.word	0x4a3cd00c
    72f8:	005b23d8 	.word	0x005b23d8
    72fc:	2b0058d3 	.word	0x2b0058d3
    7300:	1c13d006 	.word	0x1c13d006
    7304:	6c1b33fc 	.word	0x6c1b33fc
    7308:	d0012b01 	.word	0xd0012b01
    730c:	e0062002 	.word	0xe0062002
    7310:	22d84b35 	.word	0x22d84b35
    7314:	589b0052 	.word	0x589b0052
    7318:	d1022b02 	.word	0xd1022b02
    731c:	f0042000 	.word	0xf0042000
    7320:	4b34f98f 	.word	0x4b34f98f
    7324:	2b00681b 	.word	0x2b00681b
    7328:	2006d12f 	.word	0x2006d12f
    732c:	fbf0f02d 	.word	0xfbf0f02d
    7330:	d12a2800 	.word	0xd12a2800
    7334:	9a012380 	.word	0x9a012380
    7338:	429a005b 	.word	0x429a005b
    733c:	4b2ad005 	.word	0x4b2ad005
    7340:	2b016e1b 	.word	0x2b016e1b
    7344:	2b03d021 	.word	0x2b03d021
    7348:	4b27d01f 	.word	0x4b27d01f
    734c:	3b026e1b 	.word	0x3b026e1b
    7350:	d8042b01 	.word	0xd8042b01
    7354:	f02d2069 	.word	0xf02d2069
    7358:	2801fc3f 	.word	0x2801fc3f
    735c:	f003d015 	.word	0xf003d015
    7360:	f003f829 	.word	0xf003f829
    7364:	f006faf5 	.word	0xf006faf5
    7368:	4b1ffde3 	.word	0x4b1ffde3
    736c:	00d2228e 	.word	0x00d2228e
    7370:	2b00589b 	.word	0x2b00589b
    7374:	9b02d009 	.word	0x9b02d009
    7378:	d1062b00 	.word	0xd1062b00
    737c:	9a012380 	.word	0x9a012380
    7380:	429a005b 	.word	0x429a005b
    7384:	f003d101 	.word	0xf003d101
    7388:	4c17fca1 	.word	0x4c17fca1
    738c:	33fc1c23 	.word	0x33fc1c23
    7390:	2b006edb 	.word	0x2b006edb
    7394:	4b17d040 	.word	0x4b17d040
    7398:	2b00681b 	.word	0x2b00681b
    739c:	2006d13c 	.word	0x2006d13c
    73a0:	fbb6f02d 	.word	0xfbb6f02d
    73a4:	d1132800 	.word	0xd1132800
    73a8:	9a012380 	.word	0x9a012380
    73ac:	429a005b 	.word	0x429a005b
    73b0:	6e23d004 	.word	0x6e23d004
    73b4:	d00b2b01 	.word	0xd00b2b01
    73b8:	d0092b03 	.word	0xd0092b03
    73bc:	6e1b4b0a 	.word	0x6e1b4b0a
    73c0:	2b013b02 	.word	0x2b013b02
    73c4:	2069d80a 	.word	0x2069d80a
    73c8:	fc06f02d 	.word	0xfc06f02d
    73cc:	d1052801 	.word	0xd1052801
    73d0:	22be4b05 	.word	0x22be4b05
    73d4:	589b0052 	.word	0x589b0052
    73d8:	d11d2b00 	.word	0xd11d2b00
    73dc:	21002000 	.word	0x21002000
    73e0:	f0032200 	.word	0xf0032200
    73e4:	e02dff4b 	.word	0xe02dff4b
    73e8:	001ba558 	.word	0x001ba558
    73ec:	00003214 	.word	0x00003214
    73f0:	001aff50 	.word	0x001aff50
    73f4:	000085a0 	.word	0x000085a0
    73f8:	0000049c 	.word	0x0000049c
    73fc:	001ba54c 	.word	0x001ba54c
    7400:	000072d4 	.word	0x000072d4
    7404:	000005d4 	.word	0x000005d4
    7408:	000005dc 	.word	0x000005dc
    740c:	000005e4 	.word	0x000005e4
    7410:	000005ec 	.word	0x000005ec
    7414:	000005f4 	.word	0x000005f4
    7418:	1c234c39 	.word	0x1c234c39
    741c:	6edb33fc 	.word	0x6edb33fc
    7420:	d00f2b00 	.word	0xd00f2b00
    7424:	681b4b37 	.word	0x681b4b37
    7428:	d10b2b00 	.word	0xd10b2b00
    742c:	f02d2006 	.word	0xf02d2006
    7430:	2800fb6f 	.word	0x2800fb6f
    7434:	23bed006 	.word	0x23bed006
    7438:	58e3005b 	.word	0x58e3005b
    743c:	d1012b01 	.word	0xd1012b01
    7440:	feeef003 	.word	0xfeeef003
    7444:	1c234c2e 	.word	0x1c234c2e
    7448:	6f1b33fc 	.word	0x6f1b33fc
    744c:	dd242b00 	.word	0xdd242b00
    7450:	681b4b2c 	.word	0x681b4b2c
    7454:	d1202b00 	.word	0xd1202b00
    7458:	f02d2006 	.word	0xf02d2006
    745c:	2800fb59 	.word	0x2800fb59
    7460:	2380d113 	.word	0x2380d113
    7464:	005b9a01 	.word	0x005b9a01
    7468:	d004429a 	.word	0xd004429a
    746c:	2b016e23 	.word	0x2b016e23
    7470:	2b03d00b 	.word	0x2b03d00b
    7474:	4b22d009 	.word	0x4b22d009
    7478:	3b026e1b 	.word	0x3b026e1b
    747c:	d80a2b01 	.word	0xd80a2b01
    7480:	f02d2069 	.word	0xf02d2069
    7484:	2801fba9 	.word	0x2801fba9
    7488:	4b1dd105 	.word	0x4b1dd105
    748c:	005222be 	.word	0x005222be
    7490:	2b00589b 	.word	0x2b00589b
    7494:	f003d101 	.word	0xf003d101
    7498:	4b19faed 	.word	0x4b19faed
    749c:	005222ca 	.word	0x005222ca
    74a0:	2b00589b 	.word	0x2b00589b
    74a4:	9b02dd08 	.word	0x9b02dd08
    74a8:	d1032b00 	.word	0xd1032b00
    74ac:	681b4b16 	.word	0x681b4b16
    74b0:	dd012b01 	.word	0xdd012b01
    74b4:	fc7ef003 	.word	0xfc7ef003
    74b8:	fc4ef7ff 	.word	0xfc4ef7ff
    74bc:	681b4b13 	.word	0x681b4b13
    74c0:	d0182b00 	.word	0xd0182b00
    74c4:	2b114a12 	.word	0x2b114a12
    74c8:	6c55dd01 	.word	0x6c55dd01
    74cc:	009be001 	.word	0x009be001
    74d0:	f01c58d5 	.word	0xf01c58d5
    74d4:	4c0ffc37 	.word	0x4c0ffc37
    74d8:	1c2b1c02 	.word	0x1c2b1c02
    74dc:	1c20490e 	.word	0x1c20490e
    74e0:	fae2f02d 	.word	0xfae2f02d
    74e4:	21002000 	.word	0x21002000
    74e8:	4b0c1c22 	.word	0x4b0c1c22
    74ec:	ffa4f7fa 	.word	0xffa4f7fa
    74f0:	2400e001 	.word	0x2400e001
    74f4:	b003e5d1 	.word	0xb003e5d1
    74f8:	bc01bcf0 	.word	0xbc01bcf0
    74fc:	46c04700 	.word	0x46c04700
    7500:	001ba558 	.word	0x001ba558
    7504:	000085a0 	.word	0x000085a0
    7508:	000072d4 	.word	0x000072d4
    750c:	001bd7f4 	.word	0x001bd7f4
    7510:	001af6e4 	.word	0x001af6e4
    7514:	001aff64 	.word	0x001aff64
    7518:	001a7be4 	.word	0x001a7be4
    751c:	0000b3bd 	.word	0x0000b3bd
    7520:	200ab510 	.word	0x200ab510
    7524:	fb84f02d 	.word	0xfb84f02d
    7528:	4c134912 	.word	0x4c134912
    752c:	d00e2800 	.word	0xd00e2800
    7530:	005a680b 	.word	0x005a680b
    7534:	009218d2 	.word	0x009218d2
    7538:	689318a2 	.word	0x689318a2
    753c:	d0162b00 	.word	0xd0162b00
    7540:	005a680b 	.word	0x005a680b
    7544:	009218d2 	.word	0x009218d2
    7548:	689318a2 	.word	0x689318a2
    754c:	680be00d 	.word	0x680be00d
    7550:	18d2005a 	.word	0x18d2005a
    7554:	00923201 	.word	0x00923201
    7558:	2b0058a3 	.word	0x2b0058a3
    755c:	680bd007 	.word	0x680bd007
    7560:	18d2005a 	.word	0x18d2005a
    7564:	00923201 	.word	0x00923201
    7568:	f0005913 	.word	0xf0005913
    756c:	bc10fc1a 	.word	0xbc10fc1a
    7570:	4700bc01 	.word	0x4700bc01
    7574:	001aff50 	.word	0x001aff50
    7578:	001aafa4 	.word	0x001aafa4
    757c:	4b1cb510 	.word	0x4b1cb510
    7580:	681bb081 	.word	0x681bb081
    7584:	d1082b04 	.word	0xd1082b04
    7588:	4b1b4a1a 	.word	0x4b1b4a1a
    758c:	f02d58d0 	.word	0xf02d58d0
    7590:	2800fb4f 	.word	0x2800fb4f
    7594:	f02dd001 	.word	0xf02dd001
    7598:	4b16fb4f 	.word	0x4b16fb4f
    759c:	00d222cb 	.word	0x00d222cb
    75a0:	2b00589b 	.word	0x2b00589b
    75a4:	4b12d01f 	.word	0x4b12d01f
    75a8:	2b04681b 	.word	0x2b04681b
    75ac:	2009d11b 	.word	0x2009d11b
    75b0:	fb3ef02d 	.word	0xfb3ef02d
    75b4:	d0162800 	.word	0xd0162800
    75b8:	3402466c 	.word	0x3402466c
    75bc:	205e2202 	.word	0x205e2202
    75c0:	f02d1c21 	.word	0xf02d1c21
    75c4:	2200fb21 	.word	0x2200fb21
    75c8:	2b005ea3 	.word	0x2b005ea3
    75cc:	2202d00b 	.word	0x2202d00b
    75d0:	1c21205f 	.word	0x1c21205f
    75d4:	fb18f02d 	.word	0xfb18f02d
    75d8:	5ea32200 	.word	0x5ea32200
    75dc:	d1022b00 	.word	0xd1022b00
    75e0:	23024a06 	.word	0x23024a06
    75e4:	b0016013 	.word	0xb0016013
    75e8:	bc01bc10 	.word	0xbc01bc10
    75ec:	46c04700 	.word	0x46c04700
    75f0:	000072d4 	.word	0x000072d4
    75f4:	001ba558 	.word	0x001ba558
    75f8:	00000664 	.word	0x00000664
    75fc:	0000e590 	.word	0x0000e590
    7600:	22e7b500 	.word	0x22e7b500
    7604:	49084807 	.word	0x49084807
    7608:	f02d00d2 	.word	0xf02d00d2
    760c:	2800fb19 	.word	0x2800fb19
    7610:	f7fed006 	.word	0xf7fed006
    7614:	f001fead 	.word	0xf001fead
    7618:	f7feffef 	.word	0xf7feffef
    761c:	2001fe69 	.word	0x2001fe69
    7620:	4708bc02 	.word	0x4708bc02
    7624:	001aff84 	.word	0x001aff84
    7628:	001ba558 	.word	0x001ba558
    762c:	f7ffb500 	.word	0xf7ffb500
    7630:	4a0effe7 	.word	0x4a0effe7
    7634:	60132300 	.word	0x60132300
    7638:	f942f7fb 	.word	0xf942f7fb
    763c:	681b4b0c 	.word	0x681b4b0c
    7640:	d1072b09 	.word	0xd1072b09
    7644:	f01b480b 	.word	0xf01b480b
    7648:	2800fbd7 	.word	0x2800fbd7
    764c:	480ad102 	.word	0x480ad102
    7650:	fba4f01b 	.word	0xfba4f01b
    7654:	f01b2000 	.word	0xf01b2000
    7658:	f02df825 	.word	0xf02df825
    765c:	2000faf5 	.word	0x2000faf5
    7660:	fe36f7fe 	.word	0xfe36f7fe
    7664:	f8a4f002 	.word	0xf8a4f002
    7668:	4700bc01 	.word	0x4700bc01
    766c:	001bd7f4 	.word	0x001bd7f4
    7670:	001aff50 	.word	0x001aff50
    7674:	001ba7b8 	.word	0x001ba7b8
    7678:	001bc7f4 	.word	0x001bc7f4
    767c:	f7ffb510 	.word	0xf7ffb510
    7680:	4c0affbf 	.word	0x4c0affbf
    7684:	2b006823 	.word	0x2b006823
    7688:	2002d008 	.word	0x2002d008
    768c:	fe20f7fe 	.word	0xfe20f7fe
    7690:	60232300 	.word	0x60232300
    7694:	f7fc4806 	.word	0xf7fc4806
    7698:	e002fab5 	.word	0xe002fab5
    769c:	f7fe2001 	.word	0xf7fe2001
    76a0:	f7fbfe17 	.word	0xf7fbfe17
    76a4:	bc10f90d 	.word	0xbc10f90d
    76a8:	4700bc01 	.word	0x4700bc01
    76ac:	001aff4c 	.word	0x001aff4c
    76b0:	001ab064 	.word	0x001ab064
    76b4:	f7feb510 	.word	0xf7feb510
    76b8:	2001fe1b 	.word	0x2001fe1b
    76bc:	fe08f7fe 	.word	0xfe08f7fe
    76c0:	f876f002 	.word	0xf876f002
    76c4:	fac4f02d 	.word	0xfac4f02d
    76c8:	23004c0a 	.word	0x23004c0a
    76cc:	4a0a6023 	.word	0x4a0a6023
    76d0:	58d34b0a 	.word	0x58d34b0a
    76d4:	d1092b02 	.word	0xd1092b02
    76d8:	f7fc4809 	.word	0xf7fc4809
    76dc:	2002fa93 	.word	0x2002fa93
    76e0:	fdf6f7fe 	.word	0xfdf6f7fe
    76e4:	f8ecf7fb 	.word	0xf8ecf7fb
    76e8:	60232301 	.word	0x60232301
    76ec:	bc01bc10 	.word	0xbc01bc10
    76f0:	46c04700 	.word	0x46c04700
    76f4:	001aff4c 	.word	0x001aff4c
    76f8:	001ba558 	.word	0x001ba558
    76fc:	00000614 	.word	0x00000614
    7700:	001ab088 	.word	0x001ab088
    7704:	b089b5f0 	.word	0xb089b5f0
    7708:	91029003 	.word	0x91029003
    770c:	f9e4f02d 	.word	0xf9e4f02d
    7710:	4a3d23c0 	.word	0x4a3d23c0
    7714:	4018009b 	.word	0x4018009b
    7718:	4a3c6010 	.word	0x4a3c6010
    771c:	1c152400 	.word	0x1c152400
    7720:	1c179207 	.word	0x1c179207
    7724:	e006350c 	.word	0xe006350c
    7728:	f02d6838 	.word	0xf02d6838
    772c:	4284f9fd 	.word	0x4284f9fd
    7730:	1c04d200 	.word	0x1c04d200
    7734:	42af3704 	.word	0x42af3704
    7738:	00e3d1f6 	.word	0x00e3d1f6
    773c:	9308330a 	.word	0x9308330a
    7740:	9a084b33 	.word	0x9a084b33
    7744:	4833681b 	.word	0x4833681b
    7748:	085e1a9b 	.word	0x085e1a9b
    774c:	18b24b32 	.word	0x18b24b32
    7750:	9000681c 	.word	0x9000681c
    7754:	08643c38 	.word	0x08643c38
    7758:	1c231c21 	.word	0x1c231c21
    775c:	334c3114 	.word	0x334c3114
    7760:	1c251c30 	.word	0x1c251c30
    7764:	fd8cf7fa 	.word	0xfd8cf7fa
    7768:	e0103518 	.word	0xe0103518
    776c:	cb109b07 	.word	0xcb109b07
    7770:	1c209307 	.word	0x1c209307
    7774:	f9d8f02d 	.word	0xf9d8f02d
    7778:	00c09a08 	.word	0x00c09a08
    777c:	08401a10 	.word	0x08401a10
    7780:	19801c29 	.word	0x19801c29
    7784:	4b251c22 	.word	0x4b251c22
    7788:	fdc8f7fa 	.word	0xfdc8f7fa
    778c:	9b073510 	.word	0x9b073510
    7790:	d1eb42bb 	.word	0xd1eb42bb
    7794:	2a009a03 	.word	0x2a009a03
    7798:	4b1dd032 	.word	0x4b1dd032
    779c:	681b2600 	.word	0x681b2600
    77a0:	3b962500 	.word	0x3b962500
    77a4:	9304085b 	.word	0x9304085b
    77a8:	27004b1b 	.word	0x27004b1b
    77ac:	3b54681b 	.word	0x3b54681b
    77b0:	3b2a085b 	.word	0x3b2a085b
    77b4:	e0209305 	.word	0xe0209305
    77b8:	4a199b03 	.word	0x4a199b03
    77bc:	24005d99 	.word	0x24005d99
    77c0:	005b094b 	.word	0x005b094b
    77c4:	221f5a9b 	.word	0x221f5a9b
    77c8:	9306400a 	.word	0x9306400a
    77cc:	e0109201 	.word	0xe0109201
    77d0:	2b009b06 	.word	0x2b009b06
    77d4:	9a04d006 	.word	0x9a04d006
    77d8:	18a89b05 	.word	0x18a89b05
    77dc:	9a0618f9 	.word	0x9a0618f9
    77e0:	fb0ef7fa 	.word	0xfb0ef7fa
    77e4:	d1022d95 	.word	0xd1022d95
    77e8:	25003701 	.word	0x25003701
    77ec:	3501e000 	.word	0x3501e000
    77f0:	9a013401 	.word	0x9a013401
    77f4:	daeb42a2 	.word	0xdaeb42a2
    77f8:	9b023601 	.word	0x9b023601
    77fc:	dbdb429e 	.word	0xdbdb429e
    7800:	bcf0b009 	.word	0xbcf0b009
    7804:	4700bc01 	.word	0x4700bc01
    7808:	001aff60 	.word	0x001aff60
    780c:	001a220c 	.word	0x001a220c
    7810:	001af758 	.word	0x001af758
    7814:	0000b3b3 	.word	0x0000b3b3
    7818:	001af75c 	.word	0x001af75c
    781c:	0000b301 	.word	0x0000b301
    7820:	001a21fc 	.word	0x001a21fc
    7824:	4b2eb5f0 	.word	0x4b2eb5f0
    7828:	681bb086 	.word	0x681bb086
    782c:	d0532b00 	.word	0xd0532b00
    7830:	68134a2c 	.word	0x68134a2c
    7834:	d0262b00 	.word	0xd0262b00
    7838:	23004f2b 	.word	0x23004f2b
    783c:	1c386013 	.word	0x1c386013
    7840:	f02d4669 	.word	0xf02d4669
    7844:	2800f991 	.word	0x2800f991
    7848:	9802d11d 	.word	0x9802d11d
    784c:	60304e27 	.word	0x60304e27
    7850:	f982f02d 	.word	0xf982f02d
    7854:	60284d26 	.word	0x60284d26
    7858:	d0142800 	.word	0xd0142800
    785c:	1c384925 	.word	0x1c384925
    7860:	f9faf02d 	.word	0xf9faf02d
    7864:	28001c04 	.word	0x28001c04
    7868:	6828d009 	.word	0x6828d009
    786c:	21016832 	.word	0x21016832
    7870:	f02d1c23 	.word	0xf02d1c23
    7874:	1c20f9f5 	.word	0x1c20f9f5
    7878:	f9f6f02d 	.word	0xf9f6f02d
    787c:	6828e003 	.word	0x6828e003
    7880:	f95ef02d 	.word	0xf95ef02d
    7884:	4b16602c 	.word	0x4b16602c
    7888:	2b10681b 	.word	0x2b10681b
    788c:	4b18dd06 	.word	0x4b18dd06
    7890:	4b166818 	.word	0x4b166818
    7894:	f7ff6819 	.word	0xf7ff6819
    7898:	e013ff35 	.word	0xe013ff35
    789c:	d1112b01 	.word	0xd1112b01
    78a0:	f91af02d 	.word	0xf91af02d
    78a4:	009b23c0 	.word	0x009b23c0
    78a8:	4b134018 	.word	0x4b134018
    78ac:	4298681b 	.word	0x4298681b
    78b0:	4a12d108 	.word	0x4a12d108
    78b4:	2b006813 	.word	0x2b006813
    78b8:	6813d002 	.word	0x6813d002
    78bc:	d1012b01 	.word	0xd1012b01
    78c0:	fffef7fa 	.word	0xfffef7fa
    78c4:	68134a06 	.word	0x68134a06
    78c8:	60133b01 	.word	0x60133b01
    78cc:	d1032b00 	.word	0xd1032b00
    78d0:	68184b07 	.word	0x68184b07
    78d4:	f934f02d 	.word	0xf934f02d
    78d8:	bcf0b006 	.word	0xbcf0b006
    78dc:	4700bc01 	.word	0x4700bc01
    78e0:	001aff5c 	.word	0x001aff5c
    78e4:	001ab194 	.word	0x001ab194
    78e8:	001a7bf2 	.word	0x001a7bf2
    78ec:	001afcf0 	.word	0x001afcf0
    78f0:	001afcf4 	.word	0x001afcf4
    78f4:	001a7c07 	.word	0x001a7c07
    78f8:	001aff60 	.word	0x001aff60
    78fc:	001aff50 	.word	0x001aff50
    7900:	f7fab510 	.word	0xf7fab510
    7904:	2800fa41 	.word	0x2800fa41
    7908:	4b27d109 	.word	0x4b27d109
    790c:	2b00681b 	.word	0x2b00681b
    7910:	f7fad005 	.word	0xf7fad005
    7914:	f7fcfa2f 	.word	0xf7fcfa2f
    7918:	f7fef969 	.word	0xf7fef969
    791c:	f7fffad9 	.word	0xf7fffad9
    7920:	4a22ff81 	.word	0x4a22ff81
    7924:	49202301 	.word	0x49202301
    7928:	680c6013 	.word	0x680c6013
    792c:	4820680a 	.word	0x4820680a
    7930:	189b0053 	.word	0x189b0053
    7934:	581b009b 	.word	0x581b009b
    7938:	d0062b00 	.word	0xd0062b00
    793c:	005a680b 	.word	0x005a680b
    7940:	009218d2 	.word	0x009218d2
    7944:	f0005813 	.word	0xf0005813
    7948:	4b18fa2c 	.word	0x4b18fa2c
    794c:	601a2200 	.word	0x601a2200
    7950:	68134a15 	.word	0x68134a15
    7954:	d007429c 	.word	0xd007429c
    7958:	d9052c01 	.word	0xd9052c01
    795c:	2b046813 	.word	0x2b046813
    7960:	6813d002 	.word	0x6813d002
    7964:	d1032b0d 	.word	0xd1032b0d
    7968:	681b4b12 	.word	0x681b4b12
    796c:	d0172b00 	.word	0xd0172b00
    7970:	681b4b10 	.word	0x681b4b10
    7974:	d0012b00 	.word	0xd0012b00
    7978:	f938f7fc 	.word	0xf938f7fc
    797c:	22004b0d 	.word	0x22004b0d
    7980:	4a09601a 	.word	0x4a09601a
    7984:	2b056813 	.word	0x2b056813
    7988:	6813d00a 	.word	0x6813d00a
    798c:	d0072b06 	.word	0xd0072b06
    7990:	2b0e6813 	.word	0x2b0e6813
    7994:	6813d004 	.word	0x6813d004
    7998:	d0012b0f 	.word	0xd0012b0f
    799c:	ff90f7fa 	.word	0xff90f7fa
    79a0:	bc01bc10 	.word	0xbc01bc10
    79a4:	46c04700 	.word	0x46c04700
    79a8:	001aff50 	.word	0x001aff50
    79ac:	001aff58 	.word	0x001aff58
    79b0:	001aafa4 	.word	0x001aafa4
    79b4:	001aff54 	.word	0x001aff54
    79b8:	2100b500 	.word	0x2100b500
    79bc:	fc4af7fe 	.word	0xfc4af7fe
    79c0:	f956f02d 	.word	0xf956f02d
    79c4:	f02d2101 	.word	0xf02d2101
    79c8:	bc01f957 	.word	0xbc01f957
    79cc:	46c04700 	.word	0x46c04700
    79d0:	2100b500 	.word	0x2100b500
    79d4:	fda4f7fe 	.word	0xfda4f7fe
    79d8:	f94af02d 	.word	0xf94af02d
    79dc:	f02d2101 	.word	0xf02d2101
    79e0:	bc01f94b 	.word	0xbc01f94b
    79e4:	46c04700 	.word	0x46c04700
    79e8:	f02db500 	.word	0xf02db500
    79ec:	4b21f949 	.word	0x4b21f949
    79f0:	1c5a681b 	.word	0x1c5a681b
    79f4:	1ac2d008 	.word	0x1ac2d008
    79f8:	005b23c8 	.word	0x005b23c8
    79fc:	dc03429a 	.word	0xdc03429a
    7a00:	68134a1d 	.word	0x68134a1d
    7a04:	6013425b 	.word	0x6013425b
    7a08:	60184b1a 	.word	0x60184b1a
    7a0c:	23bf481b 	.word	0x23bf481b
    7a10:	58c300db 	.word	0x58c300db
    7a14:	d0062b02 	.word	0xd0062b02
    7a18:	d0252b03 	.word	0xd0252b03
    7a1c:	d1262b01 	.word	0xd1262b01
    7a20:	f944f7fa 	.word	0xf944f7fa
    7a24:	4b16e023 	.word	0x4b16e023
    7a28:	2b0358c3 	.word	0x2b0358c3
    7a2c:	4b12d10d 	.word	0x4b12d10d
    7a30:	681a4914 	.word	0x681a4914
    7a34:	189b0093 	.word	0x189b0093
    7a38:	005b680a 	.word	0x005b680a
    7a3c:	600b189b 	.word	0x600b189b
    7a40:	d9142b3f 	.word	0xd9142b3f
    7a44:	600b2300 	.word	0x600b2300
    7a48:	3b01e011 	.word	0x3b01e011
    7a4c:	d80e2b01 	.word	0xd80e2b01
    7a50:	21c04b09 	.word	0x21c04b09
    7a54:	584200c9 	.word	0x584200c9
    7a58:	189b681b 	.word	0x189b681b
    7a5c:	2b805043 	.word	0x2b805043
    7a60:	2300d905 	.word	0x2300d905
    7a64:	e0025043 	.word	0xe0025043
    7a68:	f7fe2001 	.word	0xf7fe2001
    7a6c:	bc01fd89 	.word	0xbc01fd89
    7a70:	46c04700 	.word	0x46c04700
    7a74:	001ab19c 	.word	0x001ab19c
    7a78:	001ab198 	.word	0x001ab198
    7a7c:	001ba558 	.word	0x001ba558
    7a80:	000005fc 	.word	0x000005fc
    7a84:	001afd04 	.word	0x001afd04
    7a88:	200db530 	.word	0x200db530
    7a8c:	f8d0f02d 	.word	0xf8d0f02d
    7a90:	d00f2800 	.word	0xd00f2800
    7a94:	23bf4a3b 	.word	0x23bf4a3b
    7a98:	58d300db 	.word	0x58d300db
    7a9c:	dd022b00 	.word	0xdd022b00
    7aa0:	ffa2f7ff 	.word	0xffa2f7ff
    7aa4:	6813e06a 	.word	0x6813e06a
    7aa8:	414b4259 	.word	0x414b4259
    7aac:	f7fa6013 	.word	0xf7fa6013
    7ab0:	e063ff07 	.word	0xe063ff07
    7ab4:	f02d2005 	.word	0xf02d2005
    7ab8:	2800f8bb 	.word	0x2800f8bb
    7abc:	4832d005 	.word	0x4832d005
    7ac0:	f8a0f7fc 	.word	0xf8a0f7fc
    7ac4:	fd1cf7fe 	.word	0xfd1cf7fe
    7ac8:	f02de058 	.word	0xf02de058
    7acc:	0400f8ad 	.word	0x0400f8ad
    7ad0:	d0532800 	.word	0xd0532800
    7ad4:	f02d2004 	.word	0xf02d2004
    7ad8:	2800f8ab 	.word	0x2800f8ab
    7adc:	2001d001 	.word	0x2001d001
    7ae0:	2003e006 	.word	0x2003e006
    7ae4:	f8a4f02d 	.word	0xf8a4f02d
    7ae8:	d0042800 	.word	0xd0042800
    7aec:	42402001 	.word	0x42402001
    7af0:	ff62f7ff 	.word	0xff62f7ff
    7af4:	2001e042 	.word	0x2001e042
    7af8:	f89af02d 	.word	0xf89af02d
    7afc:	d0052800 	.word	0xd0052800
    7b00:	23ad4920 	.word	0x23ad4920
    7b04:	00db4a21 	.word	0x00db4a21
    7b08:	e02450ca 	.word	0xe02450ca
    7b0c:	f02d2002 	.word	0xf02d2002
    7b10:	2800f88f 	.word	0x2800f88f
    7b14:	f02cd025 	.word	0xf02cd025
    7b18:	23ffffdf 	.word	0x23ffffdf
    7b1c:	38044018 	.word	0x38044018
    7b20:	28014d18 	.word	0x28014d18
    7b24:	f02dd812 	.word	0xf02dd812
    7b28:	0400f8af 	.word	0x0400f8af
    7b2c:	f02d1400 	.word	0xf02d1400
    7b30:	0404f8af 	.word	0x0404f8af
    7b34:	f8b0f02d 	.word	0xf8b0f02d
    7b38:	f8b2f02d 	.word	0xf8b2f02d
    7b3c:	04240c24 	.word	0x04240c24
    7b40:	1c011424 	.word	0x1c011424
    7b44:	f02d1c20 	.word	0xf02d1c20
    7b48:	e001f8af 	.word	0xe001f8af
    7b4c:	f8b0f02d 	.word	0xf8b0f02d
    7b50:	00db23ad 	.word	0x00db23ad
    7b54:	f02d50e8 	.word	0xf02d50e8
    7b58:	2101f88b 	.word	0x2101f88b
    7b5c:	f88cf02d 	.word	0xf88cf02d
    7b60:	f02ce00c 	.word	0xf02ce00c
    7b64:	2808ffd9 	.word	0x2808ffd9
    7b68:	2809d002 	.word	0x2809d002
    7b6c:	e001d106 	.word	0xe001d106
    7b70:	e0012001 	.word	0xe0012001
    7b74:	42402001 	.word	0x42402001
    7b78:	ff2af7ff 	.word	0xff2af7ff
    7b7c:	bc01bc30 	.word	0xbc01bc30
    7b80:	46c04700 	.word	0x46c04700
    7b84:	001ba558 	.word	0x001ba558
    7b88:	001ab070 	.word	0x001ab070
    7b8c:	0000ffff 	.word	0x0000ffff
    7b90:	f7ffb500 	.word	0xf7ffb500
    7b94:	4b14f9c5 	.word	0x4b14f9c5
    7b98:	20144a14 	.word	0x20144a14
    7b9c:	f7fa210e 	.word	0xf7fa210e
    7ba0:	f02cfc4b 	.word	0xf02cfc4b
    7ba4:	23c0ff99 	.word	0x23c0ff99
    7ba8:	4018009b 	.word	0x4018009b
    7bac:	005b2380 	.word	0x005b2380
    7bb0:	d1144298 	.word	0xd1144298
    7bb4:	4a0e4b0c 	.word	0x4a0e4b0c
    7bb8:	210e2000 	.word	0x210e2000
    7bbc:	fc3cf7fa 	.word	0xfc3cf7fa
    7bc0:	681b4b0c 	.word	0x681b4b0c
    7bc4:	d0022b00 	.word	0xd0022b00
    7bc8:	23054a0b 	.word	0x23054a0b
    7bcc:	4a0a6013 	.word	0x4a0a6013
    7bd0:	2b006813 	.word	0x2b006813
    7bd4:	3b01d003 	.word	0x3b01d003
    7bd8:	f0106013 	.word	0xf0106013
    7bdc:	f00bf91f 	.word	0xf00bf91f
    7be0:	bc01f9a3 	.word	0xbc01f9a3
    7be4:	46c04700 	.word	0x46c04700
    7be8:	00001a01 	.word	0x00001a01
    7bec:	001a7c0a 	.word	0x001a7c0a
    7bf0:	001bc45c 	.word	0x001bc45c
    7bf4:	001ba54c 	.word	0x001ba54c
    7bf8:	001afd00 	.word	0x001afd00
    7bfc:	2000b510 	.word	0x2000b510
    7c00:	fb66f7fe 	.word	0xfb66f7fe
    7c04:	22004b1c 	.word	0x22004b1c
    7c08:	4b1c601a 	.word	0x4b1c601a
    7c0c:	4a1c601a 	.word	0x4a1c601a
    7c10:	00db2391 	.word	0x00db2391
    7c14:	2b0058d3 	.word	0x2b0058d3
    7c18:	2004dd02 	.word	0x2004dd02
    7c1c:	f84cf02d 	.word	0xf84cf02d
    7c20:	4a184b17 	.word	0x4a184b17
    7c24:	2b00589b 	.word	0x2b00589b
    7c28:	2200d101 	.word	0x2200d101
    7c2c:	2214e000 	.word	0x2214e000
    7c30:	601a4b15 	.word	0x601a4b15
    7c34:	fbc4f7fe 	.word	0xfbc4f7fe
    7c38:	f99af006 	.word	0xf99af006
    7c3c:	fe58f7fa 	.word	0xfe58f7fa
    7c40:	21fa4b12 	.word	0x21fa4b12
    7c44:	00496818 	.word	0x00496818
    7c48:	fc98f02b 	.word	0xfc98f02b
    7c4c:	4c104b0c 	.word	0x4c104b0c
    7c50:	6cdb33fc 	.word	0x6cdb33fc
    7c54:	2b006020 	.word	0x2b006020
    7c58:	2201d101 	.word	0x2201d101
    7c5c:	2219e000 	.word	0x2219e000
    7c60:	480d4b0c 	.word	0x480d4b0c
    7c64:	f005601a 	.word	0xf005601a
    7c68:	480cfc7b 	.word	0x480cfc7b
    7c6c:	fc78f005 	.word	0xfc78f005
    7c70:	bc01bc10 	.word	0xbc01bc10
    7c74:	46c04700 	.word	0x46c04700
    7c78:	001aff54 	.word	0x001aff54
    7c7c:	001aff58 	.word	0x001aff58
    7c80:	001ba558 	.word	0x001ba558
    7c84:	00000484 	.word	0x00000484
    7c88:	001aff5c 	.word	0x001aff5c
    7c8c:	001af760 	.word	0x001af760
    7c90:	001baf2c 	.word	0x001baf2c
    7c94:	001aff48 	.word	0x001aff48
    7c98:	001a7c10 	.word	0x001a7c10
    7c9c:	001a7c20 	.word	0x001a7c20
    7ca0:	2802b500 	.word	0x2802b500
    7ca4:	f02dd101 	.word	0xf02dd101
    7ca8:	bc01f80b 	.word	0xbc01f80b
    7cac:	46c04700 	.word	0x46c04700
    7cb0:	b086b530 	.word	0xb086b530
    7cb4:	28001c05 	.word	0x28001c05
    7cb8:	4669d010 	.word	0x4669d010
    7cbc:	ff54f02c 	.word	0xff54f02c
    7cc0:	f02c9c02 	.word	0xf02c9c02
    7cc4:	4284ff5d 	.word	0x4284ff5d
    7cc8:	4806d108 	.word	0x4806d108
    7ccc:	4a074906 	.word	0x4a074906
    7cd0:	f7fc2300 	.word	0xf7fc2300
    7cd4:	1c28facb 	.word	0x1c28facb
    7cd8:	f856f006 	.word	0xf856f006
    7cdc:	bc30b006 	.word	0xbc30b006
    7ce0:	4700bc01 	.word	0x4700bc01
    7ce4:	001aa787 	.word	0x001aa787
    7ce8:	0000010b 	.word	0x0000010b
    7cec:	00000101 	.word	0x00000101
    7cf0:	1c05b530 	.word	0x1c05b530
    7cf4:	d01c2800 	.word	0xd01c2800
    7cf8:	4a144b13 	.word	0x4a144b13
    7cfc:	2b00589b 	.word	0x2b00589b
    7d00:	2000d002 	.word	0x2000d002
    7d04:	ffc2f010 	.word	0xffc2f010
    7d08:	1c294c11 	.word	0x1c294c11
    7d0c:	220a1c20 	.word	0x220a1c20
    7d10:	f9fcf7fe 	.word	0xf9fcf7fe
    7d14:	21014b0f 	.word	0x21014b0f
    7d18:	1c2018e4 	.word	0x1c2018e4
    7d1c:	f0112200 	.word	0xf0112200
    7d20:	2800f8d7 	.word	0x2800f8d7
    7d24:	1c20d103 	.word	0x1c20d103
    7d28:	f0112100 	.word	0xf0112100
    7d2c:	f7fef989 	.word	0xf7fef989
    7d30:	4a05fa13 	.word	0x4a05fa13
    7d34:	00db23e2 	.word	0x00db23e2
    7d38:	490758d3 	.word	0x490758d3
    7d3c:	5858009b 	.word	0x5858009b
    7d40:	bc02bc30 	.word	0xbc02bc30
    7d44:	46c04708 	.word	0x46c04708
    7d48:	001ba558 	.word	0x001ba558
    7d4c:	00000714 	.word	0x00000714
    7d50:	001bac68 	.word	0x001bac68
    7d54:	fffff9c8 	.word	0xfffff9c8
    7d58:	001a22cc 	.word	0x001a22cc
    7d5c:	4c08b510 	.word	0x4c08b510
    7d60:	1c202100 	.word	0x1c202100
    7d64:	f96cf011 	.word	0xf96cf011
    7d68:	3cd84b06 	.word	0x3cd84b06
    7d6c:	2b0058e3 	.word	0x2b0058e3
    7d70:	2001d002 	.word	0x2001d002
    7d74:	ff8af010 	.word	0xff8af010
    7d78:	bc01bc10 	.word	0xbc01bc10
    7d7c:	46c04700 	.word	0x46c04700
    7d80:	001ba630 	.word	0x001ba630
    7d84:	00000714 	.word	0x00000714
    7d88:	2800b500 	.word	0x2800b500
    7d8c:	2101d002 	.word	0x2101d002
    7d90:	f956f011 	.word	0xf956f011
    7d94:	4700bc01 	.word	0x4700bc01
    7d98:	f005b500 	.word	0xf005b500
    7d9c:	bc01faa1 	.word	0xbc01faa1
    7da0:	47184700 	.word	0x47184700
    7da4:	60184b03 	.word	0x60184b03
    7da8:	60184b03 	.word	0x60184b03
    7dac:	60184b03 	.word	0x60184b03
    7db0:	46c04770 	.word	0x46c04770
    7db4:	001b0704 	.word	0x001b0704
    7db8:	001ba550 	.word	0x001ba550
    7dbc:	001b06c4 	.word	0x001b06c4
    7dc0:	68184b01 	.word	0x68184b01
    7dc4:	46c04770 	.word	0x46c04770
    7dc8:	001ba550 	.word	0x001ba550
    7dcc:	1e424b02 	.word	0x1e424b02
    7dd0:	60184190 	.word	0x60184190
    7dd4:	46c04770 	.word	0x46c04770
    7dd8:	001ba550 	.word	0x001ba550
    7ddc:	b081b5f0 	.word	0xb081b5f0
    7de0:	fe7af02c 	.word	0xfe7af02c
    7de4:	f02c1c07 	.word	0xf02c1c07
    7de8:	2800ff1b 	.word	0x2800ff1b
    7dec:	2601d001 	.word	0x2601d001
    7df0:	4b82e005 	.word	0x4b82e005
    7df4:	681b2601 	.word	0x681b2601
    7df8:	dc002b01 	.word	0xdc002b01
    7dfc:	20012600 	.word	0x20012600
    7e00:	fe86f02c 	.word	0xfe86f02c
    7e04:	d1062800 	.word	0xd1062800
    7e08:	f02c2002 	.word	0xf02c2002
    7e0c:	2800fe81 	.word	0x2800fe81
    7e10:	4b7bd101 	.word	0x4b7bd101
    7e14:	4b7b6018 	.word	0x4b7b6018
    7e18:	2b00781b 	.word	0x2b00781b
    7e1c:	e0e8d000 	.word	0xe0e8d000
    7e20:	009b23c0 	.word	0x009b23c0
    7e24:	401a1c3a 	.word	0x401a1c3a
    7e28:	005b2380 	.word	0x005b2380
    7e2c:	d000429a 	.word	0xd000429a
    7e30:	f02ce0df 	.word	0xf02ce0df
    7e34:	4d74fe75 	.word	0x4d74fe75
    7e38:	00db238e 	.word	0x00db238e
    7e3c:	900058eb 	.word	0x900058eb
    7e40:	d0242b00 	.word	0xd0242b00
    7e44:	f02c2006 	.word	0xf02c2006
    7e48:	2800fe63 	.word	0x2800fe63
    7e4c:	9b00d01f 	.word	0x9b00d01f
    7e50:	d11c2b65 	.word	0xd11c2b65
    7e54:	403b23ff 	.word	0x403b23ff
    7e58:	d0182b05 	.word	0xd0182b05
    7e5c:	d1162e00 	.word	0xd1162e00
    7e60:	f02c206b 	.word	0xf02c206b
    7e64:	4c69feb9 	.word	0x4c69feb9
    7e68:	3301592b 	.word	0x3301592b
    7e6c:	18c1011b 	.word	0x18c1011b
    7e70:	f02c206b 	.word	0xf02c206b
    7e74:	20d3ff29 	.word	0x20d3ff29
    7e78:	feaef02c 	.word	0xfeaef02c
    7e7c:	3301592b 	.word	0x3301592b
    7e80:	18c1011b 	.word	0x18c1011b
    7e84:	f02c20d3 	.word	0xf02c20d3
    7e88:	f02cff1f 	.word	0xf02cff1f
    7e8c:	4d5eff21 	.word	0x4d5eff21
    7e90:	00db238e 	.word	0x00db238e
    7e94:	2b0058eb 	.word	0x2b0058eb
    7e98:	2006d024 	.word	0x2006d024
    7e9c:	fe38f02c 	.word	0xfe38f02c
    7ea0:	d01f2800 	.word	0xd01f2800
    7ea4:	2b649b00 	.word	0x2b649b00
    7ea8:	23ffd11c 	.word	0x23ffd11c
    7eac:	2b05403b 	.word	0x2b05403b
    7eb0:	2e00d018 	.word	0x2e00d018
    7eb4:	206bd116 	.word	0x206bd116
    7eb8:	fe8ef02c 	.word	0xfe8ef02c
    7ebc:	592b4c53 	.word	0x592b4c53
    7ec0:	011b43db 	.word	0x011b43db
    7ec4:	206b18c1 	.word	0x206b18c1
    7ec8:	fefef02c 	.word	0xfefef02c
    7ecc:	f02c20d3 	.word	0xf02c20d3
    7ed0:	592bfe83 	.word	0x592bfe83
    7ed4:	011b43db 	.word	0x011b43db
    7ed8:	20d318c1 	.word	0x20d318c1
    7edc:	fef4f02c 	.word	0xfef4f02c
    7ee0:	fef6f02c 	.word	0xfef6f02c
    7ee4:	f02c2001 	.word	0xf02c2001
    7ee8:	2800fe13 	.word	0x2800fe13
    7eec:	2e00d024 	.word	0x2e00d024
    7ef0:	4b42d022 	.word	0x4b42d022
    7ef4:	2b04681b 	.word	0x2b04681b
    7ef8:	4a43d11e 	.word	0x4a43d11e
    7efc:	00db2390 	.word	0x00db2390
    7f00:	2b0058d3 	.word	0x2b0058d3
    7f04:	4b3ed018 	.word	0x4b3ed018
    7f08:	2b00681b 	.word	0x2b00681b
    7f0c:	23a1d114 	.word	0x23a1d114
    7f10:	58d300db 	.word	0x58d300db
    7f14:	d00c2b00 	.word	0xd00c2b00
    7f18:	d10a2b01 	.word	0xd10a2b01
    7f1c:	5853493c 	.word	0x5853493c
    7f20:	50533301 	.word	0x50533301
    7f24:	dd012b63 	.word	0xdd012b63
    7f28:	50532363 	.word	0x50532363
    7f2c:	23014a39 	.word	0x23014a39
    7f30:	4a336013 	.word	0x4a336013
    7f34:	e03f2301 	.word	0xe03f2301
    7f38:	f02c2002 	.word	0xf02c2002
    7f3c:	2800fde9 	.word	0x2800fde9
    7f40:	2e00d023 	.word	0x2e00d023
    7f44:	4b2dd021 	.word	0x4b2dd021
    7f48:	2b04681b 	.word	0x2b04681b
    7f4c:	482ed11d 	.word	0x482ed11d
    7f50:	00db2390 	.word	0x00db2390
    7f54:	2b0058c3 	.word	0x2b0058c3
    7f58:	4b29d017 	.word	0x4b29d017
    7f5c:	2b00681b 	.word	0x2b00681b
    7f60:	23a1d113 	.word	0x23a1d113
    7f64:	58c200db 	.word	0x58c200db
    7f68:	d00b2a00 	.word	0xd00b2a00
    7f6c:	d1092a01 	.word	0xd1092a01
    7f70:	58434927 	.word	0x58434927
    7f74:	50433b01 	.word	0x50433b01
    7f78:	dc002b00 	.word	0xdc002b00
    7f7c:	4a255042 	.word	0x4a255042
    7f80:	60132301 	.word	0x60132301
    7f84:	23024a1e 	.word	0x23024a1e
    7f88:	2003e016 	.word	0x2003e016
    7f8c:	fdc0f02c 	.word	0xfdc0f02c
    7f90:	d0132800 	.word	0xd0132800
    7f94:	d0112e00 	.word	0xd0112e00
    7f98:	680b4918 	.word	0x680b4918
    7f9c:	d10d2b04 	.word	0xd10d2b04
    7fa0:	4a1d4b19 	.word	0x4a1d4b19
    7fa4:	2b00589b 	.word	0x2b00589b
    7fa8:	4a15d008 	.word	0x4a15d008
    7fac:	2b006813 	.word	0x2b006813
    7fb0:	2301d104 	.word	0x2301d104
    7fb4:	2303600b 	.word	0x2303600b
    7fb8:	e0186013 	.word	0xe0186013
    7fbc:	f02c2004 	.word	0xf02c2004
    7fc0:	2800fda7 	.word	0x2800fda7
    7fc4:	2e00d015 	.word	0x2e00d015
    7fc8:	480cd013 	.word	0x480cd013
    7fcc:	2c016804 	.word	0x2c016804
    7fd0:	4b0dd10f 	.word	0x4b0dd10f
    7fd4:	589b4a10 	.word	0x589b4a10
    7fd8:	d00a2b00 	.word	0xd00a2b00
    7fdc:	680b4908 	.word	0x680b4908
    7fe0:	d1062b00 	.word	0xd1062b00
    7fe4:	22044b0b 	.word	0x22044b0b
    7fe8:	601c6002 	.word	0x601c6002
    7fec:	2001600a 	.word	0x2001600a
    7ff0:	2000e000 	.word	0x2000e000
    7ff4:	bcf0b001 	.word	0xbcf0b001
    7ff8:	4708bc02 	.word	0x4708bc02
    7ffc:	000072d4 	.word	0x000072d4
    8000:	001b06c0 	.word	0x001b06c0
    8004:	00008afd 	.word	0x00008afd
    8008:	001ba558 	.word	0x001ba558
    800c:	00000474 	.word	0x00000474
    8010:	0000050c 	.word	0x0000050c
    8014:	001ba528 	.word	0x001ba528
    8018:	0000047c 	.word	0x0000047c
    801c:	4a03b500 	.word	0x4a03b500
    8020:	60132300 	.word	0x60132300
    8024:	fb02f7ff 	.word	0xfb02f7ff
    8028:	4700bc01 	.word	0x4700bc01
    802c:	001ba550 	.word	0x001ba550
    8030:	4ac6b5f0 	.word	0x4ac6b5f0
    8034:	00db23df 	.word	0x00db23df
    8038:	b08158d3 	.word	0xb08158d3
    803c:	d0192b00 	.word	0xd0192b00
    8040:	00db23c2 	.word	0x00db23c2
    8044:	2b0058d3 	.word	0x2b0058d3
    8048:	f02cd014 	.word	0xf02cd014
    804c:	0400fe45 	.word	0x0400fe45
    8050:	90001400 	.word	0x90001400
    8054:	fd40f02c 	.word	0xfd40f02c
    8058:	49bd23c0 	.word	0x49bd23c0
    805c:	4003009b 	.word	0x4003009b
    8060:	185b4abc 	.word	0x185b4abc
    8064:	414b4259 	.word	0x414b4259
    8068:	f02c6013 	.word	0xf02c6013
    806c:	4bbafdd9 	.word	0x4bbafdd9
    8070:	e0016018 	.word	0xe0016018
    8074:	93002300 	.word	0x93002300
    8078:	68234cb8 	.word	0x68234cb8
    807c:	d0382b00 	.word	0xd0382b00
    8080:	4bb74ab2 	.word	0x4bb74ab2
    8084:	f02c58d0 	.word	0xf02c58d0
    8088:	2800fd43 	.word	0x2800fd43
    808c:	6823d103 	.word	0x6823d103
    8090:	2b093b28 	.word	0x2b093b28
    8094:	4ab1d817 	.word	0x4ab1d817
    8098:	2b326813 	.word	0x2b326813
    809c:	3301dc01 	.word	0x3301dc01
    80a0:	4bae6013 	.word	0x4bae6013
    80a4:	2b28681b 	.word	0x2b28681b
    80a8:	4ba8d104 	.word	0x4ba8d104
    80ac:	58984aac 	.word	0x58984aac
    80b0:	fea4f000 	.word	0xfea4f000
    80b4:	d0002b32 	.word	0xd0002b32
    80b8:	4ba4e278 	.word	0x4ba4e278
    80bc:	58984aa8 	.word	0x58984aa8
    80c0:	fe0ef02c 	.word	0xfe0ef02c
    80c4:	f02ce272 	.word	0xf02ce272
    80c8:	2800fe0f 	.word	0x2800fe0f
    80cc:	e26dd000 	.word	0xe26dd000
    80d0:	2b276823 	.word	0x2b276823
    80d4:	49a3dc0b 	.word	0x49a3dc0b
    80d8:	680a2301 	.word	0x680a2301
    80dc:	600b1a9b 	.word	0x600b1a9b
    80e0:	d0022b00 	.word	0xd0022b00
    80e4:	fae6f7ff 	.word	0xfae6f7ff
    80e8:	f7ffe001 	.word	0xf7ffe001
    80ec:	4a9bfa9f 	.word	0x4a9bfa9f
    80f0:	2006e3ba 	.word	0x2006e3ba
    80f4:	fd0cf02c 	.word	0xfd0cf02c
    80f8:	d0082800 	.word	0xd0082800
    80fc:	4b984a93 	.word	0x4b984a93
    8100:	f02c58d0 	.word	0xf02c58d0
    8104:	2800fd05 	.word	0x2800fd05
    8108:	f000d001 	.word	0xf000d001
    810c:	4c8ffe95 	.word	0x4c8ffe95
    8110:	58e04b93 	.word	0x58e04b93
    8114:	fcfcf02c 	.word	0xfcfcf02c
    8118:	d0102800 	.word	0xd0102800
    811c:	00db23df 	.word	0x00db23df
    8120:	2b0058e3 	.word	0x2b0058e3
    8124:	23c2d007 	.word	0x23c2d007
    8128:	58e300db 	.word	0x58e300db
    812c:	d0022b00 	.word	0xd0022b00
    8130:	22014b8d 	.word	0x22014b8d
    8134:	4a8950e2 	.word	0x4a8950e2
    8138:	60132301 	.word	0x60132301
    813c:	4f89e103 	.word	0x4f89e103
    8140:	2b00683b 	.word	0x2b00683b
    8144:	4b89d071 	.word	0x4b89d071
    8148:	2c00681c 	.word	0x2c00681c
    814c:	4e88d16d 	.word	0x4e88d16d
    8150:	2b006833 	.word	0x2b006833
    8154:	4d87d033 	.word	0x4d87d033
    8158:	2b00682b 	.word	0x2b00682b
    815c:	2001d01b 	.word	0x2001d01b
    8160:	fd4ef02c 	.word	0xfd4ef02c
    8164:	28004a84 	.word	0x28004a84
    8168:	6813d009 	.word	0x6813d009
    816c:	dd002b31 	.word	0xdd002b31
    8170:	4a82e21c 	.word	0x4a82e21c
    8174:	602c2301 	.word	0x602c2301
    8178:	f0006013 	.word	0xf0006013
    817c:	6813fe3a 	.word	0x6813fe3a
    8180:	60141e5c 	.word	0x60141e5c
    8184:	d1062c00 	.word	0xd1062c00
    8188:	fdb2f02c 	.word	0xfdb2f02c
    818c:	6034602c 	.word	0x6034602c
    8190:	f000603c 	.word	0xf000603c
    8194:	4d79fe51 	.word	0x4d79fe51
    8198:	2b00682b 	.word	0x2b00682b
    819c:	2001d00f 	.word	0x2001d00f
    81a0:	fd2ef02c 	.word	0xfd2ef02c
    81a4:	28001c04 	.word	0x28001c04
    81a8:	e1ffd000 	.word	0xe1ffd000
    81ac:	fda0f02c 	.word	0xfda0f02c
    81b0:	602c4b6f 	.word	0x602c4b6f
    81b4:	4b6b601c 	.word	0x4b6b601c
    81b8:	f000601c 	.word	0xf000601c
    81bc:	2007fe3d 	.word	0x2007fe3d
    81c0:	fca6f02c 	.word	0xfca6f02c
    81c4:	d0242800 	.word	0xd0242800
    81c8:	23644a64 	.word	0x23644a64
    81cc:	4a6c6013 	.word	0x4a6c6013
    81d0:	2b006813 	.word	0x2b006813
    81d4:	2000d103 	.word	0x2000d103
    81d8:	fdf0f010 	.word	0xfdf0f010
    81dc:	3b02e019 	.word	0x3b02e019
    81e0:	d90f2b01 	.word	0xd90f2b01
    81e4:	681b4b67 	.word	0x681b4b67
    81e8:	d0042b00 	.word	0xd0042b00
    81ec:	60132302 	.word	0x60132302
    81f0:	fd56f012 	.word	0xfd56f012
    81f4:	2302e006 	.word	0x2302e006
    81f8:	48636013 	.word	0x48636013
    81fc:	f854f01c 	.word	0xf854f01c
    8200:	d1062800 	.word	0xd1062800
    8204:	f01c20a9 	.word	0xf01c20a9
    8208:	f010fe6d 	.word	0xf010fe6d
    820c:	f010faab 	.word	0xf010faab
    8210:	f001faf1 	.word	0xf001faf1
    8214:	4b5af807 	.word	0x4b5af807
    8218:	2b00681b 	.word	0x2b00681b
    821c:	f000d001 	.word	0xf000d001
    8220:	f7fffe08 	.word	0xf7fffe08
    8224:	f000f97d 	.word	0xf000f97d
    8228:	4c48fe04 	.word	0x4c48fe04
    822c:	00db23df 	.word	0x00db23df
    8230:	2b0058e3 	.word	0x2b0058e3
    8234:	f000d101 	.word	0xf000d101
    8238:	23c2fdb7 	.word	0x23c2fdb7
    823c:	58e300db 	.word	0x58e300db
    8240:	d1012b00 	.word	0xd1012b00
    8244:	fdb0f000 	.word	0xfdb0f000
    8248:	68134a50 	.word	0x68134a50
    824c:	dd012b00 	.word	0xdd012b00
    8250:	e1aa3b01 	.word	0xe1aa3b01
    8254:	f02c2007 	.word	0xf02c2007
